
KeccakFW-CW308_STM32F3.elf:     file format elf32-littlearm

Sections:
Idx Name          Size      VMA       LMA       File off  Algn
  0 .isr_vector   00000188  08000000  08000000  00010000  2**0
                  CONTENTS, ALLOC, LOAD, READONLY, DATA
  1 .text         0000b2a8  08000200  08000200  00010200  2**8
                  CONTENTS, ALLOC, LOAD, READONLY, CODE
  2 .rodata       00000014  0800b4a8  0800b4a8  0001b4a8  2**0
                  CONTENTS, ALLOC, LOAD, READONLY, DATA
  3 .ARM.extab    00000000  0800b4bc  0800b4bc  0001b4c4  2**0
                  CONTENTS
  4 .ARM          00000000  0800b4bc  0800b4bc  0001b4c4  2**0
                  CONTENTS
  5 .preinit_array 00000000  0800b4bc  0800b4c4  0001b4c4  2**0
                  CONTENTS, ALLOC, LOAD, DATA
  6 .init_array   00000004  0800b4bc  0800b4bc  0001b4bc  2**2
                  CONTENTS, ALLOC, LOAD, DATA
  7 .fini_array   00000004  0800b4c0  0800b4c0  0001b4c0  2**2
                  CONTENTS, ALLOC, LOAD, DATA
  8 .data         00000000  20000000  20000000  0001b4c4  2**0
                  CONTENTS, ALLOC, LOAD, DATA
  9 .bss          00000ed4  20000000  0800b4c4  00020000  2**2
                  ALLOC
 10 ._user_heap_stack 00000404  20000ed4  0800b4c4  00020ed4  2**0
                  ALLOC
 11 .ARM.attributes 0000002a  00000000  00000000  0001b4c4  2**0
                  CONTENTS, READONLY
 12 .comment      000000a7  00000000  00000000  0001b4ee  2**0
                  CONTENTS, READONLY
 13 .debug_info   00005ed5  00000000  00000000  0001b595  2**0
                  CONTENTS, READONLY, DEBUGGING, OCTETS
 14 .debug_abbrev 0000131c  00000000  00000000  0002146a  2**0
                  CONTENTS, READONLY, DEBUGGING, OCTETS
 15 .debug_loc    00002dec  00000000  00000000  00022786  2**0
                  CONTENTS, READONLY, DEBUGGING, OCTETS
 16 .debug_aranges 000002b0  00000000  00000000  00025572  2**0
                  CONTENTS, READONLY, DEBUGGING, OCTETS
 17 .debug_ranges 00000640  00000000  00000000  00025822  2**0
                  CONTENTS, READONLY, DEBUGGING, OCTETS
 18 .debug_line   00003131  00000000  00000000  00025e62  2**0
                  CONTENTS, READONLY, DEBUGGING, OCTETS
 19 .debug_str    00001cb1  00000000  00000000  00028f93  2**0
                  CONTENTS, READONLY, DEBUGGING, OCTETS
 20 .debug_frame  00000764  00000000  00000000  0002ac44  2**2
                  CONTENTS, READONLY, DEBUGGING, OCTETS
 21 .stab         000002a0  00000000  00000000  0002b3a8  2**2
                  CONTENTS, READONLY, DEBUGGING
 22 .stabstr      0000005a  00000000  00000000  0002b648  2**0
                  CONTENTS, READONLY, DEBUGGING

Disassembly of section .text:

08000200 <deregister_tm_clones>:
 8000200:	4803      	ldr	r0, [pc, #12]	; (8000210 <deregister_tm_clones+0x10>)
 8000202:	4b04      	ldr	r3, [pc, #16]	; (8000214 <deregister_tm_clones+0x14>)
 8000204:	4283      	cmp	r3, r0
 8000206:	d002      	beq.n	800020e <deregister_tm_clones+0xe>
 8000208:	4b03      	ldr	r3, [pc, #12]	; (8000218 <deregister_tm_clones+0x18>)
 800020a:	b103      	cbz	r3, 800020e <deregister_tm_clones+0xe>
 800020c:	4718      	bx	r3
 800020e:	4770      	bx	lr
 8000210:	20000000 	.word	0x20000000
 8000214:	20000000 	.word	0x20000000
 8000218:	00000000 	.word	0x00000000

0800021c <register_tm_clones>:
 800021c:	4805      	ldr	r0, [pc, #20]	; (8000234 <register_tm_clones+0x18>)
 800021e:	4906      	ldr	r1, [pc, #24]	; (8000238 <register_tm_clones+0x1c>)
 8000220:	1a0b      	subs	r3, r1, r0
 8000222:	0fd9      	lsrs	r1, r3, #31
 8000224:	eb01 01a3 	add.w	r1, r1, r3, asr #2
 8000228:	1049      	asrs	r1, r1, #1
 800022a:	d002      	beq.n	8000232 <register_tm_clones+0x16>
 800022c:	4b03      	ldr	r3, [pc, #12]	; (800023c <register_tm_clones+0x20>)
 800022e:	b103      	cbz	r3, 8000232 <register_tm_clones+0x16>
 8000230:	4718      	bx	r3
 8000232:	4770      	bx	lr
 8000234:	20000000 	.word	0x20000000
 8000238:	20000000 	.word	0x20000000
 800023c:	00000000 	.word	0x00000000

08000240 <__do_global_dtors_aux>:
 8000240:	b510      	push	{r4, lr}
 8000242:	4c06      	ldr	r4, [pc, #24]	; (800025c <__do_global_dtors_aux+0x1c>)
 8000244:	7823      	ldrb	r3, [r4, #0]
 8000246:	b943      	cbnz	r3, 800025a <__do_global_dtors_aux+0x1a>
 8000248:	f7ff ffda 	bl	8000200 <deregister_tm_clones>
 800024c:	4b04      	ldr	r3, [pc, #16]	; (8000260 <__do_global_dtors_aux+0x20>)
 800024e:	b113      	cbz	r3, 8000256 <__do_global_dtors_aux+0x16>
 8000250:	4804      	ldr	r0, [pc, #16]	; (8000264 <__do_global_dtors_aux+0x24>)
 8000252:	f3af 8000 	nop.w
 8000256:	2301      	movs	r3, #1
 8000258:	7023      	strb	r3, [r4, #0]
 800025a:	bd10      	pop	{r4, pc}
 800025c:	20000000 	.word	0x20000000
 8000260:	00000000 	.word	0x00000000
 8000264:	0800b490 	.word	0x0800b490

08000268 <frame_dummy>:
 8000268:	b508      	push	{r3, lr}
 800026a:	4b04      	ldr	r3, [pc, #16]	; (800027c <frame_dummy+0x14>)
 800026c:	b11b      	cbz	r3, 8000276 <frame_dummy+0xe>
 800026e:	4904      	ldr	r1, [pc, #16]	; (8000280 <frame_dummy+0x18>)
 8000270:	4804      	ldr	r0, [pc, #16]	; (8000284 <frame_dummy+0x1c>)
 8000272:	f3af 8000 	nop.w
 8000276:	e8bd 4008 	ldmia.w	sp!, {r3, lr}
 800027a:	e7cf      	b.n	800021c <register_tm_clones>
 800027c:	00000000 	.word	0x00000000
 8000280:	20000004 	.word	0x20000004
 8000284:	0800b490 	.word	0x0800b490
 8000288:	00000000 	.word	0x00000000
 800028c:	00000000 	.word	0x00000000
 8000290:	00000000 	.word	0x00000000
 8000294:	00000000 	.word	0x00000000
 8000298:	00000000 	.word	0x00000000
 800029c:	00000000 	.word	0x00000000
 80002a0:	00000000 	.word	0x00000000
 80002a4:	00000000 	.word	0x00000000
 80002a8:	00000000 	.word	0x00000000
 80002ac:	00000000 	.word	0x00000000
 80002b0:	00000000 	.word	0x00000000
 80002b4:	00000000 	.word	0x00000000
 80002b8:	00000000 	.word	0x00000000
 80002bc:	00000000 	.word	0x00000000
 80002c0:	00000000 	.word	0x00000000
 80002c4:	00000000 	.word	0x00000000
 80002c8:	00000000 	.word	0x00000000
 80002cc:	00000000 	.word	0x00000000
 80002d0:	00000000 	.word	0x00000000
 80002d4:	00000000 	.word	0x00000000
 80002d8:	00000000 	.word	0x00000000
 80002dc:	00000000 	.word	0x00000000
 80002e0:	00000000 	.word	0x00000000
 80002e4:	00000000 	.word	0x00000000
 80002e8:	00000000 	.word	0x00000000
 80002ec:	00000000 	.word	0x00000000
 80002f0:	00000000 	.word	0x00000000
 80002f4:	00000000 	.word	0x00000000
 80002f8:	00000000 	.word	0x00000000
 80002fc:	00000000 	.word	0x00000000

08000300 <KeccakF1600_StatePermute>:
 8000300:	a13f      	add	r1, pc, #252	; (adr r1, 8000400 <KeccakP1600_Permute_RoundConstants24>)
 8000302:	e0fd      	b.n	8000500 <KeccakP1600_Permute>
 8000304:	f3af 8000 	nop.w
 8000308:	f3af 8000 	nop.w
 800030c:	f3af 8000 	nop.w
 8000310:	f3af 8000 	nop.w
 8000314:	f3af 8000 	nop.w
 8000318:	f3af 8000 	nop.w
 800031c:	f3af 8000 	nop.w
 8000320:	f3af 8000 	nop.w
 8000324:	f3af 8000 	nop.w
 8000328:	f3af 8000 	nop.w
 800032c:	f3af 8000 	nop.w
 8000330:	f3af 8000 	nop.w
 8000334:	f3af 8000 	nop.w
 8000338:	f3af 8000 	nop.w
 800033c:	f3af 8000 	nop.w
 8000340:	0000      	movs	r0, r0
 8000342:	0000      	movs	r0, r0
 8000344:	0000      	movs	r0, r0
 8000346:	0000      	movs	r0, r0
 8000348:	0000      	movs	r0, r0
 800034a:	0000      	movs	r0, r0
 800034c:	0000      	movs	r0, r0
 800034e:	0000      	movs	r0, r0
 8000350:	0000      	movs	r0, r0
 8000352:	0000      	movs	r0, r0
 8000354:	0000      	movs	r0, r0
 8000356:	0000      	movs	r0, r0
 8000358:	0000      	movs	r0, r0
 800035a:	0000      	movs	r0, r0
 800035c:	0000      	movs	r0, r0
 800035e:	0000      	movs	r0, r0
 8000360:	0000      	movs	r0, r0
 8000362:	0000      	movs	r0, r0
 8000364:	0000      	movs	r0, r0
 8000366:	0000      	movs	r0, r0
 8000368:	0000      	movs	r0, r0
 800036a:	0000      	movs	r0, r0
 800036c:	0000      	movs	r0, r0
 800036e:	0000      	movs	r0, r0
 8000370:	0000      	movs	r0, r0
 8000372:	0000      	movs	r0, r0
 8000374:	0000      	movs	r0, r0
 8000376:	0000      	movs	r0, r0
 8000378:	0000      	movs	r0, r0
 800037a:	0000      	movs	r0, r0
 800037c:	0000      	movs	r0, r0
 800037e:	0000      	movs	r0, r0
 8000380:	0000      	movs	r0, r0
 8000382:	0000      	movs	r0, r0
 8000384:	0000      	movs	r0, r0
 8000386:	0000      	movs	r0, r0
 8000388:	0000      	movs	r0, r0
 800038a:	0000      	movs	r0, r0
 800038c:	0000      	movs	r0, r0
 800038e:	0000      	movs	r0, r0
 8000390:	0000      	movs	r0, r0
 8000392:	0000      	movs	r0, r0
 8000394:	0000      	movs	r0, r0
 8000396:	0000      	movs	r0, r0
 8000398:	0000      	movs	r0, r0
 800039a:	0000      	movs	r0, r0
 800039c:	0000      	movs	r0, r0
 800039e:	0000      	movs	r0, r0
 80003a0:	0000      	movs	r0, r0
 80003a2:	0000      	movs	r0, r0
 80003a4:	0000      	movs	r0, r0
 80003a6:	0000      	movs	r0, r0
 80003a8:	0000      	movs	r0, r0
 80003aa:	0000      	movs	r0, r0
 80003ac:	0000      	movs	r0, r0
 80003ae:	0000      	movs	r0, r0
 80003b0:	0000      	movs	r0, r0
 80003b2:	0000      	movs	r0, r0
 80003b4:	0000      	movs	r0, r0
 80003b6:	0000      	movs	r0, r0
 80003b8:	0000      	movs	r0, r0
 80003ba:	0000      	movs	r0, r0
 80003bc:	0000      	movs	r0, r0
 80003be:	0000      	movs	r0, r0
 80003c0:	0000      	movs	r0, r0
 80003c2:	0000      	movs	r0, r0
 80003c4:	0000      	movs	r0, r0
 80003c6:	0000      	movs	r0, r0
 80003c8:	0000      	movs	r0, r0
 80003ca:	0000      	movs	r0, r0
 80003cc:	0000      	movs	r0, r0
 80003ce:	0000      	movs	r0, r0
 80003d0:	0000      	movs	r0, r0
 80003d2:	0000      	movs	r0, r0
 80003d4:	0000      	movs	r0, r0
 80003d6:	0000      	movs	r0, r0
 80003d8:	0000      	movs	r0, r0
 80003da:	0000      	movs	r0, r0
 80003dc:	0000      	movs	r0, r0
 80003de:	0000      	movs	r0, r0
 80003e0:	0000      	movs	r0, r0
 80003e2:	0000      	movs	r0, r0
 80003e4:	0000      	movs	r0, r0
 80003e6:	0000      	movs	r0, r0
 80003e8:	0000      	movs	r0, r0
 80003ea:	0000      	movs	r0, r0
 80003ec:	0000      	movs	r0, r0
 80003ee:	0000      	movs	r0, r0
 80003f0:	0000      	movs	r0, r0
 80003f2:	0000      	movs	r0, r0
 80003f4:	0000      	movs	r0, r0
 80003f6:	0000      	movs	r0, r0
 80003f8:	0000      	movs	r0, r0
 80003fa:	0000      	movs	r0, r0
 80003fc:	0000      	movs	r0, r0
 80003fe:	0000      	movs	r0, r0

08000400 <KeccakP1600_Permute_RoundConstants24>:
 8000400:	00000001 	.word	0x00000001
 8000404:	00000000 	.word	0x00000000
 8000408:	00000000 	.word	0x00000000
 800040c:	00000089 	.word	0x00000089
 8000410:	00000000 	.word	0x00000000
 8000414:	8000008b 	.word	0x8000008b
 8000418:	00000000 	.word	0x00000000
 800041c:	80008080 	.word	0x80008080
 8000420:	00000001 	.word	0x00000001
 8000424:	0000008b 	.word	0x0000008b
 8000428:	00000001 	.word	0x00000001
 800042c:	00008000 	.word	0x00008000
 8000430:	00000001 	.word	0x00000001
 8000434:	80008088 	.word	0x80008088
 8000438:	00000001 	.word	0x00000001
 800043c:	80000082 	.word	0x80000082
 8000440:	00000000 	.word	0x00000000
 8000444:	0000000b 	.word	0x0000000b
 8000448:	00000000 	.word	0x00000000
 800044c:	0000000a 	.word	0x0000000a
 8000450:	00000001 	.word	0x00000001
 8000454:	00008082 	.word	0x00008082
 8000458:	00000000 	.word	0x00000000
 800045c:	00008003 	.word	0x00008003

08000460 <KeccakP1600_Permute_RoundConstants12>:
 8000460:	00000001 	.word	0x00000001
 8000464:	0000808b 	.word	0x0000808b
 8000468:	00000001 	.word	0x00000001
 800046c:	8000000b 	.word	0x8000000b
 8000470:	00000001 	.word	0x00000001
 8000474:	8000008a 	.word	0x8000008a
 8000478:	00000001 	.word	0x00000001
 800047c:	80000081 	.word	0x80000081
 8000480:	00000000 	.word	0x00000000
 8000484:	80000081 	.word	0x80000081
 8000488:	00000000 	.word	0x00000000
 800048c:	80000008 	.word	0x80000008
 8000490:	00000000 	.word	0x00000000
 8000494:	00000083 	.word	0x00000083
 8000498:	00000000 	.word	0x00000000
 800049c:	80008003 	.word	0x80008003

080004a0 <KeccakP1600_Permute_RoundConstants0>:
 80004a0:	00000001 	.word	0x00000001
 80004a4:	80008088 	.word	0x80008088
 80004a8:	00000000 	.word	0x00000000
 80004ac:	80000088 	.word	0x80000088
 80004b0:	00000001 	.word	0x00000001
 80004b4:	00008000 	.word	0x00008000
 80004b8:	00000000 	.word	0x00000000
 80004bc:	80008082 	.word	0x80008082

080004c0 <KeccakP1600_Permute_RoundConstants0Mod4>:
 80004c0:	000000ff 	.word	0x000000ff
 80004c4:	f3af 8000 	nop.w
 80004c8:	f3af 8000 	nop.w
 80004cc:	f3af 8000 	nop.w
 80004d0:	f3af 8000 	nop.w
 80004d4:	f3af 8000 	nop.w
 80004d8:	f3af 8000 	nop.w
 80004dc:	f3af 8000 	nop.w
 80004e0:	f3af 8000 	nop.w
 80004e4:	f3af 8000 	nop.w
 80004e8:	f3af 8000 	nop.w
 80004ec:	f3af 8000 	nop.w
 80004f0:	f3af 8000 	nop.w
 80004f4:	f3af 8000 	nop.w
 80004f8:	f3af 8000 	nop.w
 80004fc:	f3af 8000 	nop.w

08000500 <KeccakP1600_Permute>:
 8000500:	e92d 5ff0 	stmdb	sp!, {r4, r5, r6, r7, r8, r9, sl, fp, ip, lr}
 8000504:	f8c0 1528 	str.w	r1, [r0, #1320]	; 0x528

08000508 <KeccakP1600_Permute_RoundLoop>:
 8000508:	6a03      	ldr	r3, [r0, #32]
 800050a:	6c81      	ldr	r1, [r0, #72]	; 0x48
 800050c:	6f02      	ldr	r2, [r0, #112]	; 0x70
 800050e:	f8d0 c098 	ldr.w	ip, [r0, #152]	; 0x98
 8000512:	404b      	eors	r3, r1
 8000514:	4053      	eors	r3, r2
 8000516:	ea93 030c 	eors.w	r3, r3, ip
 800051a:	f8d0 10c0 	ldr.w	r1, [r0, #192]	; 0xc0
 800051e:	404b      	eors	r3, r1
 8000520:	68c7      	ldr	r7, [r0, #12]
 8000522:	6b41      	ldr	r1, [r0, #52]	; 0x34
 8000524:	6dc2      	ldr	r2, [r0, #92]	; 0x5c
 8000526:	f8d0 c084 	ldr.w	ip, [r0, #132]	; 0x84
 800052a:	404f      	eors	r7, r1
 800052c:	4057      	eors	r7, r2
 800052e:	ea97 070c 	eors.w	r7, r7, ip
 8000532:	f8d0 10ac 	ldr.w	r1, [r0, #172]	; 0xac
 8000536:	404f      	eors	r7, r1
 8000538:	ea83 76f7 	eor.w	r6, r3, r7, ror #31
 800053c:	f8c0 64b0 	str.w	r6, [r0, #1200]	; 0x4b0
 8000540:	6a46      	ldr	r6, [r0, #36]	; 0x24
 8000542:	6cc1      	ldr	r1, [r0, #76]	; 0x4c
 8000544:	6f42      	ldr	r2, [r0, #116]	; 0x74
 8000546:	f8d0 c09c 	ldr.w	ip, [r0, #156]	; 0x9c
 800054a:	404e      	eors	r6, r1
 800054c:	4056      	eors	r6, r2
 800054e:	ea96 060c 	eors.w	r6, r6, ip
 8000552:	f8d0 10c4 	ldr.w	r1, [r0, #196]	; 0xc4
 8000556:	404e      	eors	r6, r1
 8000558:	f8d0 e008 	ldr.w	lr, [r0, #8]
 800055c:	6b01      	ldr	r1, [r0, #48]	; 0x30
 800055e:	6d82      	ldr	r2, [r0, #88]	; 0x58
 8000560:	f8d0 c080 	ldr.w	ip, [r0, #128]	; 0x80
 8000564:	ea9e 0e01 	eors.w	lr, lr, r1
 8000568:	ea9e 0e02 	eors.w	lr, lr, r2
 800056c:	ea9e 0e0c 	eors.w	lr, lr, ip
 8000570:	f8d0 10a8 	ldr.w	r1, [r0, #168]	; 0xa8
 8000574:	ea9e 0e01 	eors.w	lr, lr, r1
 8000578:	ea96 080e 	eors.w	r8, r6, lr
 800057c:	f8c0 84b4 	str.w	r8, [r0, #1204]	; 0x4b4
 8000580:	6905      	ldr	r5, [r0, #16]
 8000582:	6b81      	ldr	r1, [r0, #56]	; 0x38
 8000584:	6e02      	ldr	r2, [r0, #96]	; 0x60
 8000586:	f8d0 c088 	ldr.w	ip, [r0, #136]	; 0x88
 800058a:	404d      	eors	r5, r1
 800058c:	4055      	eors	r5, r2
 800058e:	ea95 050c 	eors.w	r5, r5, ip
 8000592:	f8d0 10b0 	ldr.w	r1, [r0, #176]	; 0xb0
 8000596:	404d      	eors	r5, r1
 8000598:	ea85 79f6 	eor.w	r9, r5, r6, ror #31
 800059c:	f8c0 94c8 	str.w	r9, [r0, #1224]	; 0x4c8
 80005a0:	6944      	ldr	r4, [r0, #20]
 80005a2:	6bc1      	ldr	r1, [r0, #60]	; 0x3c
 80005a4:	6e42      	ldr	r2, [r0, #100]	; 0x64
 80005a6:	f8d0 c08c 	ldr.w	ip, [r0, #140]	; 0x8c
 80005aa:	404c      	eors	r4, r1
 80005ac:	4054      	eors	r4, r2
 80005ae:	ea94 040c 	eors.w	r4, r4, ip
 80005b2:	f8d0 10b4 	ldr.w	r1, [r0, #180]	; 0xb4
 80005b6:	404c      	eors	r4, r1
 80005b8:	4063      	eors	r3, r4
 80005ba:	f8c0 34cc 	str.w	r3, [r0, #1228]	; 0x4cc
 80005be:	6803      	ldr	r3, [r0, #0]
 80005c0:	6a81      	ldr	r1, [r0, #40]	; 0x28
 80005c2:	6d02      	ldr	r2, [r0, #80]	; 0x50
 80005c4:	f8d0 c078 	ldr.w	ip, [r0, #120]	; 0x78
 80005c8:	404b      	eors	r3, r1
 80005ca:	4053      	eors	r3, r2
 80005cc:	ea93 030c 	eors.w	r3, r3, ip
 80005d0:	f8d0 10a0 	ldr.w	r1, [r0, #160]	; 0xa0
 80005d4:	404b      	eors	r3, r1
 80005d6:	ea83 7af4 	eor.w	sl, r3, r4, ror #31
 80005da:	f8c0 a4b8 	str.w	sl, [r0, #1208]	; 0x4b8
 80005de:	6846      	ldr	r6, [r0, #4]
 80005e0:	6ac1      	ldr	r1, [r0, #44]	; 0x2c
 80005e2:	6d42      	ldr	r2, [r0, #84]	; 0x54
 80005e4:	f8d0 c07c 	ldr.w	ip, [r0, #124]	; 0x7c
 80005e8:	404e      	eors	r6, r1
 80005ea:	4056      	eors	r6, r2
 80005ec:	ea96 060c 	eors.w	r6, r6, ip
 80005f0:	f8d0 10a4 	ldr.w	r1, [r0, #164]	; 0xa4
 80005f4:	404e      	eors	r6, r1
 80005f6:	ea96 0b05 	eors.w	fp, r6, r5
 80005fa:	f8c0 b4bc 	str.w	fp, [r0, #1212]	; 0x4bc
 80005fe:	69c4      	ldr	r4, [r0, #28]
 8000600:	6c41      	ldr	r1, [r0, #68]	; 0x44
 8000602:	6ec2      	ldr	r2, [r0, #108]	; 0x6c
 8000604:	f8d0 c094 	ldr.w	ip, [r0, #148]	; 0x94
 8000608:	404c      	eors	r4, r1
 800060a:	4054      	eors	r4, r2
 800060c:	ea94 040c 	eors.w	r4, r4, ip
 8000610:	f8d0 10bc 	ldr.w	r1, [r0, #188]	; 0xbc
 8000614:	404c      	eors	r4, r1
 8000616:	ea8e 75f4 	eor.w	r5, lr, r4, ror #31
 800061a:	f8c0 54c0 	str.w	r5, [r0, #1216]	; 0x4c0
 800061e:	6985      	ldr	r5, [r0, #24]
 8000620:	6c01      	ldr	r1, [r0, #64]	; 0x40
 8000622:	6e82      	ldr	r2, [r0, #104]	; 0x68
 8000624:	f8d0 c090 	ldr.w	ip, [r0, #144]	; 0x90
 8000628:	404d      	eors	r5, r1
 800062a:	4055      	eors	r5, r2
 800062c:	ea95 050c 	eors.w	r5, r5, ip
 8000630:	f8d0 10b8 	ldr.w	r1, [r0, #184]	; 0xb8
 8000634:	404d      	eors	r5, r1
 8000636:	ea97 0205 	eors.w	r2, r7, r5
 800063a:	f8c0 24c4 	str.w	r2, [r0, #1220]	; 0x4c4
 800063e:	ea85 7cf6 	eor.w	ip, r5, r6, ror #31
 8000642:	f8c0 c4d0 	str.w	ip, [r0, #1232]	; 0x4d0
 8000646:	ea94 0e03 	eors.w	lr, r4, r3
 800064a:	f8c0 e4d4 	str.w	lr, [r0, #1236]	; 0x4d4
 800064e:	f8d0 31b0 	ldr.w	r3, [r0, #432]	; 0x1b0
 8000652:	f8d0 11d8 	ldr.w	r1, [r0, #472]	; 0x1d8
 8000656:	f8d0 2200 	ldr.w	r2, [r0, #512]	; 0x200
 800065a:	f8d0 c228 	ldr.w	ip, [r0, #552]	; 0x228
 800065e:	404b      	eors	r3, r1
 8000660:	4053      	eors	r3, r2
 8000662:	ea93 030c 	eors.w	r3, r3, ip
 8000666:	f8d0 1250 	ldr.w	r1, [r0, #592]	; 0x250
 800066a:	404b      	eors	r3, r1
 800066c:	f8d0 719c 	ldr.w	r7, [r0, #412]	; 0x19c
 8000670:	f8d0 11c4 	ldr.w	r1, [r0, #452]	; 0x1c4
 8000674:	f8d0 21ec 	ldr.w	r2, [r0, #492]	; 0x1ec
 8000678:	f8d0 c214 	ldr.w	ip, [r0, #532]	; 0x214
 800067c:	404f      	eors	r7, r1
 800067e:	4057      	eors	r7, r2
 8000680:	ea97 070c 	eors.w	r7, r7, ip
 8000684:	f8d0 123c 	ldr.w	r1, [r0, #572]	; 0x23c
 8000688:	404f      	eors	r7, r1
 800068a:	ea83 76f7 	eor.w	r6, r3, r7, ror #31
 800068e:	f8c0 6500 	str.w	r6, [r0, #1280]	; 0x500
 8000692:	f8d0 61b4 	ldr.w	r6, [r0, #436]	; 0x1b4
 8000696:	f8d0 11dc 	ldr.w	r1, [r0, #476]	; 0x1dc
 800069a:	f8d0 2204 	ldr.w	r2, [r0, #516]	; 0x204
 800069e:	f8d0 c22c 	ldr.w	ip, [r0, #556]	; 0x22c
 80006a2:	404e      	eors	r6, r1
 80006a4:	4056      	eors	r6, r2
 80006a6:	ea96 060c 	eors.w	r6, r6, ip
 80006aa:	f8d0 1254 	ldr.w	r1, [r0, #596]	; 0x254
 80006ae:	404e      	eors	r6, r1
 80006b0:	f8d0 e198 	ldr.w	lr, [r0, #408]	; 0x198
 80006b4:	f8d0 11c0 	ldr.w	r1, [r0, #448]	; 0x1c0
 80006b8:	f8d0 21e8 	ldr.w	r2, [r0, #488]	; 0x1e8
 80006bc:	f8d0 c210 	ldr.w	ip, [r0, #528]	; 0x210
 80006c0:	ea9e 0e01 	eors.w	lr, lr, r1
 80006c4:	ea9e 0e02 	eors.w	lr, lr, r2
 80006c8:	ea9e 0e0c 	eors.w	lr, lr, ip
 80006cc:	f8d0 1238 	ldr.w	r1, [r0, #568]	; 0x238
 80006d0:	ea9e 0e01 	eors.w	lr, lr, r1
 80006d4:	ea96 080e 	eors.w	r8, r6, lr
 80006d8:	f8c0 8504 	str.w	r8, [r0, #1284]	; 0x504
 80006dc:	f8d0 51a0 	ldr.w	r5, [r0, #416]	; 0x1a0
 80006e0:	f8d0 11c8 	ldr.w	r1, [r0, #456]	; 0x1c8
 80006e4:	f8d0 21f0 	ldr.w	r2, [r0, #496]	; 0x1f0
 80006e8:	f8d0 c218 	ldr.w	ip, [r0, #536]	; 0x218
 80006ec:	404d      	eors	r5, r1
 80006ee:	4055      	eors	r5, r2
 80006f0:	ea95 050c 	eors.w	r5, r5, ip
 80006f4:	f8d0 1240 	ldr.w	r1, [r0, #576]	; 0x240
 80006f8:	404d      	eors	r5, r1
 80006fa:	ea85 79f6 	eor.w	r9, r5, r6, ror #31
 80006fe:	f8c0 9518 	str.w	r9, [r0, #1304]	; 0x518
 8000702:	f8d0 41a4 	ldr.w	r4, [r0, #420]	; 0x1a4
 8000706:	f8d0 11cc 	ldr.w	r1, [r0, #460]	; 0x1cc
 800070a:	f8d0 21f4 	ldr.w	r2, [r0, #500]	; 0x1f4
 800070e:	f8d0 c21c 	ldr.w	ip, [r0, #540]	; 0x21c
 8000712:	404c      	eors	r4, r1
 8000714:	4054      	eors	r4, r2
 8000716:	ea94 040c 	eors.w	r4, r4, ip
 800071a:	f8d0 1244 	ldr.w	r1, [r0, #580]	; 0x244
 800071e:	404c      	eors	r4, r1
 8000720:	4063      	eors	r3, r4
 8000722:	f8c0 351c 	str.w	r3, [r0, #1308]	; 0x51c
 8000726:	f8d0 3190 	ldr.w	r3, [r0, #400]	; 0x190
 800072a:	f8d0 11b8 	ldr.w	r1, [r0, #440]	; 0x1b8
 800072e:	f8d0 21e0 	ldr.w	r2, [r0, #480]	; 0x1e0
 8000732:	f8d0 c208 	ldr.w	ip, [r0, #520]	; 0x208
 8000736:	404b      	eors	r3, r1
 8000738:	4053      	eors	r3, r2
 800073a:	ea93 030c 	eors.w	r3, r3, ip
 800073e:	f8d0 1230 	ldr.w	r1, [r0, #560]	; 0x230
 8000742:	404b      	eors	r3, r1
 8000744:	ea83 7af4 	eor.w	sl, r3, r4, ror #31
 8000748:	f8c0 a508 	str.w	sl, [r0, #1288]	; 0x508
 800074c:	f8d0 6194 	ldr.w	r6, [r0, #404]	; 0x194
 8000750:	f8d0 11bc 	ldr.w	r1, [r0, #444]	; 0x1bc
 8000754:	f8d0 21e4 	ldr.w	r2, [r0, #484]	; 0x1e4
 8000758:	f8d0 c20c 	ldr.w	ip, [r0, #524]	; 0x20c
 800075c:	404e      	eors	r6, r1
 800075e:	4056      	eors	r6, r2
 8000760:	ea96 060c 	eors.w	r6, r6, ip
 8000764:	f8d0 1234 	ldr.w	r1, [r0, #564]	; 0x234
 8000768:	404e      	eors	r6, r1
 800076a:	ea96 0b05 	eors.w	fp, r6, r5
 800076e:	f8c0 b50c 	str.w	fp, [r0, #1292]	; 0x50c
 8000772:	f8d0 41ac 	ldr.w	r4, [r0, #428]	; 0x1ac
 8000776:	f8d0 11d4 	ldr.w	r1, [r0, #468]	; 0x1d4
 800077a:	f8d0 21fc 	ldr.w	r2, [r0, #508]	; 0x1fc
 800077e:	f8d0 c224 	ldr.w	ip, [r0, #548]	; 0x224
 8000782:	404c      	eors	r4, r1
 8000784:	4054      	eors	r4, r2
 8000786:	ea94 040c 	eors.w	r4, r4, ip
 800078a:	f8d0 124c 	ldr.w	r1, [r0, #588]	; 0x24c
 800078e:	404c      	eors	r4, r1
 8000790:	ea8e 75f4 	eor.w	r5, lr, r4, ror #31
 8000794:	f8c0 5510 	str.w	r5, [r0, #1296]	; 0x510
 8000798:	f8d0 51a8 	ldr.w	r5, [r0, #424]	; 0x1a8
 800079c:	f8d0 11d0 	ldr.w	r1, [r0, #464]	; 0x1d0
 80007a0:	f8d0 21f8 	ldr.w	r2, [r0, #504]	; 0x1f8
 80007a4:	f8d0 c220 	ldr.w	ip, [r0, #544]	; 0x220
 80007a8:	404d      	eors	r5, r1
 80007aa:	4055      	eors	r5, r2
 80007ac:	ea95 050c 	eors.w	r5, r5, ip
 80007b0:	f8d0 1248 	ldr.w	r1, [r0, #584]	; 0x248
 80007b4:	404d      	eors	r5, r1
 80007b6:	ea97 0205 	eors.w	r2, r7, r5
 80007ba:	f8c0 2514 	str.w	r2, [r0, #1300]	; 0x514
 80007be:	ea85 7cf6 	eor.w	ip, r5, r6, ror #31
 80007c2:	f8c0 c520 	str.w	ip, [r0, #1312]	; 0x520
 80007c6:	ea94 0e03 	eors.w	lr, r4, r3
 80007ca:	f8c0 e524 	str.w	lr, [r0, #1316]	; 0x524
 80007ce:	f8d0 30e8 	ldr.w	r3, [r0, #232]	; 0xe8
 80007d2:	f8d0 1110 	ldr.w	r1, [r0, #272]	; 0x110
 80007d6:	f8d0 2138 	ldr.w	r2, [r0, #312]	; 0x138
 80007da:	f8d0 c160 	ldr.w	ip, [r0, #352]	; 0x160
 80007de:	404b      	eors	r3, r1
 80007e0:	4053      	eors	r3, r2
 80007e2:	ea93 030c 	eors.w	r3, r3, ip
 80007e6:	f8d0 1188 	ldr.w	r1, [r0, #392]	; 0x188
 80007ea:	404b      	eors	r3, r1
 80007ec:	f8d0 70d4 	ldr.w	r7, [r0, #212]	; 0xd4
 80007f0:	f8d0 10fc 	ldr.w	r1, [r0, #252]	; 0xfc
 80007f4:	f8d0 2124 	ldr.w	r2, [r0, #292]	; 0x124
 80007f8:	f8d0 c14c 	ldr.w	ip, [r0, #332]	; 0x14c
 80007fc:	404f      	eors	r7, r1
 80007fe:	4057      	eors	r7, r2
 8000800:	ea97 070c 	eors.w	r7, r7, ip
 8000804:	f8d0 1174 	ldr.w	r1, [r0, #372]	; 0x174
 8000808:	404f      	eors	r7, r1
 800080a:	ea83 76f7 	eor.w	r6, r3, r7, ror #31
 800080e:	f8c0 64d8 	str.w	r6, [r0, #1240]	; 0x4d8
 8000812:	f8d0 60ec 	ldr.w	r6, [r0, #236]	; 0xec
 8000816:	f8d0 1114 	ldr.w	r1, [r0, #276]	; 0x114
 800081a:	f8d0 213c 	ldr.w	r2, [r0, #316]	; 0x13c
 800081e:	f8d0 c164 	ldr.w	ip, [r0, #356]	; 0x164
 8000822:	404e      	eors	r6, r1
 8000824:	4056      	eors	r6, r2
 8000826:	ea96 060c 	eors.w	r6, r6, ip
 800082a:	f8d0 118c 	ldr.w	r1, [r0, #396]	; 0x18c
 800082e:	404e      	eors	r6, r1
 8000830:	f8d0 e0d0 	ldr.w	lr, [r0, #208]	; 0xd0
 8000834:	f8d0 10f8 	ldr.w	r1, [r0, #248]	; 0xf8
 8000838:	f8d0 2120 	ldr.w	r2, [r0, #288]	; 0x120
 800083c:	f8d0 c148 	ldr.w	ip, [r0, #328]	; 0x148
 8000840:	ea9e 0e01 	eors.w	lr, lr, r1
 8000844:	ea9e 0e02 	eors.w	lr, lr, r2
 8000848:	ea9e 0e0c 	eors.w	lr, lr, ip
 800084c:	f8d0 1170 	ldr.w	r1, [r0, #368]	; 0x170
 8000850:	ea9e 0e01 	eors.w	lr, lr, r1
 8000854:	ea96 080e 	eors.w	r8, r6, lr
 8000858:	f8c0 84dc 	str.w	r8, [r0, #1244]	; 0x4dc
 800085c:	f8d0 50d8 	ldr.w	r5, [r0, #216]	; 0xd8
 8000860:	f8d0 1100 	ldr.w	r1, [r0, #256]	; 0x100
 8000864:	f8d0 2128 	ldr.w	r2, [r0, #296]	; 0x128
 8000868:	f8d0 c150 	ldr.w	ip, [r0, #336]	; 0x150
 800086c:	404d      	eors	r5, r1
 800086e:	4055      	eors	r5, r2
 8000870:	ea95 050c 	eors.w	r5, r5, ip
 8000874:	f8d0 1178 	ldr.w	r1, [r0, #376]	; 0x178
 8000878:	404d      	eors	r5, r1
 800087a:	ea85 79f6 	eor.w	r9, r5, r6, ror #31
 800087e:	f8c0 94f0 	str.w	r9, [r0, #1264]	; 0x4f0
 8000882:	f8d0 40dc 	ldr.w	r4, [r0, #220]	; 0xdc
 8000886:	f8d0 1104 	ldr.w	r1, [r0, #260]	; 0x104
 800088a:	f8d0 212c 	ldr.w	r2, [r0, #300]	; 0x12c
 800088e:	f8d0 c154 	ldr.w	ip, [r0, #340]	; 0x154
 8000892:	404c      	eors	r4, r1
 8000894:	4054      	eors	r4, r2
 8000896:	ea94 040c 	eors.w	r4, r4, ip
 800089a:	f8d0 117c 	ldr.w	r1, [r0, #380]	; 0x17c
 800089e:	404c      	eors	r4, r1
 80008a0:	4063      	eors	r3, r4
 80008a2:	f8c0 34f4 	str.w	r3, [r0, #1268]	; 0x4f4
 80008a6:	f8d0 30c8 	ldr.w	r3, [r0, #200]	; 0xc8
 80008aa:	f8d0 10f0 	ldr.w	r1, [r0, #240]	; 0xf0
 80008ae:	f8d0 2118 	ldr.w	r2, [r0, #280]	; 0x118
 80008b2:	f8d0 c140 	ldr.w	ip, [r0, #320]	; 0x140
 80008b6:	404b      	eors	r3, r1
 80008b8:	4053      	eors	r3, r2
 80008ba:	ea93 030c 	eors.w	r3, r3, ip
 80008be:	f8d0 1168 	ldr.w	r1, [r0, #360]	; 0x168
 80008c2:	404b      	eors	r3, r1
 80008c4:	ea83 7af4 	eor.w	sl, r3, r4, ror #31
 80008c8:	f8c0 a4e0 	str.w	sl, [r0, #1248]	; 0x4e0
 80008cc:	f8d0 60cc 	ldr.w	r6, [r0, #204]	; 0xcc
 80008d0:	f8d0 10f4 	ldr.w	r1, [r0, #244]	; 0xf4
 80008d4:	f8d0 211c 	ldr.w	r2, [r0, #284]	; 0x11c
 80008d8:	f8d0 c144 	ldr.w	ip, [r0, #324]	; 0x144
 80008dc:	404e      	eors	r6, r1
 80008de:	4056      	eors	r6, r2
 80008e0:	ea96 060c 	eors.w	r6, r6, ip
 80008e4:	f8d0 116c 	ldr.w	r1, [r0, #364]	; 0x16c
 80008e8:	404e      	eors	r6, r1
 80008ea:	ea96 0b05 	eors.w	fp, r6, r5
 80008ee:	f8c0 b4e4 	str.w	fp, [r0, #1252]	; 0x4e4
 80008f2:	f8d0 40e4 	ldr.w	r4, [r0, #228]	; 0xe4
 80008f6:	f8d0 110c 	ldr.w	r1, [r0, #268]	; 0x10c
 80008fa:	f8d0 2134 	ldr.w	r2, [r0, #308]	; 0x134
 80008fe:	f8d0 c15c 	ldr.w	ip, [r0, #348]	; 0x15c
 8000902:	404c      	eors	r4, r1
 8000904:	4054      	eors	r4, r2
 8000906:	ea94 040c 	eors.w	r4, r4, ip
 800090a:	f8d0 1184 	ldr.w	r1, [r0, #388]	; 0x184
 800090e:	404c      	eors	r4, r1
 8000910:	ea8e 75f4 	eor.w	r5, lr, r4, ror #31
 8000914:	f8c0 54e8 	str.w	r5, [r0, #1256]	; 0x4e8
 8000918:	f8d0 50e0 	ldr.w	r5, [r0, #224]	; 0xe0
 800091c:	f8d0 1108 	ldr.w	r1, [r0, #264]	; 0x108
 8000920:	f8d0 2130 	ldr.w	r2, [r0, #304]	; 0x130
 8000924:	f8d0 c158 	ldr.w	ip, [r0, #344]	; 0x158
 8000928:	404d      	eors	r5, r1
 800092a:	4055      	eors	r5, r2
 800092c:	ea95 050c 	eors.w	r5, r5, ip
 8000930:	f8d0 1180 	ldr.w	r1, [r0, #384]	; 0x180
 8000934:	404d      	eors	r5, r1
 8000936:	ea97 0205 	eors.w	r2, r7, r5
 800093a:	f8c0 24ec 	str.w	r2, [r0, #1260]	; 0x4ec
 800093e:	ea85 7cf6 	eor.w	ip, r5, r6, ror #31
 8000942:	f8c0 c4f8 	str.w	ip, [r0, #1272]	; 0x4f8
 8000946:	ea94 0e03 	eors.w	lr, r4, r3
 800094a:	f8c0 e4fc 	str.w	lr, [r0, #1276]	; 0x4fc
 800094e:	e92d 5f04 	stmdb	sp!, {r2, r8, r9, sl, fp, ip, lr}
 8000952:	f8d0 511c 	ldr.w	r5, [r0, #284]	; 0x11c
 8000956:	f8d0 614c 	ldr.w	r6, [r0, #332]	; 0x14c
 800095a:	f8d0 717c 	ldr.w	r7, [r0, #380]	; 0x17c
 800095e:	f8d0 30e0 	ldr.w	r3, [r0, #224]	; 0xe0
 8000962:	f8d0 4110 	ldr.w	r4, [r0, #272]	; 0x110
 8000966:	ea95 0508 	eors.w	r5, r5, r8
 800096a:	ea96 060b 	eors.w	r6, r6, fp
 800096e:	4057      	eors	r7, r2
 8000970:	ea93 0309 	eors.w	r3, r3, r9
 8000974:	ea94 040c 	eors.w	r4, r4, ip
 8000978:	ea5f 75b5 	movs.w	r5, r5, ror #30
 800097c:	ea5f 2676 	movs.w	r6, r6, ror #9
 8000980:	ea5f 0777 	movs.w	r7, r7, ror #1
 8000984:	ea5f 43b3 	movs.w	r3, r3, ror #18
 8000988:	ea5f 54b4 	movs.w	r4, r4, ror #22
 800098c:	f8c0 511c 	str.w	r5, [r0, #284]	; 0x11c
 8000990:	f8c0 614c 	str.w	r6, [r0, #332]	; 0x14c
 8000994:	f8c0 717c 	str.w	r7, [r0, #380]	; 0x17c
 8000998:	f8c0 30e0 	str.w	r3, [r0, #224]	; 0xe0
 800099c:	f8c0 4110 	str.w	r4, [r0, #272]	; 0x110
 80009a0:	f8d0 a1e4 	ldr.w	sl, [r0, #484]	; 0x1e4
 80009a4:	f8d0 1504 	ldr.w	r1, [r0, #1284]	; 0x504
 80009a8:	f8d0 b214 	ldr.w	fp, [r0, #532]	; 0x214
 80009ac:	f8d0 250c 	ldr.w	r2, [r0, #1292]	; 0x50c
 80009b0:	f8d0 c244 	ldr.w	ip, [r0, #580]	; 0x244
 80009b4:	f8d0 e514 	ldr.w	lr, [r0, #1300]	; 0x514
 80009b8:	ea9a 0a01 	eors.w	sl, sl, r1
 80009bc:	ea9b 0b02 	eors.w	fp, fp, r2
 80009c0:	ea9c 0c0e 	eors.w	ip, ip, lr
 80009c4:	f8d0 81a8 	ldr.w	r8, [r0, #424]	; 0x1a8
 80009c8:	f8d0 1518 	ldr.w	r1, [r0, #1304]	; 0x518
 80009cc:	f8d0 91d8 	ldr.w	r9, [r0, #472]	; 0x1d8
 80009d0:	f8d0 e520 	ldr.w	lr, [r0, #1312]	; 0x520
 80009d4:	ea98 0801 	eors.w	r8, r8, r1
 80009d8:	ea99 090e 	eors.w	r9, r9, lr
 80009dc:	ea5f 7aba 	movs.w	sl, sl, ror #30
 80009e0:	ea5f 2b7b 	movs.w	fp, fp, ror #9
 80009e4:	ea5f 0c7c 	movs.w	ip, ip, ror #1
 80009e8:	ea5f 48b8 	movs.w	r8, r8, ror #18
 80009ec:	ea5f 59b9 	movs.w	r9, r9, ror #22
 80009f0:	ea93 0105 	eors.w	r1, r3, r5
 80009f4:	ea04 0205 	and.w	r2, r4, r5
 80009f8:	4051      	eors	r1, r2
 80009fa:	ea04 020a 	and.w	r2, r4, sl
 80009fe:	4051      	eors	r1, r2
 8000a00:	ea09 0205 	and.w	r2, r9, r5
 8000a04:	4051      	eors	r1, r2
 8000a06:	f8c0 12ac 	str.w	r1, [r0, #684]	; 0x2ac
 8000a0a:	ea94 0106 	eors.w	r1, r4, r6
 8000a0e:	ea05 0206 	and.w	r2, r5, r6
 8000a12:	4051      	eors	r1, r2
 8000a14:	ea05 020b 	and.w	r2, r5, fp
 8000a18:	4051      	eors	r1, r2
 8000a1a:	ea0a 0206 	and.w	r2, sl, r6
 8000a1e:	4051      	eors	r1, r2
 8000a20:	f8c0 12dc 	str.w	r1, [r0, #732]	; 0x2dc
 8000a24:	ea95 0107 	eors.w	r1, r5, r7
 8000a28:	ea06 0207 	and.w	r2, r6, r7
 8000a2c:	4051      	eors	r1, r2
 8000a2e:	ea06 020c 	and.w	r2, r6, ip
 8000a32:	4051      	eors	r1, r2
 8000a34:	ea0b 0207 	and.w	r2, fp, r7
 8000a38:	4051      	eors	r1, r2
 8000a3a:	f8c0 130c 	str.w	r1, [r0, #780]	; 0x30c
 8000a3e:	ea96 0103 	eors.w	r1, r6, r3
 8000a42:	ea07 0203 	and.w	r2, r7, r3
 8000a46:	4051      	eors	r1, r2
 8000a48:	ea07 0208 	and.w	r2, r7, r8
 8000a4c:	4051      	eors	r1, r2
 8000a4e:	ea0c 0203 	and.w	r2, ip, r3
 8000a52:	4051      	eors	r1, r2
 8000a54:	f8c0 1270 	str.w	r1, [r0, #624]	; 0x270
 8000a58:	ea97 0104 	eors.w	r1, r7, r4
 8000a5c:	ea03 0204 	and.w	r2, r3, r4
 8000a60:	4051      	eors	r1, r2
 8000a62:	ea03 0209 	and.w	r2, r3, r9
 8000a66:	4051      	eors	r1, r2
 8000a68:	ea08 0204 	and.w	r2, r8, r4
 8000a6c:	4051      	eors	r1, r2
 8000a6e:	f8c0 12a0 	str.w	r1, [r0, #672]	; 0x2a0
 8000a72:	6d45      	ldr	r5, [r0, #84]	; 0x54
 8000a74:	f8d0 14b4 	ldr.w	r1, [r0, #1204]	; 0x4b4
 8000a78:	f8d0 6084 	ldr.w	r6, [r0, #132]	; 0x84
 8000a7c:	f8d0 24bc 	ldr.w	r2, [r0, #1212]	; 0x4bc
 8000a80:	f8d0 70b4 	ldr.w	r7, [r0, #180]	; 0xb4
 8000a84:	f8d0 e4c4 	ldr.w	lr, [r0, #1220]	; 0x4c4
 8000a88:	404d      	eors	r5, r1
 8000a8a:	4056      	eors	r6, r2
 8000a8c:	ea97 070e 	eors.w	r7, r7, lr
 8000a90:	6983      	ldr	r3, [r0, #24]
 8000a92:	f8d0 14c8 	ldr.w	r1, [r0, #1224]	; 0x4c8
 8000a96:	6c84      	ldr	r4, [r0, #72]	; 0x48
 8000a98:	f8d0 e4d0 	ldr.w	lr, [r0, #1232]	; 0x4d0
 8000a9c:	404b      	eors	r3, r1
 8000a9e:	ea94 040e 	eors.w	r4, r4, lr
 8000aa2:	ea5f 75b5 	movs.w	r5, r5, ror #30
 8000aa6:	ea5f 2676 	movs.w	r6, r6, ror #9
 8000aaa:	ea5f 0777 	movs.w	r7, r7, ror #1
 8000aae:	ea5f 43b3 	movs.w	r3, r3, ror #18
 8000ab2:	ea5f 54b4 	movs.w	r4, r4, ror #22
 8000ab6:	ea98 010a 	eors.w	r1, r8, sl
 8000aba:	ea09 020a 	and.w	r2, r9, sl
 8000abe:	4051      	eors	r1, r2
 8000ac0:	ea09 0205 	and.w	r2, r9, r5
 8000ac4:	4051      	eors	r1, r2
 8000ac6:	ea04 020a 	and.w	r2, r4, sl
 8000aca:	4051      	eors	r1, r2
 8000acc:	f8c0 1374 	str.w	r1, [r0, #884]	; 0x374
 8000ad0:	ea99 010b 	eors.w	r1, r9, fp
 8000ad4:	ea0a 020b 	and.w	r2, sl, fp
 8000ad8:	4051      	eors	r1, r2
 8000ada:	ea0a 0206 	and.w	r2, sl, r6
 8000ade:	4051      	eors	r1, r2
 8000ae0:	ea05 020b 	and.w	r2, r5, fp
 8000ae4:	4051      	eors	r1, r2
 8000ae6:	f8c0 13a4 	str.w	r1, [r0, #932]	; 0x3a4
 8000aea:	ea9a 010c 	eors.w	r1, sl, ip
 8000aee:	ea0b 020c 	and.w	r2, fp, ip
 8000af2:	4051      	eors	r1, r2
 8000af4:	ea0b 0207 	and.w	r2, fp, r7
 8000af8:	4051      	eors	r1, r2
 8000afa:	ea06 020c 	and.w	r2, r6, ip
 8000afe:	4051      	eors	r1, r2
 8000b00:	f8c0 13d4 	str.w	r1, [r0, #980]	; 0x3d4
 8000b04:	ea9b 0108 	eors.w	r1, fp, r8
 8000b08:	ea0c 0208 	and.w	r2, ip, r8
 8000b0c:	4051      	eors	r1, r2
 8000b0e:	ea0c 0203 	and.w	r2, ip, r3
 8000b12:	4051      	eors	r1, r2
 8000b14:	ea07 0208 	and.w	r2, r7, r8
 8000b18:	4051      	eors	r1, r2
 8000b1a:	f8c0 1338 	str.w	r1, [r0, #824]	; 0x338
 8000b1e:	ea9c 0109 	eors.w	r1, ip, r9
 8000b22:	ea08 0209 	and.w	r2, r8, r9
 8000b26:	4051      	eors	r1, r2
 8000b28:	ea08 0204 	and.w	r2, r8, r4
 8000b2c:	4051      	eors	r1, r2
 8000b2e:	ea03 0209 	and.w	r2, r3, r9
 8000b32:	4051      	eors	r1, r2
 8000b34:	f8c0 1368 	str.w	r1, [r0, #872]	; 0x368
 8000b38:	f8d0 a11c 	ldr.w	sl, [r0, #284]	; 0x11c
 8000b3c:	f8d0 b14c 	ldr.w	fp, [r0, #332]	; 0x14c
 8000b40:	f8d0 c17c 	ldr.w	ip, [r0, #380]	; 0x17c
 8000b44:	f8d0 80e0 	ldr.w	r8, [r0, #224]	; 0xe0
 8000b48:	f8d0 9110 	ldr.w	r9, [r0, #272]	; 0x110
 8000b4c:	ea93 0105 	eors.w	r1, r3, r5
 8000b50:	ea04 0205 	and.w	r2, r4, r5
 8000b54:	4051      	eors	r1, r2
 8000b56:	ea04 020a 	and.w	r2, r4, sl
 8000b5a:	4051      	eors	r1, r2
 8000b5c:	ea09 0205 	and.w	r2, r9, r5
 8000b60:	4051      	eors	r1, r2
 8000b62:	f8c0 143c 	str.w	r1, [r0, #1084]	; 0x43c
 8000b66:	ea94 0106 	eors.w	r1, r4, r6
 8000b6a:	ea05 0206 	and.w	r2, r5, r6
 8000b6e:	4051      	eors	r1, r2
 8000b70:	ea05 020b 	and.w	r2, r5, fp
 8000b74:	4051      	eors	r1, r2
 8000b76:	ea0a 0206 	and.w	r2, sl, r6
 8000b7a:	4051      	eors	r1, r2
 8000b7c:	f8c0 146c 	str.w	r1, [r0, #1132]	; 0x46c
 8000b80:	ea95 0107 	eors.w	r1, r5, r7
 8000b84:	ea06 0207 	and.w	r2, r6, r7
 8000b88:	4051      	eors	r1, r2
 8000b8a:	ea06 020c 	and.w	r2, r6, ip
 8000b8e:	4051      	eors	r1, r2
 8000b90:	ea0b 0207 	and.w	r2, fp, r7
 8000b94:	4051      	eors	r1, r2
 8000b96:	f8c0 149c 	str.w	r1, [r0, #1180]	; 0x49c
 8000b9a:	ea96 0103 	eors.w	r1, r6, r3
 8000b9e:	ea07 0203 	and.w	r2, r7, r3
 8000ba2:	4051      	eors	r1, r2
 8000ba4:	ea07 0208 	and.w	r2, r7, r8
 8000ba8:	4051      	eors	r1, r2
 8000baa:	ea0c 0203 	and.w	r2, ip, r3
 8000bae:	4051      	eors	r1, r2
 8000bb0:	f8c0 1400 	str.w	r1, [r0, #1024]	; 0x400
 8000bb4:	ea97 0104 	eors.w	r1, r7, r4
 8000bb8:	ea03 0204 	and.w	r2, r3, r4
 8000bbc:	4051      	eors	r1, r2
 8000bbe:	ea03 0209 	and.w	r2, r3, r9
 8000bc2:	4051      	eors	r1, r2
 8000bc4:	ea08 0204 	and.w	r2, r8, r4
 8000bc8:	4051      	eors	r1, r2
 8000bca:	f8c0 1430 	str.w	r1, [r0, #1072]	; 0x430
 8000bce:	e8bd 5f04 	ldmia.w	sp!, {r2, r8, r9, sl, fp, ip, lr}
 8000bd2:	e92d 5f04 	stmdb	sp!, {r2, r8, r9, sl, fp, ip, lr}
 8000bd6:	f8d0 716c 	ldr.w	r7, [r0, #364]	; 0x16c
 8000bda:	f8d0 30d0 	ldr.w	r3, [r0, #208]	; 0xd0
 8000bde:	f8d0 4104 	ldr.w	r4, [r0, #260]	; 0x104
 8000be2:	f8d0 5130 	ldr.w	r5, [r0, #304]	; 0x130
 8000be6:	f8d0 6164 	ldr.w	r6, [r0, #356]	; 0x164
 8000bea:	ea97 0708 	eors.w	r7, r7, r8
 8000bee:	ea93 030a 	eors.w	r3, r3, sl
 8000bf2:	4054      	eors	r4, r2
 8000bf4:	ea95 0509 	eors.w	r5, r5, r9
 8000bf8:	ea96 060e 	eors.w	r6, r6, lr
 8000bfc:	ea5f 57f7 	movs.w	r7, r7, ror #23
 8000c00:	ea5f 7474 	movs.w	r4, r4, ror #29
 8000c04:	ea5f 5535 	movs.w	r5, r5, ror #20
 8000c08:	ea5f 7636 	movs.w	r6, r6, ror #28
 8000c0c:	f8c0 716c 	str.w	r7, [r0, #364]	; 0x16c
 8000c10:	f8c0 30d0 	str.w	r3, [r0, #208]	; 0xd0
 8000c14:	f8c0 4104 	str.w	r4, [r0, #260]	; 0x104
 8000c18:	f8c0 5130 	str.w	r5, [r0, #304]	; 0x130
 8000c1c:	f8c0 6164 	str.w	r6, [r0, #356]	; 0x164
 8000c20:	f8d0 c234 	ldr.w	ip, [r0, #564]	; 0x234
 8000c24:	f8d0 1504 	ldr.w	r1, [r0, #1284]	; 0x504
 8000c28:	f8d0 8198 	ldr.w	r8, [r0, #408]	; 0x198
 8000c2c:	f8d0 2508 	ldr.w	r2, [r0, #1288]	; 0x508
 8000c30:	f8d0 91cc 	ldr.w	r9, [r0, #460]	; 0x1cc
 8000c34:	f8d0 e514 	ldr.w	lr, [r0, #1300]	; 0x514
 8000c38:	ea9c 0c01 	eors.w	ip, ip, r1
 8000c3c:	ea98 0802 	eors.w	r8, r8, r2
 8000c40:	ea99 090e 	eors.w	r9, r9, lr
 8000c44:	f8d0 a1f8 	ldr.w	sl, [r0, #504]	; 0x1f8
 8000c48:	f8d0 1518 	ldr.w	r1, [r0, #1304]	; 0x518
 8000c4c:	f8d0 b22c 	ldr.w	fp, [r0, #556]	; 0x22c
 8000c50:	f8d0 e524 	ldr.w	lr, [r0, #1316]	; 0x524
 8000c54:	ea9a 0a01 	eors.w	sl, sl, r1
 8000c58:	ea9b 0b0e 	eors.w	fp, fp, lr
 8000c5c:	ea5f 5cfc 	movs.w	ip, ip, ror #23
 8000c60:	ea5f 7979 	movs.w	r9, r9, ror #29
 8000c64:	ea5f 5a3a 	movs.w	sl, sl, ror #20
 8000c68:	ea5f 7b3b 	movs.w	fp, fp, ror #28
 8000c6c:	ea93 0105 	eors.w	r1, r3, r5
 8000c70:	ea04 0205 	and.w	r2, r4, r5
 8000c74:	4051      	eors	r1, r2
 8000c76:	ea04 020a 	and.w	r2, r4, sl
 8000c7a:	4051      	eors	r1, r2
 8000c7c:	ea09 0205 	and.w	r2, r9, r5
 8000c80:	4051      	eors	r1, r2
 8000c82:	f8c0 12fc 	str.w	r1, [r0, #764]	; 0x2fc
 8000c86:	ea94 0106 	eors.w	r1, r4, r6
 8000c8a:	ea05 0206 	and.w	r2, r5, r6
 8000c8e:	4051      	eors	r1, r2
 8000c90:	ea05 020b 	and.w	r2, r5, fp
 8000c94:	4051      	eors	r1, r2
 8000c96:	ea0a 0206 	and.w	r2, sl, r6
 8000c9a:	4051      	eors	r1, r2
 8000c9c:	f8c0 1260 	str.w	r1, [r0, #608]	; 0x260
 8000ca0:	ea95 0107 	eors.w	r1, r5, r7
 8000ca4:	ea06 0207 	and.w	r2, r6, r7
 8000ca8:	4051      	eors	r1, r2
 8000caa:	ea06 020c 	and.w	r2, r6, ip
 8000cae:	4051      	eors	r1, r2
 8000cb0:	ea0b 0207 	and.w	r2, fp, r7
 8000cb4:	4051      	eors	r1, r2
 8000cb6:	f8c0 1294 	str.w	r1, [r0, #660]	; 0x294
 8000cba:	ea96 0103 	eors.w	r1, r6, r3
 8000cbe:	ea07 0203 	and.w	r2, r7, r3
 8000cc2:	4051      	eors	r1, r2
 8000cc4:	ea07 0208 	and.w	r2, r7, r8
 8000cc8:	4051      	eors	r1, r2
 8000cca:	ea0c 0203 	and.w	r2, ip, r3
 8000cce:	4051      	eors	r1, r2
 8000cd0:	f8c0 12c0 	str.w	r1, [r0, #704]	; 0x2c0
 8000cd4:	ea97 0104 	eors.w	r1, r7, r4
 8000cd8:	ea03 0204 	and.w	r2, r3, r4
 8000cdc:	4051      	eors	r1, r2
 8000cde:	ea03 0209 	and.w	r2, r3, r9
 8000ce2:	4051      	eors	r1, r2
 8000ce4:	ea08 0204 	and.w	r2, r8, r4
 8000ce8:	4051      	eors	r1, r2
 8000cea:	f8c0 12f4 	str.w	r1, [r0, #756]	; 0x2f4
 8000cee:	f8d0 70a4 	ldr.w	r7, [r0, #164]	; 0xa4
 8000cf2:	f8d0 14b4 	ldr.w	r1, [r0, #1204]	; 0x4b4
 8000cf6:	6883      	ldr	r3, [r0, #8]
 8000cf8:	f8d0 24b8 	ldr.w	r2, [r0, #1208]	; 0x4b8
 8000cfc:	6bc4      	ldr	r4, [r0, #60]	; 0x3c
 8000cfe:	f8d0 e4c4 	ldr.w	lr, [r0, #1220]	; 0x4c4
 8000d02:	404f      	eors	r7, r1
 8000d04:	4053      	eors	r3, r2
 8000d06:	ea94 040e 	eors.w	r4, r4, lr
 8000d0a:	6e85      	ldr	r5, [r0, #104]	; 0x68
 8000d0c:	f8d0 14c8 	ldr.w	r1, [r0, #1224]	; 0x4c8
 8000d10:	f8d0 609c 	ldr.w	r6, [r0, #156]	; 0x9c
 8000d14:	f8d0 e4d4 	ldr.w	lr, [r0, #1236]	; 0x4d4
 8000d18:	404d      	eors	r5, r1
 8000d1a:	ea96 060e 	eors.w	r6, r6, lr
 8000d1e:	ea5f 57f7 	movs.w	r7, r7, ror #23
 8000d22:	ea5f 7474 	movs.w	r4, r4, ror #29
 8000d26:	ea5f 5535 	movs.w	r5, r5, ror #20
 8000d2a:	ea5f 7636 	movs.w	r6, r6, ror #28
 8000d2e:	ea98 010a 	eors.w	r1, r8, sl
 8000d32:	ea09 020a 	and.w	r2, r9, sl
 8000d36:	4051      	eors	r1, r2
 8000d38:	ea09 0205 	and.w	r2, r9, r5
 8000d3c:	4051      	eors	r1, r2
 8000d3e:	ea04 020a 	and.w	r2, r4, sl
 8000d42:	4051      	eors	r1, r2
 8000d44:	f8c0 13c4 	str.w	r1, [r0, #964]	; 0x3c4
 8000d48:	ea99 010b 	eors.w	r1, r9, fp
 8000d4c:	ea0a 020b 	and.w	r2, sl, fp
 8000d50:	4051      	eors	r1, r2
 8000d52:	ea0a 0206 	and.w	r2, sl, r6
 8000d56:	4051      	eors	r1, r2
 8000d58:	ea05 020b 	and.w	r2, r5, fp
 8000d5c:	4051      	eors	r1, r2
 8000d5e:	f8c0 1328 	str.w	r1, [r0, #808]	; 0x328
 8000d62:	ea9a 010c 	eors.w	r1, sl, ip
 8000d66:	ea0b 020c 	and.w	r2, fp, ip
 8000d6a:	4051      	eors	r1, r2
 8000d6c:	ea0b 0207 	and.w	r2, fp, r7
 8000d70:	4051      	eors	r1, r2
 8000d72:	ea06 020c 	and.w	r2, r6, ip
 8000d76:	4051      	eors	r1, r2
 8000d78:	f8c0 135c 	str.w	r1, [r0, #860]	; 0x35c
 8000d7c:	ea9b 0108 	eors.w	r1, fp, r8
 8000d80:	ea0c 0208 	and.w	r2, ip, r8
 8000d84:	4051      	eors	r1, r2
 8000d86:	ea0c 0203 	and.w	r2, ip, r3
 8000d8a:	4051      	eors	r1, r2
 8000d8c:	ea07 0208 	and.w	r2, r7, r8
 8000d90:	4051      	eors	r1, r2
 8000d92:	f8c0 1388 	str.w	r1, [r0, #904]	; 0x388
 8000d96:	ea9c 0109 	eors.w	r1, ip, r9
 8000d9a:	ea08 0209 	and.w	r2, r8, r9
 8000d9e:	4051      	eors	r1, r2
 8000da0:	ea08 0204 	and.w	r2, r8, r4
 8000da4:	4051      	eors	r1, r2
 8000da6:	ea03 0209 	and.w	r2, r3, r9
 8000daa:	4051      	eors	r1, r2
 8000dac:	f8c0 13bc 	str.w	r1, [r0, #956]	; 0x3bc
 8000db0:	f8d0 c16c 	ldr.w	ip, [r0, #364]	; 0x16c
 8000db4:	f8d0 80d0 	ldr.w	r8, [r0, #208]	; 0xd0
 8000db8:	f8d0 9104 	ldr.w	r9, [r0, #260]	; 0x104
 8000dbc:	f8d0 a130 	ldr.w	sl, [r0, #304]	; 0x130
 8000dc0:	f8d0 b164 	ldr.w	fp, [r0, #356]	; 0x164
 8000dc4:	ea93 0105 	eors.w	r1, r3, r5
 8000dc8:	ea04 0205 	and.w	r2, r4, r5
 8000dcc:	4051      	eors	r1, r2
 8000dce:	ea04 020a 	and.w	r2, r4, sl
 8000dd2:	4051      	eors	r1, r2
 8000dd4:	ea09 0205 	and.w	r2, r9, r5
 8000dd8:	4051      	eors	r1, r2
 8000dda:	f8c0 148c 	str.w	r1, [r0, #1164]	; 0x48c
 8000dde:	ea94 0106 	eors.w	r1, r4, r6
 8000de2:	ea05 0206 	and.w	r2, r5, r6
 8000de6:	4051      	eors	r1, r2
 8000de8:	ea05 020b 	and.w	r2, r5, fp
 8000dec:	4051      	eors	r1, r2
 8000dee:	ea0a 0206 	and.w	r2, sl, r6
 8000df2:	4051      	eors	r1, r2
 8000df4:	f8c0 13f0 	str.w	r1, [r0, #1008]	; 0x3f0
 8000df8:	ea95 0107 	eors.w	r1, r5, r7
 8000dfc:	ea06 0207 	and.w	r2, r6, r7
 8000e00:	4051      	eors	r1, r2
 8000e02:	ea06 020c 	and.w	r2, r6, ip
 8000e06:	4051      	eors	r1, r2
 8000e08:	ea0b 0207 	and.w	r2, fp, r7
 8000e0c:	4051      	eors	r1, r2
 8000e0e:	f8c0 1424 	str.w	r1, [r0, #1060]	; 0x424
 8000e12:	ea96 0103 	eors.w	r1, r6, r3
 8000e16:	ea07 0203 	and.w	r2, r7, r3
 8000e1a:	4051      	eors	r1, r2
 8000e1c:	ea07 0208 	and.w	r2, r7, r8
 8000e20:	4051      	eors	r1, r2
 8000e22:	ea0c 0203 	and.w	r2, ip, r3
 8000e26:	4051      	eors	r1, r2
 8000e28:	f8c0 1450 	str.w	r1, [r0, #1104]	; 0x450
 8000e2c:	ea97 0104 	eors.w	r1, r7, r4
 8000e30:	ea03 0204 	and.w	r2, r3, r4
 8000e34:	4051      	eors	r1, r2
 8000e36:	ea03 0209 	and.w	r2, r3, r9
 8000e3a:	4051      	eors	r1, r2
 8000e3c:	ea08 0204 	and.w	r2, r8, r4
 8000e40:	4051      	eors	r1, r2
 8000e42:	f8c0 1484 	str.w	r1, [r0, #1156]	; 0x484
 8000e46:	e8bd 5f04 	ldmia.w	sp!, {r2, r8, r9, sl, fp, ip, lr}
 8000e4a:	f8d0 84d8 	ldr.w	r8, [r0, #1240]	; 0x4d8
 8000e4e:	e92d 5f04 	stmdb	sp!, {r2, r8, r9, sl, fp, ip, lr}
 8000e52:	f8d0 40f0 	ldr.w	r4, [r0, #240]	; 0xf0
 8000e56:	f8d0 5120 	ldr.w	r5, [r0, #288]	; 0x120
 8000e5a:	f8d0 6154 	ldr.w	r6, [r0, #340]	; 0x154
 8000e5e:	f8d0 7180 	ldr.w	r7, [r0, #384]	; 0x180
 8000e62:	f8d0 30ec 	ldr.w	r3, [r0, #236]	; 0xec
 8000e66:	ea94 0408 	eors.w	r4, r4, r8
 8000e6a:	ea95 050a 	eors.w	r5, r5, sl
 8000e6e:	4056      	eors	r6, r2
 8000e70:	ea97 0709 	eors.w	r7, r7, r9
 8000e74:	ea93 030e 	eors.w	r3, r3, lr
 8000e78:	ea5f 34b4 	movs.w	r4, r4, ror #14
 8000e7c:	ea5f 65f5 	movs.w	r5, r5, ror #27
 8000e80:	ea5f 6636 	movs.w	r6, r6, ror #24
 8000e84:	ea5f 1737 	movs.w	r7, r7, ror #4
 8000e88:	ea5f 43b3 	movs.w	r3, r3, ror #18
 8000e8c:	f8c0 40f0 	str.w	r4, [r0, #240]	; 0xf0
 8000e90:	f8c0 5120 	str.w	r5, [r0, #288]	; 0x120
 8000e94:	f8c0 6154 	str.w	r6, [r0, #340]	; 0x154
 8000e98:	f8c0 7180 	str.w	r7, [r0, #384]	; 0x180
 8000e9c:	f8c0 30ec 	str.w	r3, [r0, #236]	; 0xec
 8000ea0:	f8d0 91b8 	ldr.w	r9, [r0, #440]	; 0x1b8
 8000ea4:	f8d0 1500 	ldr.w	r1, [r0, #1280]	; 0x500
 8000ea8:	f8d0 a1e8 	ldr.w	sl, [r0, #488]	; 0x1e8
 8000eac:	f8d0 2508 	ldr.w	r2, [r0, #1288]	; 0x508
 8000eb0:	f8d0 b21c 	ldr.w	fp, [r0, #540]	; 0x21c
 8000eb4:	f8d0 e514 	ldr.w	lr, [r0, #1300]	; 0x514
 8000eb8:	ea99 0901 	eors.w	r9, r9, r1
 8000ebc:	ea9a 0a02 	eors.w	sl, sl, r2
 8000ec0:	ea9b 0b0e 	eors.w	fp, fp, lr
 8000ec4:	f8d0 c248 	ldr.w	ip, [r0, #584]	; 0x248
 8000ec8:	f8d0 1518 	ldr.w	r1, [r0, #1304]	; 0x518
 8000ecc:	f8d0 81b4 	ldr.w	r8, [r0, #436]	; 0x1b4
 8000ed0:	f8d0 e524 	ldr.w	lr, [r0, #1316]	; 0x524
 8000ed4:	ea9c 0c01 	eors.w	ip, ip, r1
 8000ed8:	ea98 080e 	eors.w	r8, r8, lr
 8000edc:	ea5f 39b9 	movs.w	r9, r9, ror #14
 8000ee0:	ea5f 6afa 	movs.w	sl, sl, ror #27
 8000ee4:	ea5f 6b3b 	movs.w	fp, fp, ror #24
 8000ee8:	ea5f 1c3c 	movs.w	ip, ip, ror #4
 8000eec:	ea5f 48b8 	movs.w	r8, r8, ror #18
 8000ef0:	ea93 0105 	eors.w	r1, r3, r5
 8000ef4:	ea04 0205 	and.w	r2, r4, r5
 8000ef8:	4051      	eors	r1, r2
 8000efa:	ea04 020a 	and.w	r2, r4, sl
 8000efe:	4051      	eors	r1, r2
 8000f00:	ea09 0205 	and.w	r2, r9, r5
 8000f04:	4051      	eors	r1, r2
 8000f06:	f8c0 1280 	str.w	r1, [r0, #640]	; 0x280
 8000f0a:	ea94 0106 	eors.w	r1, r4, r6
 8000f0e:	ea05 0206 	and.w	r2, r5, r6
 8000f12:	4051      	eors	r1, r2
 8000f14:	ea05 020b 	and.w	r2, r5, fp
 8000f18:	4051      	eors	r1, r2
 8000f1a:	ea0a 0206 	and.w	r2, sl, r6
 8000f1e:	4051      	eors	r1, r2
 8000f20:	f8c0 12b0 	str.w	r1, [r0, #688]	; 0x2b0
 8000f24:	ea95 0107 	eors.w	r1, r5, r7
 8000f28:	ea06 0207 	and.w	r2, r6, r7
 8000f2c:	4051      	eors	r1, r2
 8000f2e:	ea06 020c 	and.w	r2, r6, ip
 8000f32:	4051      	eors	r1, r2
 8000f34:	ea0b 0207 	and.w	r2, fp, r7
 8000f38:	4051      	eors	r1, r2
 8000f3a:	f8c0 12e4 	str.w	r1, [r0, #740]	; 0x2e4
 8000f3e:	ea96 0103 	eors.w	r1, r6, r3
 8000f42:	ea07 0203 	and.w	r2, r7, r3
 8000f46:	4051      	eors	r1, r2
 8000f48:	ea07 0208 	and.w	r2, r7, r8
 8000f4c:	4051      	eors	r1, r2
 8000f4e:	ea0c 0203 	and.w	r2, ip, r3
 8000f52:	4051      	eors	r1, r2
 8000f54:	f8c0 1310 	str.w	r1, [r0, #784]	; 0x310
 8000f58:	ea97 0104 	eors.w	r1, r7, r4
 8000f5c:	ea03 0204 	and.w	r2, r3, r4
 8000f60:	4051      	eors	r1, r2
 8000f62:	ea03 0209 	and.w	r2, r3, r9
 8000f66:	4051      	eors	r1, r2
 8000f68:	ea08 0204 	and.w	r2, r8, r4
 8000f6c:	4051      	eors	r1, r2
 8000f6e:	f8c0 127c 	str.w	r1, [r0, #636]	; 0x27c
 8000f72:	6a84      	ldr	r4, [r0, #40]	; 0x28
 8000f74:	f8d0 14b0 	ldr.w	r1, [r0, #1200]	; 0x4b0
 8000f78:	6d85      	ldr	r5, [r0, #88]	; 0x58
 8000f7a:	f8d0 24b8 	ldr.w	r2, [r0, #1208]	; 0x4b8
 8000f7e:	f8d0 608c 	ldr.w	r6, [r0, #140]	; 0x8c
 8000f82:	f8d0 e4c4 	ldr.w	lr, [r0, #1220]	; 0x4c4
 8000f86:	404c      	eors	r4, r1
 8000f88:	4055      	eors	r5, r2
 8000f8a:	ea96 060e 	eors.w	r6, r6, lr
 8000f8e:	f8d0 70b8 	ldr.w	r7, [r0, #184]	; 0xb8
 8000f92:	f8d0 14c8 	ldr.w	r1, [r0, #1224]	; 0x4c8
 8000f96:	6a43      	ldr	r3, [r0, #36]	; 0x24
 8000f98:	f8d0 e4d4 	ldr.w	lr, [r0, #1236]	; 0x4d4
 8000f9c:	404f      	eors	r7, r1
 8000f9e:	ea93 030e 	eors.w	r3, r3, lr
 8000fa2:	ea5f 34b4 	movs.w	r4, r4, ror #14
 8000fa6:	ea5f 65f5 	movs.w	r5, r5, ror #27
 8000faa:	ea5f 6636 	movs.w	r6, r6, ror #24
 8000fae:	ea5f 1737 	movs.w	r7, r7, ror #4
 8000fb2:	ea5f 43b3 	movs.w	r3, r3, ror #18
 8000fb6:	ea98 010a 	eors.w	r1, r8, sl
 8000fba:	ea09 020a 	and.w	r2, r9, sl
 8000fbe:	4051      	eors	r1, r2
 8000fc0:	ea09 0205 	and.w	r2, r9, r5
 8000fc4:	4051      	eors	r1, r2
 8000fc6:	ea04 020a 	and.w	r2, r4, sl
 8000fca:	4051      	eors	r1, r2
 8000fcc:	f8c0 1348 	str.w	r1, [r0, #840]	; 0x348
 8000fd0:	ea99 010b 	eors.w	r1, r9, fp
 8000fd4:	ea0a 020b 	and.w	r2, sl, fp
 8000fd8:	4051      	eors	r1, r2
 8000fda:	ea0a 0206 	and.w	r2, sl, r6
 8000fde:	4051      	eors	r1, r2
 8000fe0:	ea05 020b 	and.w	r2, r5, fp
 8000fe4:	4051      	eors	r1, r2
 8000fe6:	f8c0 1378 	str.w	r1, [r0, #888]	; 0x378
 8000fea:	ea9a 010c 	eors.w	r1, sl, ip
 8000fee:	ea0b 020c 	and.w	r2, fp, ip
 8000ff2:	4051      	eors	r1, r2
 8000ff4:	ea0b 0207 	and.w	r2, fp, r7
 8000ff8:	4051      	eors	r1, r2
 8000ffa:	ea06 020c 	and.w	r2, r6, ip
 8000ffe:	4051      	eors	r1, r2
 8001000:	f8c0 13ac 	str.w	r1, [r0, #940]	; 0x3ac
 8001004:	ea9b 0108 	eors.w	r1, fp, r8
 8001008:	ea0c 0208 	and.w	r2, ip, r8
 800100c:	4051      	eors	r1, r2
 800100e:	ea0c 0203 	and.w	r2, ip, r3
 8001012:	4051      	eors	r1, r2
 8001014:	ea07 0208 	and.w	r2, r7, r8
 8001018:	4051      	eors	r1, r2
 800101a:	f8c0 13d8 	str.w	r1, [r0, #984]	; 0x3d8
 800101e:	ea9c 0109 	eors.w	r1, ip, r9
 8001022:	ea08 0209 	and.w	r2, r8, r9
 8001026:	4051      	eors	r1, r2
 8001028:	ea08 0204 	and.w	r2, r8, r4
 800102c:	4051      	eors	r1, r2
 800102e:	ea03 0209 	and.w	r2, r3, r9
 8001032:	4051      	eors	r1, r2
 8001034:	f8c0 1344 	str.w	r1, [r0, #836]	; 0x344
 8001038:	f8d0 90f0 	ldr.w	r9, [r0, #240]	; 0xf0
 800103c:	f8d0 a120 	ldr.w	sl, [r0, #288]	; 0x120
 8001040:	f8d0 b154 	ldr.w	fp, [r0, #340]	; 0x154
 8001044:	f8d0 c180 	ldr.w	ip, [r0, #384]	; 0x180
 8001048:	f8d0 80ec 	ldr.w	r8, [r0, #236]	; 0xec
 800104c:	ea93 0105 	eors.w	r1, r3, r5
 8001050:	ea04 0205 	and.w	r2, r4, r5
 8001054:	4051      	eors	r1, r2
 8001056:	ea04 020a 	and.w	r2, r4, sl
 800105a:	4051      	eors	r1, r2
 800105c:	ea09 0205 	and.w	r2, r9, r5
 8001060:	4051      	eors	r1, r2
 8001062:	f8c0 1410 	str.w	r1, [r0, #1040]	; 0x410
 8001066:	ea94 0106 	eors.w	r1, r4, r6
 800106a:	ea05 0206 	and.w	r2, r5, r6
 800106e:	4051      	eors	r1, r2
 8001070:	ea05 020b 	and.w	r2, r5, fp
 8001074:	4051      	eors	r1, r2
 8001076:	ea0a 0206 	and.w	r2, sl, r6
 800107a:	4051      	eors	r1, r2
 800107c:	f8c0 1440 	str.w	r1, [r0, #1088]	; 0x440
 8001080:	ea95 0107 	eors.w	r1, r5, r7
 8001084:	ea06 0207 	and.w	r2, r6, r7
 8001088:	4051      	eors	r1, r2
 800108a:	ea06 020c 	and.w	r2, r6, ip
 800108e:	4051      	eors	r1, r2
 8001090:	ea0b 0207 	and.w	r2, fp, r7
 8001094:	4051      	eors	r1, r2
 8001096:	f8c0 1474 	str.w	r1, [r0, #1140]	; 0x474
 800109a:	ea96 0103 	eors.w	r1, r6, r3
 800109e:	ea07 0203 	and.w	r2, r7, r3
 80010a2:	4051      	eors	r1, r2
 80010a4:	ea07 0208 	and.w	r2, r7, r8
 80010a8:	4051      	eors	r1, r2
 80010aa:	ea0c 0203 	and.w	r2, ip, r3
 80010ae:	4051      	eors	r1, r2
 80010b0:	f8c0 14a0 	str.w	r1, [r0, #1184]	; 0x4a0
 80010b4:	ea97 0104 	eors.w	r1, r7, r4
 80010b8:	ea03 0204 	and.w	r2, r3, r4
 80010bc:	4051      	eors	r1, r2
 80010be:	ea03 0209 	and.w	r2, r3, r9
 80010c2:	4051      	eors	r1, r2
 80010c4:	ea08 0204 	and.w	r2, r8, r4
 80010c8:	4051      	eors	r1, r2
 80010ca:	f8c0 140c 	str.w	r1, [r0, #1036]	; 0x40c
 80010ce:	e8bd 5f04 	ldmia.w	sp!, {r2, r8, r9, sl, fp, ip, lr}
 80010d2:	e92d 5f04 	stmdb	sp!, {r2, r8, r9, sl, fp, ip, lr}
 80010d6:	f8d0 6140 	ldr.w	r6, [r0, #320]	; 0x140
 80010da:	f8d0 7174 	ldr.w	r7, [r0, #372]	; 0x174
 80010de:	f8d0 30dc 	ldr.w	r3, [r0, #220]	; 0xdc
 80010e2:	f8d0 4108 	ldr.w	r4, [r0, #264]	; 0x108
 80010e6:	f8d0 5138 	ldr.w	r5, [r0, #312]	; 0x138
 80010ea:	ea96 0608 	eors.w	r6, r6, r8
 80010ee:	ea97 070b 	eors.w	r7, r7, fp
 80010f2:	4053      	eors	r3, r2
 80010f4:	ea94 0409 	eors.w	r4, r4, r9
 80010f8:	ea95 050c 	eors.w	r5, r5, ip
 80010fc:	ea5f 3636 	movs.w	r6, r6, ror #12
 8001100:	ea5f 77f7 	movs.w	r7, r7, ror #31
 8001104:	ea5f 0373 	movs.w	r3, r3, ror #1
 8001108:	ea5f 1474 	movs.w	r4, r4, ror #5
 800110c:	ea5f 3575 	movs.w	r5, r5, ror #13
 8001110:	f8c0 6140 	str.w	r6, [r0, #320]	; 0x140
 8001114:	f8c0 7174 	str.w	r7, [r0, #372]	; 0x174
 8001118:	f8c0 30dc 	str.w	r3, [r0, #220]	; 0xdc
 800111c:	f8c0 4108 	str.w	r4, [r0, #264]	; 0x108
 8001120:	f8c0 5138 	str.w	r5, [r0, #312]	; 0x138
 8001124:	f8d0 b208 	ldr.w	fp, [r0, #520]	; 0x208
 8001128:	f8d0 1500 	ldr.w	r1, [r0, #1280]	; 0x500
 800112c:	f8d0 c23c 	ldr.w	ip, [r0, #572]	; 0x23c
 8001130:	f8d0 250c 	ldr.w	r2, [r0, #1292]	; 0x50c
 8001134:	f8d0 81a4 	ldr.w	r8, [r0, #420]	; 0x1a4
 8001138:	f8d0 e514 	ldr.w	lr, [r0, #1300]	; 0x514
 800113c:	ea9b 0b01 	eors.w	fp, fp, r1
 8001140:	ea9c 0c02 	eors.w	ip, ip, r2
 8001144:	ea98 080e 	eors.w	r8, r8, lr
 8001148:	f8d0 91d0 	ldr.w	r9, [r0, #464]	; 0x1d0
 800114c:	f8d0 1518 	ldr.w	r1, [r0, #1304]	; 0x518
 8001150:	f8d0 a200 	ldr.w	sl, [r0, #512]	; 0x200
 8001154:	f8d0 e520 	ldr.w	lr, [r0, #1312]	; 0x520
 8001158:	ea99 0901 	eors.w	r9, r9, r1
 800115c:	ea9a 0a0e 	eors.w	sl, sl, lr
 8001160:	ea5f 3b3b 	movs.w	fp, fp, ror #12
 8001164:	ea5f 7cfc 	movs.w	ip, ip, ror #31
 8001168:	ea5f 0878 	movs.w	r8, r8, ror #1
 800116c:	ea5f 1979 	movs.w	r9, r9, ror #5
 8001170:	ea5f 3a7a 	movs.w	sl, sl, ror #13
 8001174:	ea93 0105 	eors.w	r1, r3, r5
 8001178:	ea04 0205 	and.w	r2, r4, r5
 800117c:	4051      	eors	r1, r2
 800117e:	ea04 020a 	and.w	r2, r4, sl
 8001182:	4051      	eors	r1, r2
 8001184:	ea09 0205 	and.w	r2, r9, r5
 8001188:	4051      	eors	r1, r2
 800118a:	f8c0 12d0 	str.w	r1, [r0, #720]	; 0x2d0
 800118e:	ea94 0106 	eors.w	r1, r4, r6
 8001192:	ea05 0206 	and.w	r2, r5, r6
 8001196:	4051      	eors	r1, r2
 8001198:	ea05 020b 	and.w	r2, r5, fp
 800119c:	4051      	eors	r1, r2
 800119e:	ea0a 0206 	and.w	r2, sl, r6
 80011a2:	4051      	eors	r1, r2
 80011a4:	f8c0 1304 	str.w	r1, [r0, #772]	; 0x304
 80011a8:	ea95 0107 	eors.w	r1, r5, r7
 80011ac:	ea06 0207 	and.w	r2, r6, r7
 80011b0:	4051      	eors	r1, r2
 80011b2:	ea06 020c 	and.w	r2, r6, ip
 80011b6:	4051      	eors	r1, r2
 80011b8:	ea0b 0207 	and.w	r2, fp, r7
 80011bc:	4051      	eors	r1, r2
 80011be:	f8c0 126c 	str.w	r1, [r0, #620]	; 0x26c
 80011c2:	ea96 0103 	eors.w	r1, r6, r3
 80011c6:	ea07 0203 	and.w	r2, r7, r3
 80011ca:	4051      	eors	r1, r2
 80011cc:	ea07 0208 	and.w	r2, r7, r8
 80011d0:	4051      	eors	r1, r2
 80011d2:	ea0c 0203 	and.w	r2, ip, r3
 80011d6:	4051      	eors	r1, r2
 80011d8:	f8c0 1298 	str.w	r1, [r0, #664]	; 0x298
 80011dc:	ea97 0104 	eors.w	r1, r7, r4
 80011e0:	ea03 0204 	and.w	r2, r3, r4
 80011e4:	4051      	eors	r1, r2
 80011e6:	ea03 0209 	and.w	r2, r3, r9
 80011ea:	4051      	eors	r1, r2
 80011ec:	ea08 0204 	and.w	r2, r8, r4
 80011f0:	4051      	eors	r1, r2
 80011f2:	f8c0 12c8 	str.w	r1, [r0, #712]	; 0x2c8
 80011f6:	6f86      	ldr	r6, [r0, #120]	; 0x78
 80011f8:	f8d0 14b0 	ldr.w	r1, [r0, #1200]	; 0x4b0
 80011fc:	f8d0 70ac 	ldr.w	r7, [r0, #172]	; 0xac
 8001200:	f8d0 24bc 	ldr.w	r2, [r0, #1212]	; 0x4bc
 8001204:	6943      	ldr	r3, [r0, #20]
 8001206:	f8d0 e4c4 	ldr.w	lr, [r0, #1220]	; 0x4c4
 800120a:	404e      	eors	r6, r1
 800120c:	4057      	eors	r7, r2
 800120e:	ea93 030e 	eors.w	r3, r3, lr
 8001212:	6c04      	ldr	r4, [r0, #64]	; 0x40
 8001214:	f8d0 14c8 	ldr.w	r1, [r0, #1224]	; 0x4c8
 8001218:	6f05      	ldr	r5, [r0, #112]	; 0x70
 800121a:	f8d0 e4d0 	ldr.w	lr, [r0, #1232]	; 0x4d0
 800121e:	404c      	eors	r4, r1
 8001220:	ea95 050e 	eors.w	r5, r5, lr
 8001224:	ea5f 3636 	movs.w	r6, r6, ror #12
 8001228:	ea5f 77f7 	movs.w	r7, r7, ror #31
 800122c:	ea5f 0373 	movs.w	r3, r3, ror #1
 8001230:	ea5f 1474 	movs.w	r4, r4, ror #5
 8001234:	ea5f 3575 	movs.w	r5, r5, ror #13
 8001238:	ea98 010a 	eors.w	r1, r8, sl
 800123c:	ea09 020a 	and.w	r2, r9, sl
 8001240:	4051      	eors	r1, r2
 8001242:	ea09 0205 	and.w	r2, r9, r5
 8001246:	4051      	eors	r1, r2
 8001248:	ea04 020a 	and.w	r2, r4, sl
 800124c:	4051      	eors	r1, r2
 800124e:	f8c0 1398 	str.w	r1, [r0, #920]	; 0x398
 8001252:	ea99 010b 	eors.w	r1, r9, fp
 8001256:	ea0a 020b 	and.w	r2, sl, fp
 800125a:	4051      	eors	r1, r2
 800125c:	ea0a 0206 	and.w	r2, sl, r6
 8001260:	4051      	eors	r1, r2
 8001262:	ea05 020b 	and.w	r2, r5, fp
 8001266:	4051      	eors	r1, r2
 8001268:	f8c0 13cc 	str.w	r1, [r0, #972]	; 0x3cc
 800126c:	ea9a 010c 	eors.w	r1, sl, ip
 8001270:	ea0b 020c 	and.w	r2, fp, ip
 8001274:	4051      	eors	r1, r2
 8001276:	ea0b 0207 	and.w	r2, fp, r7
 800127a:	4051      	eors	r1, r2
 800127c:	ea06 020c 	and.w	r2, r6, ip
 8001280:	4051      	eors	r1, r2
 8001282:	f8c0 1334 	str.w	r1, [r0, #820]	; 0x334
 8001286:	ea9b 0108 	eors.w	r1, fp, r8
 800128a:	ea0c 0208 	and.w	r2, ip, r8
 800128e:	4051      	eors	r1, r2
 8001290:	ea0c 0203 	and.w	r2, ip, r3
 8001294:	4051      	eors	r1, r2
 8001296:	ea07 0208 	and.w	r2, r7, r8
 800129a:	4051      	eors	r1, r2
 800129c:	f8c0 1360 	str.w	r1, [r0, #864]	; 0x360
 80012a0:	ea9c 0109 	eors.w	r1, ip, r9
 80012a4:	ea08 0209 	and.w	r2, r8, r9
 80012a8:	4051      	eors	r1, r2
 80012aa:	ea08 0204 	and.w	r2, r8, r4
 80012ae:	4051      	eors	r1, r2
 80012b0:	ea03 0209 	and.w	r2, r3, r9
 80012b4:	4051      	eors	r1, r2
 80012b6:	f8c0 1390 	str.w	r1, [r0, #912]	; 0x390
 80012ba:	f8d0 b140 	ldr.w	fp, [r0, #320]	; 0x140
 80012be:	f8d0 c174 	ldr.w	ip, [r0, #372]	; 0x174
 80012c2:	f8d0 80dc 	ldr.w	r8, [r0, #220]	; 0xdc
 80012c6:	f8d0 9108 	ldr.w	r9, [r0, #264]	; 0x108
 80012ca:	f8d0 a138 	ldr.w	sl, [r0, #312]	; 0x138
 80012ce:	ea93 0105 	eors.w	r1, r3, r5
 80012d2:	ea04 0205 	and.w	r2, r4, r5
 80012d6:	4051      	eors	r1, r2
 80012d8:	ea04 020a 	and.w	r2, r4, sl
 80012dc:	4051      	eors	r1, r2
 80012de:	ea09 0205 	and.w	r2, r9, r5
 80012e2:	4051      	eors	r1, r2
 80012e4:	f8c0 1460 	str.w	r1, [r0, #1120]	; 0x460
 80012e8:	ea94 0106 	eors.w	r1, r4, r6
 80012ec:	ea05 0206 	and.w	r2, r5, r6
 80012f0:	4051      	eors	r1, r2
 80012f2:	ea05 020b 	and.w	r2, r5, fp
 80012f6:	4051      	eors	r1, r2
 80012f8:	ea0a 0206 	and.w	r2, sl, r6
 80012fc:	4051      	eors	r1, r2
 80012fe:	f8c0 1494 	str.w	r1, [r0, #1172]	; 0x494
 8001302:	ea95 0107 	eors.w	r1, r5, r7
 8001306:	ea06 0207 	and.w	r2, r6, r7
 800130a:	4051      	eors	r1, r2
 800130c:	ea06 020c 	and.w	r2, r6, ip
 8001310:	4051      	eors	r1, r2
 8001312:	ea0b 0207 	and.w	r2, fp, r7
 8001316:	4051      	eors	r1, r2
 8001318:	f8c0 13fc 	str.w	r1, [r0, #1020]	; 0x3fc
 800131c:	ea96 0103 	eors.w	r1, r6, r3
 8001320:	ea07 0203 	and.w	r2, r7, r3
 8001324:	4051      	eors	r1, r2
 8001326:	ea07 0208 	and.w	r2, r7, r8
 800132a:	4051      	eors	r1, r2
 800132c:	ea0c 0203 	and.w	r2, ip, r3
 8001330:	4051      	eors	r1, r2
 8001332:	f8c0 1428 	str.w	r1, [r0, #1064]	; 0x428
 8001336:	ea97 0104 	eors.w	r1, r7, r4
 800133a:	ea03 0204 	and.w	r2, r3, r4
 800133e:	4051      	eors	r1, r2
 8001340:	ea03 0209 	and.w	r2, r3, r9
 8001344:	4051      	eors	r1, r2
 8001346:	ea08 0204 	and.w	r2, r8, r4
 800134a:	4051      	eors	r1, r2
 800134c:	f8c0 1458 	str.w	r1, [r0, #1112]	; 0x458
 8001350:	e8bd 5f04 	ldmia.w	sp!, {r2, r8, r9, sl, fp, ip, lr}
 8001354:	f8d0 94f4 	ldr.w	r9, [r0, #1268]	; 0x4f4
 8001358:	e92d 5f04 	stmdb	sp!, {r2, r8, r9, sl, fp, ip, lr}
 800135c:	f8d0 30c8 	ldr.w	r3, [r0, #200]	; 0xc8
 8001360:	f8d0 40f8 	ldr.w	r4, [r0, #248]	; 0xf8
 8001364:	f8d0 512c 	ldr.w	r5, [r0, #300]	; 0x12c
 8001368:	f8d0 615c 	ldr.w	r6, [r0, #348]	; 0x15c
 800136c:	f8d0 7188 	ldr.w	r7, [r0, #392]	; 0x188
 8001370:	ea93 0308 	eors.w	r3, r3, r8
 8001374:	ea94 040a 	eors.w	r4, r4, sl
 8001378:	4055      	eors	r5, r2
 800137a:	ea96 0609 	eors.w	r6, r6, r9
 800137e:	ea97 070c 	eors.w	r7, r7, ip
 8001382:	ea5f 24b4 	movs.w	r4, r4, ror #10
 8001386:	ea5f 25b5 	movs.w	r5, r5, ror #10
 800138a:	ea5f 5676 	movs.w	r6, r6, ror #21
 800138e:	ea5f 6777 	movs.w	r7, r7, ror #25
 8001392:	f8c0 30c8 	str.w	r3, [r0, #200]	; 0xc8
 8001396:	f8c0 40f8 	str.w	r4, [r0, #248]	; 0xf8
 800139a:	f8c0 512c 	str.w	r5, [r0, #300]	; 0x12c
 800139e:	f8c0 615c 	str.w	r6, [r0, #348]	; 0x15c
 80013a2:	f8c0 7188 	str.w	r7, [r0, #392]	; 0x188
 80013a6:	f8d0 8190 	ldr.w	r8, [r0, #400]	; 0x190
 80013aa:	f8d0 1500 	ldr.w	r1, [r0, #1280]	; 0x500
 80013ae:	f8d0 91c0 	ldr.w	r9, [r0, #448]	; 0x1c0
 80013b2:	f8d0 2508 	ldr.w	r2, [r0, #1288]	; 0x508
 80013b6:	f8d0 a1f4 	ldr.w	sl, [r0, #500]	; 0x1f4
 80013ba:	f8d0 e514 	ldr.w	lr, [r0, #1300]	; 0x514
 80013be:	ea98 0801 	eors.w	r8, r8, r1
 80013c2:	ea99 0902 	eors.w	r9, r9, r2
 80013c6:	ea9a 0a0e 	eors.w	sl, sl, lr
 80013ca:	f8d0 b224 	ldr.w	fp, [r0, #548]	; 0x224
 80013ce:	f8d0 151c 	ldr.w	r1, [r0, #1308]	; 0x51c
 80013d2:	f8d0 c250 	ldr.w	ip, [r0, #592]	; 0x250
 80013d6:	f8d0 e520 	ldr.w	lr, [r0, #1312]	; 0x520
 80013da:	ea9b 0b01 	eors.w	fp, fp, r1
 80013de:	ea9c 0c0e 	eors.w	ip, ip, lr
 80013e2:	ea5f 29b9 	movs.w	r9, r9, ror #10
 80013e6:	ea5f 2aba 	movs.w	sl, sl, ror #10
 80013ea:	ea5f 5b7b 	movs.w	fp, fp, ror #21
 80013ee:	ea5f 6c7c 	movs.w	ip, ip, ror #25
 80013f2:	ea93 0105 	eors.w	r1, r3, r5
 80013f6:	ea04 0205 	and.w	r2, r4, r5
 80013fa:	4051      	eors	r1, r2
 80013fc:	ea04 020a 	and.w	r2, r4, sl
 8001400:	4051      	eors	r1, r2
 8001402:	ea09 0205 	and.w	r2, r9, r5
 8001406:	4051      	eors	r1, r2
 8001408:	f8c0 1258 	str.w	r1, [r0, #600]	; 0x258
 800140c:	ea94 0106 	eors.w	r1, r4, r6
 8001410:	ea05 0206 	and.w	r2, r5, r6
 8001414:	4051      	eors	r1, r2
 8001416:	ea05 020b 	and.w	r2, r5, fp
 800141a:	4051      	eors	r1, r2
 800141c:	ea0a 0206 	and.w	r2, sl, r6
 8001420:	4051      	eors	r1, r2
 8001422:	f8c0 1288 	str.w	r1, [r0, #648]	; 0x288
 8001426:	ea95 0107 	eors.w	r1, r5, r7
 800142a:	ea06 0207 	and.w	r2, r6, r7
 800142e:	4051      	eors	r1, r2
 8001430:	ea06 020c 	and.w	r2, r6, ip
 8001434:	4051      	eors	r1, r2
 8001436:	ea0b 0207 	and.w	r2, fp, r7
 800143a:	4051      	eors	r1, r2
 800143c:	f8c0 12bc 	str.w	r1, [r0, #700]	; 0x2bc
 8001440:	ea96 0103 	eors.w	r1, r6, r3
 8001444:	ea07 0203 	and.w	r2, r7, r3
 8001448:	4051      	eors	r1, r2
 800144a:	ea07 0208 	and.w	r2, r7, r8
 800144e:	4051      	eors	r1, r2
 8001450:	ea0c 0203 	and.w	r2, ip, r3
 8001454:	4051      	eors	r1, r2
 8001456:	f8c0 12ec 	str.w	r1, [r0, #748]	; 0x2ec
 800145a:	ea97 0104 	eors.w	r1, r7, r4
 800145e:	ea03 0204 	and.w	r2, r3, r4
 8001462:	4051      	eors	r1, r2
 8001464:	ea03 0209 	and.w	r2, r3, r9
 8001468:	4051      	eors	r1, r2
 800146a:	ea08 0204 	and.w	r2, r8, r4
 800146e:	4051      	eors	r1, r2
 8001470:	f8c0 1318 	str.w	r1, [r0, #792]	; 0x318
 8001474:	6803      	ldr	r3, [r0, #0]
 8001476:	f8d0 14b0 	ldr.w	r1, [r0, #1200]	; 0x4b0
 800147a:	6b04      	ldr	r4, [r0, #48]	; 0x30
 800147c:	f8d0 24b8 	ldr.w	r2, [r0, #1208]	; 0x4b8
 8001480:	6e45      	ldr	r5, [r0, #100]	; 0x64
 8001482:	f8d0 e4c4 	ldr.w	lr, [r0, #1220]	; 0x4c4
 8001486:	404b      	eors	r3, r1
 8001488:	4054      	eors	r4, r2
 800148a:	ea95 050e 	eors.w	r5, r5, lr
 800148e:	f8d0 6094 	ldr.w	r6, [r0, #148]	; 0x94
 8001492:	f8d0 14cc 	ldr.w	r1, [r0, #1228]	; 0x4cc
 8001496:	f8d0 70c0 	ldr.w	r7, [r0, #192]	; 0xc0
 800149a:	f8d0 e4d0 	ldr.w	lr, [r0, #1232]	; 0x4d0
 800149e:	404e      	eors	r6, r1
 80014a0:	ea97 070e 	eors.w	r7, r7, lr
 80014a4:	ea5f 24b4 	movs.w	r4, r4, ror #10
 80014a8:	ea5f 25b5 	movs.w	r5, r5, ror #10
 80014ac:	ea5f 5676 	movs.w	r6, r6, ror #21
 80014b0:	ea5f 6777 	movs.w	r7, r7, ror #25
 80014b4:	ea98 010a 	eors.w	r1, r8, sl
 80014b8:	ea09 020a 	and.w	r2, r9, sl
 80014bc:	4051      	eors	r1, r2
 80014be:	ea09 0205 	and.w	r2, r9, r5
 80014c2:	4051      	eors	r1, r2
 80014c4:	ea04 020a 	and.w	r2, r4, sl
 80014c8:	4051      	eors	r1, r2
 80014ca:	f8c0 1320 	str.w	r1, [r0, #800]	; 0x320
 80014ce:	ea99 010b 	eors.w	r1, r9, fp
 80014d2:	ea0a 020b 	and.w	r2, sl, fp
 80014d6:	4051      	eors	r1, r2
 80014d8:	ea0a 0206 	and.w	r2, sl, r6
 80014dc:	4051      	eors	r1, r2
 80014de:	ea05 020b 	and.w	r2, r5, fp
 80014e2:	4051      	eors	r1, r2
 80014e4:	f8c0 1350 	str.w	r1, [r0, #848]	; 0x350
 80014e8:	ea9a 010c 	eors.w	r1, sl, ip
 80014ec:	ea0b 020c 	and.w	r2, fp, ip
 80014f0:	4051      	eors	r1, r2
 80014f2:	ea0b 0207 	and.w	r2, fp, r7
 80014f6:	4051      	eors	r1, r2
 80014f8:	ea06 020c 	and.w	r2, r6, ip
 80014fc:	4051      	eors	r1, r2
 80014fe:	f8c0 1384 	str.w	r1, [r0, #900]	; 0x384
 8001502:	ea9b 0108 	eors.w	r1, fp, r8
 8001506:	ea0c 0208 	and.w	r2, ip, r8
 800150a:	4051      	eors	r1, r2
 800150c:	ea0c 0203 	and.w	r2, ip, r3
 8001510:	4051      	eors	r1, r2
 8001512:	ea07 0208 	and.w	r2, r7, r8
 8001516:	4051      	eors	r1, r2
 8001518:	f8c0 13b4 	str.w	r1, [r0, #948]	; 0x3b4
 800151c:	ea9c 0109 	eors.w	r1, ip, r9
 8001520:	ea08 0209 	and.w	r2, r8, r9
 8001524:	4051      	eors	r1, r2
 8001526:	ea08 0204 	and.w	r2, r8, r4
 800152a:	4051      	eors	r1, r2
 800152c:	ea03 0209 	and.w	r2, r3, r9
 8001530:	4051      	eors	r1, r2
 8001532:	f8c0 13e0 	str.w	r1, [r0, #992]	; 0x3e0
 8001536:	f8d0 80c8 	ldr.w	r8, [r0, #200]	; 0xc8
 800153a:	f8d0 90f8 	ldr.w	r9, [r0, #248]	; 0xf8
 800153e:	f8d0 a12c 	ldr.w	sl, [r0, #300]	; 0x12c
 8001542:	f8d0 b15c 	ldr.w	fp, [r0, #348]	; 0x15c
 8001546:	f8d0 c188 	ldr.w	ip, [r0, #392]	; 0x188
 800154a:	ea94 0106 	eors.w	r1, r4, r6
 800154e:	ea05 0206 	and.w	r2, r5, r6
 8001552:	4051      	eors	r1, r2
 8001554:	ea05 020b 	and.w	r2, r5, fp
 8001558:	4051      	eors	r1, r2
 800155a:	ea0a 0206 	and.w	r2, sl, r6
 800155e:	4051      	eors	r1, r2
 8001560:	f8c0 1418 	str.w	r1, [r0, #1048]	; 0x418
 8001564:	ea95 0107 	eors.w	r1, r5, r7
 8001568:	ea06 0207 	and.w	r2, r6, r7
 800156c:	4051      	eors	r1, r2
 800156e:	ea06 020c 	and.w	r2, r6, ip
 8001572:	4051      	eors	r1, r2
 8001574:	ea0b 0207 	and.w	r2, fp, r7
 8001578:	4051      	eors	r1, r2
 800157a:	f8c0 144c 	str.w	r1, [r0, #1100]	; 0x44c
 800157e:	ea96 0103 	eors.w	r1, r6, r3
 8001582:	ea07 0203 	and.w	r2, r7, r3
 8001586:	4051      	eors	r1, r2
 8001588:	ea07 0208 	and.w	r2, r7, r8
 800158c:	4051      	eors	r1, r2
 800158e:	ea0c 0203 	and.w	r2, ip, r3
 8001592:	4051      	eors	r1, r2
 8001594:	f8c0 147c 	str.w	r1, [r0, #1148]	; 0x47c
 8001598:	ea97 0104 	eors.w	r1, r7, r4
 800159c:	ea03 0204 	and.w	r2, r3, r4
 80015a0:	4051      	eors	r1, r2
 80015a2:	ea03 0209 	and.w	r2, r3, r9
 80015a6:	4051      	eors	r1, r2
 80015a8:	ea08 0204 	and.w	r2, r8, r4
 80015ac:	4051      	eors	r1, r2
 80015ae:	f8c0 14a8 	str.w	r1, [r0, #1192]	; 0x4a8
 80015b2:	f8d0 1528 	ldr.w	r1, [r0, #1320]	; 0x528
 80015b6:	ea93 0605 	eors.w	r6, r3, r5
 80015ba:	ea04 0705 	and.w	r7, r4, r5
 80015be:	407e      	eors	r6, r7
 80015c0:	ea04 070a 	and.w	r7, r4, sl
 80015c4:	407e      	eors	r6, r7
 80015c6:	ea09 0705 	and.w	r7, r9, r5
 80015ca:	407e      	eors	r6, r7
 80015cc:	680c      	ldr	r4, [r1, #0]
 80015ce:	4066      	eors	r6, r4
 80015d0:	f8c0 63e8 	str.w	r6, [r0, #1000]	; 0x3e8
 80015d4:	e8bd 5f04 	ldmia.w	sp!, {r2, r8, r9, sl, fp, ip, lr}
 80015d8:	f8d0 24e8 	ldr.w	r2, [r0, #1256]	; 0x4e8
 80015dc:	e92d 5f04 	stmdb	sp!, {r2, r8, r9, sl, fp, ip, lr}
 80015e0:	f8d0 5118 	ldr.w	r5, [r0, #280]	; 0x118
 80015e4:	f8d0 6148 	ldr.w	r6, [r0, #328]	; 0x148
 80015e8:	f8d0 7178 	ldr.w	r7, [r0, #376]	; 0x178
 80015ec:	f8d0 30e4 	ldr.w	r3, [r0, #228]	; 0xe4
 80015f0:	f8d0 4114 	ldr.w	r4, [r0, #276]	; 0x114
 80015f4:	ea95 0508 	eors.w	r5, r5, r8
 80015f8:	ea96 060a 	eors.w	r6, r6, sl
 80015fc:	4057      	eors	r7, r2
 80015fe:	ea93 0309 	eors.w	r3, r3, r9
 8001602:	ea94 040e 	eors.w	r4, r4, lr
 8001606:	ea5f 75f5 	movs.w	r5, r5, ror #31
 800160a:	ea5f 26b6 	movs.w	r6, r6, ror #10
 800160e:	ea5f 07b7 	movs.w	r7, r7, ror #2
 8001612:	ea5f 43b3 	movs.w	r3, r3, ror #18
 8001616:	ea5f 54b4 	movs.w	r4, r4, ror #22
 800161a:	f8c0 5118 	str.w	r5, [r0, #280]	; 0x118
 800161e:	f8c0 6148 	str.w	r6, [r0, #328]	; 0x148
 8001622:	f8c0 7178 	str.w	r7, [r0, #376]	; 0x178
 8001626:	f8c0 30e4 	str.w	r3, [r0, #228]	; 0xe4
 800162a:	f8c0 4114 	str.w	r4, [r0, #276]	; 0x114
 800162e:	f8d0 a1e0 	ldr.w	sl, [r0, #480]	; 0x1e0
 8001632:	f8d0 1500 	ldr.w	r1, [r0, #1280]	; 0x500
 8001636:	f8d0 b210 	ldr.w	fp, [r0, #528]	; 0x210
 800163a:	f8d0 2508 	ldr.w	r2, [r0, #1288]	; 0x508
 800163e:	f8d0 c240 	ldr.w	ip, [r0, #576]	; 0x240
 8001642:	f8d0 e510 	ldr.w	lr, [r0, #1296]	; 0x510
 8001646:	ea9a 0a01 	eors.w	sl, sl, r1
 800164a:	ea9b 0b02 	eors.w	fp, fp, r2
 800164e:	ea9c 0c0e 	eors.w	ip, ip, lr
 8001652:	f8d0 81ac 	ldr.w	r8, [r0, #428]	; 0x1ac
 8001656:	f8d0 151c 	ldr.w	r1, [r0, #1308]	; 0x51c
 800165a:	f8d0 91dc 	ldr.w	r9, [r0, #476]	; 0x1dc
 800165e:	f8d0 e524 	ldr.w	lr, [r0, #1316]	; 0x524
 8001662:	ea98 0801 	eors.w	r8, r8, r1
 8001666:	ea99 090e 	eors.w	r9, r9, lr
 800166a:	ea5f 7afa 	movs.w	sl, sl, ror #31
 800166e:	ea5f 2bbb 	movs.w	fp, fp, ror #10
 8001672:	ea5f 0cbc 	movs.w	ip, ip, ror #2
 8001676:	ea5f 48b8 	movs.w	r8, r8, ror #18
 800167a:	ea5f 59b9 	movs.w	r9, r9, ror #22
 800167e:	ea93 0105 	eors.w	r1, r3, r5
 8001682:	ea04 0205 	and.w	r2, r4, r5
 8001686:	4051      	eors	r1, r2
 8001688:	ea04 020a 	and.w	r2, r4, sl
 800168c:	4051      	eors	r1, r2
 800168e:	ea09 0205 	and.w	r2, r9, r5
 8001692:	4051      	eors	r1, r2
 8001694:	f8c0 12a8 	str.w	r1, [r0, #680]	; 0x2a8
 8001698:	ea94 0106 	eors.w	r1, r4, r6
 800169c:	ea05 0206 	and.w	r2, r5, r6
 80016a0:	4051      	eors	r1, r2
 80016a2:	ea05 020b 	and.w	r2, r5, fp
 80016a6:	4051      	eors	r1, r2
 80016a8:	ea0a 0206 	and.w	r2, sl, r6
 80016ac:	4051      	eors	r1, r2
 80016ae:	f8c0 12d8 	str.w	r1, [r0, #728]	; 0x2d8
 80016b2:	ea95 0107 	eors.w	r1, r5, r7
 80016b6:	ea06 0207 	and.w	r2, r6, r7
 80016ba:	4051      	eors	r1, r2
 80016bc:	ea06 020c 	and.w	r2, r6, ip
 80016c0:	4051      	eors	r1, r2
 80016c2:	ea0b 0207 	and.w	r2, fp, r7
 80016c6:	4051      	eors	r1, r2
 80016c8:	f8c0 1308 	str.w	r1, [r0, #776]	; 0x308
 80016cc:	ea96 0103 	eors.w	r1, r6, r3
 80016d0:	ea07 0203 	and.w	r2, r7, r3
 80016d4:	4051      	eors	r1, r2
 80016d6:	ea07 0208 	and.w	r2, r7, r8
 80016da:	4051      	eors	r1, r2
 80016dc:	ea0c 0203 	and.w	r2, ip, r3
 80016e0:	4051      	eors	r1, r2
 80016e2:	f8c0 1274 	str.w	r1, [r0, #628]	; 0x274
 80016e6:	ea97 0104 	eors.w	r1, r7, r4
 80016ea:	ea03 0204 	and.w	r2, r3, r4
 80016ee:	4051      	eors	r1, r2
 80016f0:	ea03 0209 	and.w	r2, r3, r9
 80016f4:	4051      	eors	r1, r2
 80016f6:	ea08 0204 	and.w	r2, r8, r4
 80016fa:	4051      	eors	r1, r2
 80016fc:	f8c0 12a4 	str.w	r1, [r0, #676]	; 0x2a4
 8001700:	6d05      	ldr	r5, [r0, #80]	; 0x50
 8001702:	f8d0 14b0 	ldr.w	r1, [r0, #1200]	; 0x4b0
 8001706:	f8d0 6080 	ldr.w	r6, [r0, #128]	; 0x80
 800170a:	f8d0 24b8 	ldr.w	r2, [r0, #1208]	; 0x4b8
 800170e:	f8d0 70b0 	ldr.w	r7, [r0, #176]	; 0xb0
 8001712:	f8d0 e4c0 	ldr.w	lr, [r0, #1216]	; 0x4c0
 8001716:	404d      	eors	r5, r1
 8001718:	4056      	eors	r6, r2
 800171a:	ea97 070e 	eors.w	r7, r7, lr
 800171e:	69c3      	ldr	r3, [r0, #28]
 8001720:	f8d0 14cc 	ldr.w	r1, [r0, #1228]	; 0x4cc
 8001724:	6cc4      	ldr	r4, [r0, #76]	; 0x4c
 8001726:	f8d0 e4d4 	ldr.w	lr, [r0, #1236]	; 0x4d4
 800172a:	404b      	eors	r3, r1
 800172c:	ea94 040e 	eors.w	r4, r4, lr
 8001730:	ea5f 75f5 	movs.w	r5, r5, ror #31
 8001734:	ea5f 26b6 	movs.w	r6, r6, ror #10
 8001738:	ea5f 07b7 	movs.w	r7, r7, ror #2
 800173c:	ea5f 43b3 	movs.w	r3, r3, ror #18
 8001740:	ea5f 54b4 	movs.w	r4, r4, ror #22
 8001744:	ea98 010a 	eors.w	r1, r8, sl
 8001748:	ea09 020a 	and.w	r2, r9, sl
 800174c:	4051      	eors	r1, r2
 800174e:	ea09 0205 	and.w	r2, r9, r5
 8001752:	4051      	eors	r1, r2
 8001754:	ea04 020a 	and.w	r2, r4, sl
 8001758:	4051      	eors	r1, r2
 800175a:	f8c0 1370 	str.w	r1, [r0, #880]	; 0x370
 800175e:	ea99 010b 	eors.w	r1, r9, fp
 8001762:	ea0a 020b 	and.w	r2, sl, fp
 8001766:	4051      	eors	r1, r2
 8001768:	ea0a 0206 	and.w	r2, sl, r6
 800176c:	4051      	eors	r1, r2
 800176e:	ea05 020b 	and.w	r2, r5, fp
 8001772:	4051      	eors	r1, r2
 8001774:	f8c0 13a0 	str.w	r1, [r0, #928]	; 0x3a0
 8001778:	ea9a 010c 	eors.w	r1, sl, ip
 800177c:	ea0b 020c 	and.w	r2, fp, ip
 8001780:	4051      	eors	r1, r2
 8001782:	ea0b 0207 	and.w	r2, fp, r7
 8001786:	4051      	eors	r1, r2
 8001788:	ea06 020c 	and.w	r2, r6, ip
 800178c:	4051      	eors	r1, r2
 800178e:	f8c0 13d0 	str.w	r1, [r0, #976]	; 0x3d0
 8001792:	ea9b 0108 	eors.w	r1, fp, r8
 8001796:	ea0c 0208 	and.w	r2, ip, r8
 800179a:	4051      	eors	r1, r2
 800179c:	ea0c 0203 	and.w	r2, ip, r3
 80017a0:	4051      	eors	r1, r2
 80017a2:	ea07 0208 	and.w	r2, r7, r8
 80017a6:	4051      	eors	r1, r2
 80017a8:	f8c0 133c 	str.w	r1, [r0, #828]	; 0x33c
 80017ac:	ea9c 0109 	eors.w	r1, ip, r9
 80017b0:	ea08 0209 	and.w	r2, r8, r9
 80017b4:	4051      	eors	r1, r2
 80017b6:	ea08 0204 	and.w	r2, r8, r4
 80017ba:	4051      	eors	r1, r2
 80017bc:	ea03 0209 	and.w	r2, r3, r9
 80017c0:	4051      	eors	r1, r2
 80017c2:	f8c0 136c 	str.w	r1, [r0, #876]	; 0x36c
 80017c6:	f8d0 a118 	ldr.w	sl, [r0, #280]	; 0x118
 80017ca:	f8d0 b148 	ldr.w	fp, [r0, #328]	; 0x148
 80017ce:	f8d0 c178 	ldr.w	ip, [r0, #376]	; 0x178
 80017d2:	f8d0 80e4 	ldr.w	r8, [r0, #228]	; 0xe4
 80017d6:	f8d0 9114 	ldr.w	r9, [r0, #276]	; 0x114
 80017da:	ea93 0105 	eors.w	r1, r3, r5
 80017de:	ea04 0205 	and.w	r2, r4, r5
 80017e2:	4051      	eors	r1, r2
 80017e4:	ea04 020a 	and.w	r2, r4, sl
 80017e8:	4051      	eors	r1, r2
 80017ea:	ea09 0205 	and.w	r2, r9, r5
 80017ee:	4051      	eors	r1, r2
 80017f0:	f8c0 1438 	str.w	r1, [r0, #1080]	; 0x438
 80017f4:	ea94 0106 	eors.w	r1, r4, r6
 80017f8:	ea05 0206 	and.w	r2, r5, r6
 80017fc:	4051      	eors	r1, r2
 80017fe:	ea05 020b 	and.w	r2, r5, fp
 8001802:	4051      	eors	r1, r2
 8001804:	ea0a 0206 	and.w	r2, sl, r6
 8001808:	4051      	eors	r1, r2
 800180a:	f8c0 1468 	str.w	r1, [r0, #1128]	; 0x468
 800180e:	ea95 0107 	eors.w	r1, r5, r7
 8001812:	ea06 0207 	and.w	r2, r6, r7
 8001816:	4051      	eors	r1, r2
 8001818:	ea06 020c 	and.w	r2, r6, ip
 800181c:	4051      	eors	r1, r2
 800181e:	ea0b 0207 	and.w	r2, fp, r7
 8001822:	4051      	eors	r1, r2
 8001824:	f8c0 1498 	str.w	r1, [r0, #1176]	; 0x498
 8001828:	ea96 0103 	eors.w	r1, r6, r3
 800182c:	ea07 0203 	and.w	r2, r7, r3
 8001830:	4051      	eors	r1, r2
 8001832:	ea07 0208 	and.w	r2, r7, r8
 8001836:	4051      	eors	r1, r2
 8001838:	ea0c 0203 	and.w	r2, ip, r3
 800183c:	4051      	eors	r1, r2
 800183e:	f8c0 1404 	str.w	r1, [r0, #1028]	; 0x404
 8001842:	ea97 0104 	eors.w	r1, r7, r4
 8001846:	ea03 0204 	and.w	r2, r3, r4
 800184a:	4051      	eors	r1, r2
 800184c:	ea03 0209 	and.w	r2, r3, r9
 8001850:	4051      	eors	r1, r2
 8001852:	ea08 0204 	and.w	r2, r8, r4
 8001856:	4051      	eors	r1, r2
 8001858:	f8c0 1434 	str.w	r1, [r0, #1076]	; 0x434
 800185c:	e8bd 5f04 	ldmia.w	sp!, {r2, r8, r9, sl, fp, ip, lr}
 8001860:	e92d 5f04 	stmdb	sp!, {r2, r8, r9, sl, fp, ip, lr}
 8001864:	f8d0 7168 	ldr.w	r7, [r0, #360]	; 0x168
 8001868:	f8d0 30d4 	ldr.w	r3, [r0, #212]	; 0xd4
 800186c:	f8d0 4100 	ldr.w	r4, [r0, #256]	; 0x100
 8001870:	f8d0 5134 	ldr.w	r5, [r0, #308]	; 0x134
 8001874:	f8d0 6160 	ldr.w	r6, [r0, #352]	; 0x160
 8001878:	ea97 0708 	eors.w	r7, r7, r8
 800187c:	ea93 030b 	eors.w	r3, r3, fp
 8001880:	4054      	eors	r4, r2
 8001882:	ea95 0509 	eors.w	r5, r5, r9
 8001886:	ea96 060c 	eors.w	r6, r6, ip
 800188a:	ea5f 57f7 	movs.w	r7, r7, ror #23
 800188e:	ea5f 73f3 	movs.w	r3, r3, ror #31
 8001892:	ea5f 7474 	movs.w	r4, r4, ror #29
 8001896:	ea5f 45f5 	movs.w	r5, r5, ror #19
 800189a:	ea5f 7636 	movs.w	r6, r6, ror #28
 800189e:	f8c0 7168 	str.w	r7, [r0, #360]	; 0x168
 80018a2:	f8c0 30d4 	str.w	r3, [r0, #212]	; 0xd4
 80018a6:	f8c0 4100 	str.w	r4, [r0, #256]	; 0x100
 80018aa:	f8c0 5134 	str.w	r5, [r0, #308]	; 0x134
 80018ae:	f8c0 6160 	str.w	r6, [r0, #352]	; 0x160
 80018b2:	f8d0 c230 	ldr.w	ip, [r0, #560]	; 0x230
 80018b6:	f8d0 1500 	ldr.w	r1, [r0, #1280]	; 0x500
 80018ba:	f8d0 819c 	ldr.w	r8, [r0, #412]	; 0x19c
 80018be:	f8d0 250c 	ldr.w	r2, [r0, #1292]	; 0x50c
 80018c2:	f8d0 91c8 	ldr.w	r9, [r0, #456]	; 0x1c8
 80018c6:	f8d0 e510 	ldr.w	lr, [r0, #1296]	; 0x510
 80018ca:	ea9c 0c01 	eors.w	ip, ip, r1
 80018ce:	ea98 0802 	eors.w	r8, r8, r2
 80018d2:	ea99 090e 	eors.w	r9, r9, lr
 80018d6:	f8d0 a1fc 	ldr.w	sl, [r0, #508]	; 0x1fc
 80018da:	f8d0 151c 	ldr.w	r1, [r0, #1308]	; 0x51c
 80018de:	f8d0 b228 	ldr.w	fp, [r0, #552]	; 0x228
 80018e2:	f8d0 e520 	ldr.w	lr, [r0, #1312]	; 0x520
 80018e6:	ea9a 0a01 	eors.w	sl, sl, r1
 80018ea:	ea9b 0b0e 	eors.w	fp, fp, lr
 80018ee:	ea5f 5cfc 	movs.w	ip, ip, ror #23
 80018f2:	ea5f 78f8 	movs.w	r8, r8, ror #31
 80018f6:	ea5f 7979 	movs.w	r9, r9, ror #29
 80018fa:	ea5f 4afa 	movs.w	sl, sl, ror #19
 80018fe:	ea5f 7b3b 	movs.w	fp, fp, ror #28
 8001902:	ea93 0105 	eors.w	r1, r3, r5
 8001906:	ea04 0205 	and.w	r2, r4, r5
 800190a:	4051      	eors	r1, r2
 800190c:	ea04 020a 	and.w	r2, r4, sl
 8001910:	4051      	eors	r1, r2
 8001912:	ea09 0205 	and.w	r2, r9, r5
 8001916:	4051      	eors	r1, r2
 8001918:	f8c0 12f8 	str.w	r1, [r0, #760]	; 0x2f8
 800191c:	ea94 0106 	eors.w	r1, r4, r6
 8001920:	ea05 0206 	and.w	r2, r5, r6
 8001924:	4051      	eors	r1, r2
 8001926:	ea05 020b 	and.w	r2, r5, fp
 800192a:	4051      	eors	r1, r2
 800192c:	ea0a 0206 	and.w	r2, sl, r6
 8001930:	4051      	eors	r1, r2
 8001932:	f8c0 1264 	str.w	r1, [r0, #612]	; 0x264
 8001936:	ea95 0107 	eors.w	r1, r5, r7
 800193a:	ea06 0207 	and.w	r2, r6, r7
 800193e:	4051      	eors	r1, r2
 8001940:	ea06 020c 	and.w	r2, r6, ip
 8001944:	4051      	eors	r1, r2
 8001946:	ea0b 0207 	and.w	r2, fp, r7
 800194a:	4051      	eors	r1, r2
 800194c:	f8c0 1290 	str.w	r1, [r0, #656]	; 0x290
 8001950:	ea96 0103 	eors.w	r1, r6, r3
 8001954:	ea07 0203 	and.w	r2, r7, r3
 8001958:	4051      	eors	r1, r2
 800195a:	ea07 0208 	and.w	r2, r7, r8
 800195e:	4051      	eors	r1, r2
 8001960:	ea0c 0203 	and.w	r2, ip, r3
 8001964:	4051      	eors	r1, r2
 8001966:	f8c0 12c4 	str.w	r1, [r0, #708]	; 0x2c4
 800196a:	ea97 0104 	eors.w	r1, r7, r4
 800196e:	ea03 0204 	and.w	r2, r3, r4
 8001972:	4051      	eors	r1, r2
 8001974:	ea03 0209 	and.w	r2, r3, r9
 8001978:	4051      	eors	r1, r2
 800197a:	ea08 0204 	and.w	r2, r8, r4
 800197e:	4051      	eors	r1, r2
 8001980:	f8c0 12f0 	str.w	r1, [r0, #752]	; 0x2f0
 8001984:	f8d0 70a0 	ldr.w	r7, [r0, #160]	; 0xa0
 8001988:	f8d0 14b0 	ldr.w	r1, [r0, #1200]	; 0x4b0
 800198c:	68c3      	ldr	r3, [r0, #12]
 800198e:	f8d0 24bc 	ldr.w	r2, [r0, #1212]	; 0x4bc
 8001992:	6b84      	ldr	r4, [r0, #56]	; 0x38
 8001994:	f8d0 e4c0 	ldr.w	lr, [r0, #1216]	; 0x4c0
 8001998:	404f      	eors	r7, r1
 800199a:	4053      	eors	r3, r2
 800199c:	ea94 040e 	eors.w	r4, r4, lr
 80019a0:	6ec5      	ldr	r5, [r0, #108]	; 0x6c
 80019a2:	f8d0 14cc 	ldr.w	r1, [r0, #1228]	; 0x4cc
 80019a6:	f8d0 6098 	ldr.w	r6, [r0, #152]	; 0x98
 80019aa:	f8d0 e4d0 	ldr.w	lr, [r0, #1232]	; 0x4d0
 80019ae:	404d      	eors	r5, r1
 80019b0:	ea96 060e 	eors.w	r6, r6, lr
 80019b4:	ea5f 57f7 	movs.w	r7, r7, ror #23
 80019b8:	ea5f 73f3 	movs.w	r3, r3, ror #31
 80019bc:	ea5f 7474 	movs.w	r4, r4, ror #29
 80019c0:	ea5f 45f5 	movs.w	r5, r5, ror #19
 80019c4:	ea5f 7636 	movs.w	r6, r6, ror #28
 80019c8:	ea98 010a 	eors.w	r1, r8, sl
 80019cc:	ea09 020a 	and.w	r2, r9, sl
 80019d0:	4051      	eors	r1, r2
 80019d2:	ea09 0205 	and.w	r2, r9, r5
 80019d6:	4051      	eors	r1, r2
 80019d8:	ea04 020a 	and.w	r2, r4, sl
 80019dc:	4051      	eors	r1, r2
 80019de:	f8c0 13c0 	str.w	r1, [r0, #960]	; 0x3c0
 80019e2:	ea99 010b 	eors.w	r1, r9, fp
 80019e6:	ea0a 020b 	and.w	r2, sl, fp
 80019ea:	4051      	eors	r1, r2
 80019ec:	ea0a 0206 	and.w	r2, sl, r6
 80019f0:	4051      	eors	r1, r2
 80019f2:	ea05 020b 	and.w	r2, r5, fp
 80019f6:	4051      	eors	r1, r2
 80019f8:	f8c0 132c 	str.w	r1, [r0, #812]	; 0x32c
 80019fc:	ea9a 010c 	eors.w	r1, sl, ip
 8001a00:	ea0b 020c 	and.w	r2, fp, ip
 8001a04:	4051      	eors	r1, r2
 8001a06:	ea0b 0207 	and.w	r2, fp, r7
 8001a0a:	4051      	eors	r1, r2
 8001a0c:	ea06 020c 	and.w	r2, r6, ip
 8001a10:	4051      	eors	r1, r2
 8001a12:	f8c0 1358 	str.w	r1, [r0, #856]	; 0x358
 8001a16:	ea9b 0108 	eors.w	r1, fp, r8
 8001a1a:	ea0c 0208 	and.w	r2, ip, r8
 8001a1e:	4051      	eors	r1, r2
 8001a20:	ea0c 0203 	and.w	r2, ip, r3
 8001a24:	4051      	eors	r1, r2
 8001a26:	ea07 0208 	and.w	r2, r7, r8
 8001a2a:	4051      	eors	r1, r2
 8001a2c:	f8c0 138c 	str.w	r1, [r0, #908]	; 0x38c
 8001a30:	ea9c 0109 	eors.w	r1, ip, r9
 8001a34:	ea08 0209 	and.w	r2, r8, r9
 8001a38:	4051      	eors	r1, r2
 8001a3a:	ea08 0204 	and.w	r2, r8, r4
 8001a3e:	4051      	eors	r1, r2
 8001a40:	ea03 0209 	and.w	r2, r3, r9
 8001a44:	4051      	eors	r1, r2
 8001a46:	f8c0 13b8 	str.w	r1, [r0, #952]	; 0x3b8
 8001a4a:	f8d0 c168 	ldr.w	ip, [r0, #360]	; 0x168
 8001a4e:	f8d0 80d4 	ldr.w	r8, [r0, #212]	; 0xd4
 8001a52:	f8d0 9100 	ldr.w	r9, [r0, #256]	; 0x100
 8001a56:	f8d0 a134 	ldr.w	sl, [r0, #308]	; 0x134
 8001a5a:	f8d0 b160 	ldr.w	fp, [r0, #352]	; 0x160
 8001a5e:	ea93 0105 	eors.w	r1, r3, r5
 8001a62:	ea04 0205 	and.w	r2, r4, r5
 8001a66:	4051      	eors	r1, r2
 8001a68:	ea04 020a 	and.w	r2, r4, sl
 8001a6c:	4051      	eors	r1, r2
 8001a6e:	ea09 0205 	and.w	r2, r9, r5
 8001a72:	4051      	eors	r1, r2
 8001a74:	f8c0 1488 	str.w	r1, [r0, #1160]	; 0x488
 8001a78:	ea94 0106 	eors.w	r1, r4, r6
 8001a7c:	ea05 0206 	and.w	r2, r5, r6
 8001a80:	4051      	eors	r1, r2
 8001a82:	ea05 020b 	and.w	r2, r5, fp
 8001a86:	4051      	eors	r1, r2
 8001a88:	ea0a 0206 	and.w	r2, sl, r6
 8001a8c:	4051      	eors	r1, r2
 8001a8e:	f8c0 13f4 	str.w	r1, [r0, #1012]	; 0x3f4
 8001a92:	ea95 0107 	eors.w	r1, r5, r7
 8001a96:	ea06 0207 	and.w	r2, r6, r7
 8001a9a:	4051      	eors	r1, r2
 8001a9c:	ea06 020c 	and.w	r2, r6, ip
 8001aa0:	4051      	eors	r1, r2
 8001aa2:	ea0b 0207 	and.w	r2, fp, r7
 8001aa6:	4051      	eors	r1, r2
 8001aa8:	f8c0 1420 	str.w	r1, [r0, #1056]	; 0x420
 8001aac:	ea96 0103 	eors.w	r1, r6, r3
 8001ab0:	ea07 0203 	and.w	r2, r7, r3
 8001ab4:	4051      	eors	r1, r2
 8001ab6:	ea07 0208 	and.w	r2, r7, r8
 8001aba:	4051      	eors	r1, r2
 8001abc:	ea0c 0203 	and.w	r2, ip, r3
 8001ac0:	4051      	eors	r1, r2
 8001ac2:	f8c0 1454 	str.w	r1, [r0, #1108]	; 0x454
 8001ac6:	ea97 0104 	eors.w	r1, r7, r4
 8001aca:	ea03 0204 	and.w	r2, r3, r4
 8001ace:	4051      	eors	r1, r2
 8001ad0:	ea03 0209 	and.w	r2, r3, r9
 8001ad4:	4051      	eors	r1, r2
 8001ad6:	ea08 0204 	and.w	r2, r8, r4
 8001ada:	4051      	eors	r1, r2
 8001adc:	f8c0 1480 	str.w	r1, [r0, #1152]	; 0x480
 8001ae0:	e8bd 5f04 	ldmia.w	sp!, {r2, r8, r9, sl, fp, ip, lr}
 8001ae4:	f8d0 84dc 	ldr.w	r8, [r0, #1244]	; 0x4dc
 8001ae8:	e92d 5f04 	stmdb	sp!, {r2, r8, r9, sl, fp, ip, lr}
 8001aec:	f8d0 40f4 	ldr.w	r4, [r0, #244]	; 0xf4
 8001af0:	f8d0 5124 	ldr.w	r5, [r0, #292]	; 0x124
 8001af4:	f8d0 6150 	ldr.w	r6, [r0, #336]	; 0x150
 8001af8:	f8d0 7184 	ldr.w	r7, [r0, #388]	; 0x184
 8001afc:	f8d0 30e8 	ldr.w	r3, [r0, #232]	; 0xe8
 8001b00:	ea94 0408 	eors.w	r4, r4, r8
 8001b04:	ea95 050b 	eors.w	r5, r5, fp
 8001b08:	4056      	eors	r6, r2
 8001b0a:	ea97 0709 	eors.w	r7, r7, r9
 8001b0e:	ea93 030c 	eors.w	r3, r3, ip
 8001b12:	ea5f 34b4 	movs.w	r4, r4, ror #14
 8001b16:	ea5f 65f5 	movs.w	r5, r5, ror #27
 8001b1a:	ea5f 6676 	movs.w	r6, r6, ror #25
 8001b1e:	ea5f 1737 	movs.w	r7, r7, ror #4
 8001b22:	ea5f 43f3 	movs.w	r3, r3, ror #19
 8001b26:	f8c0 40f4 	str.w	r4, [r0, #244]	; 0xf4
 8001b2a:	f8c0 5124 	str.w	r5, [r0, #292]	; 0x124
 8001b2e:	f8c0 6150 	str.w	r6, [r0, #336]	; 0x150
 8001b32:	f8c0 7184 	str.w	r7, [r0, #388]	; 0x184
 8001b36:	f8c0 30e8 	str.w	r3, [r0, #232]	; 0xe8
 8001b3a:	f8d0 91bc 	ldr.w	r9, [r0, #444]	; 0x1bc
 8001b3e:	f8d0 1504 	ldr.w	r1, [r0, #1284]	; 0x504
 8001b42:	f8d0 a1ec 	ldr.w	sl, [r0, #492]	; 0x1ec
 8001b46:	f8d0 250c 	ldr.w	r2, [r0, #1292]	; 0x50c
 8001b4a:	f8d0 b218 	ldr.w	fp, [r0, #536]	; 0x218
 8001b4e:	f8d0 e510 	ldr.w	lr, [r0, #1296]	; 0x510
 8001b52:	ea99 0901 	eors.w	r9, r9, r1
 8001b56:	ea9a 0a02 	eors.w	sl, sl, r2
 8001b5a:	ea9b 0b0e 	eors.w	fp, fp, lr
 8001b5e:	f8d0 c24c 	ldr.w	ip, [r0, #588]	; 0x24c
 8001b62:	f8d0 151c 	ldr.w	r1, [r0, #1308]	; 0x51c
 8001b66:	f8d0 81b0 	ldr.w	r8, [r0, #432]	; 0x1b0
 8001b6a:	f8d0 e520 	ldr.w	lr, [r0, #1312]	; 0x520
 8001b6e:	ea9c 0c01 	eors.w	ip, ip, r1
 8001b72:	ea98 080e 	eors.w	r8, r8, lr
 8001b76:	ea5f 39b9 	movs.w	r9, r9, ror #14
 8001b7a:	ea5f 6afa 	movs.w	sl, sl, ror #27
 8001b7e:	ea5f 6b7b 	movs.w	fp, fp, ror #25
 8001b82:	ea5f 1c3c 	movs.w	ip, ip, ror #4
 8001b86:	ea5f 48f8 	movs.w	r8, r8, ror #19
 8001b8a:	ea93 0105 	eors.w	r1, r3, r5
 8001b8e:	ea04 0205 	and.w	r2, r4, r5
 8001b92:	4051      	eors	r1, r2
 8001b94:	ea04 020a 	and.w	r2, r4, sl
 8001b98:	4051      	eors	r1, r2
 8001b9a:	ea09 0205 	and.w	r2, r9, r5
 8001b9e:	4051      	eors	r1, r2
 8001ba0:	f8c0 1284 	str.w	r1, [r0, #644]	; 0x284
 8001ba4:	ea94 0106 	eors.w	r1, r4, r6
 8001ba8:	ea05 0206 	and.w	r2, r5, r6
 8001bac:	4051      	eors	r1, r2
 8001bae:	ea05 020b 	and.w	r2, r5, fp
 8001bb2:	4051      	eors	r1, r2
 8001bb4:	ea0a 0206 	and.w	r2, sl, r6
 8001bb8:	4051      	eors	r1, r2
 8001bba:	f8c0 12b4 	str.w	r1, [r0, #692]	; 0x2b4
 8001bbe:	ea95 0107 	eors.w	r1, r5, r7
 8001bc2:	ea06 0207 	and.w	r2, r6, r7
 8001bc6:	4051      	eors	r1, r2
 8001bc8:	ea06 020c 	and.w	r2, r6, ip
 8001bcc:	4051      	eors	r1, r2
 8001bce:	ea0b 0207 	and.w	r2, fp, r7
 8001bd2:	4051      	eors	r1, r2
 8001bd4:	f8c0 12e0 	str.w	r1, [r0, #736]	; 0x2e0
 8001bd8:	ea96 0103 	eors.w	r1, r6, r3
 8001bdc:	ea07 0203 	and.w	r2, r7, r3
 8001be0:	4051      	eors	r1, r2
 8001be2:	ea07 0208 	and.w	r2, r7, r8
 8001be6:	4051      	eors	r1, r2
 8001be8:	ea0c 0203 	and.w	r2, ip, r3
 8001bec:	4051      	eors	r1, r2
 8001bee:	f8c0 1314 	str.w	r1, [r0, #788]	; 0x314
 8001bf2:	ea97 0104 	eors.w	r1, r7, r4
 8001bf6:	ea03 0204 	and.w	r2, r3, r4
 8001bfa:	4051      	eors	r1, r2
 8001bfc:	ea03 0209 	and.w	r2, r3, r9
 8001c00:	4051      	eors	r1, r2
 8001c02:	ea08 0204 	and.w	r2, r8, r4
 8001c06:	4051      	eors	r1, r2
 8001c08:	f8c0 1278 	str.w	r1, [r0, #632]	; 0x278
 8001c0c:	6ac4      	ldr	r4, [r0, #44]	; 0x2c
 8001c0e:	f8d0 14b4 	ldr.w	r1, [r0, #1204]	; 0x4b4
 8001c12:	6dc5      	ldr	r5, [r0, #92]	; 0x5c
 8001c14:	f8d0 24bc 	ldr.w	r2, [r0, #1212]	; 0x4bc
 8001c18:	f8d0 6088 	ldr.w	r6, [r0, #136]	; 0x88
 8001c1c:	f8d0 e4c0 	ldr.w	lr, [r0, #1216]	; 0x4c0
 8001c20:	404c      	eors	r4, r1
 8001c22:	4055      	eors	r5, r2
 8001c24:	ea96 060e 	eors.w	r6, r6, lr
 8001c28:	f8d0 70bc 	ldr.w	r7, [r0, #188]	; 0xbc
 8001c2c:	f8d0 14cc 	ldr.w	r1, [r0, #1228]	; 0x4cc
 8001c30:	6a03      	ldr	r3, [r0, #32]
 8001c32:	f8d0 e4d0 	ldr.w	lr, [r0, #1232]	; 0x4d0
 8001c36:	404f      	eors	r7, r1
 8001c38:	ea93 030e 	eors.w	r3, r3, lr
 8001c3c:	ea5f 34b4 	movs.w	r4, r4, ror #14
 8001c40:	ea5f 65f5 	movs.w	r5, r5, ror #27
 8001c44:	ea5f 6676 	movs.w	r6, r6, ror #25
 8001c48:	ea5f 1737 	movs.w	r7, r7, ror #4
 8001c4c:	ea5f 43f3 	movs.w	r3, r3, ror #19
 8001c50:	ea98 010a 	eors.w	r1, r8, sl
 8001c54:	ea09 020a 	and.w	r2, r9, sl
 8001c58:	4051      	eors	r1, r2
 8001c5a:	ea09 0205 	and.w	r2, r9, r5
 8001c5e:	4051      	eors	r1, r2
 8001c60:	ea04 020a 	and.w	r2, r4, sl
 8001c64:	4051      	eors	r1, r2
 8001c66:	f8c0 134c 	str.w	r1, [r0, #844]	; 0x34c
 8001c6a:	ea99 010b 	eors.w	r1, r9, fp
 8001c6e:	ea0a 020b 	and.w	r2, sl, fp
 8001c72:	4051      	eors	r1, r2
 8001c74:	ea0a 0206 	and.w	r2, sl, r6
 8001c78:	4051      	eors	r1, r2
 8001c7a:	ea05 020b 	and.w	r2, r5, fp
 8001c7e:	4051      	eors	r1, r2
 8001c80:	f8c0 137c 	str.w	r1, [r0, #892]	; 0x37c
 8001c84:	ea9a 010c 	eors.w	r1, sl, ip
 8001c88:	ea0b 020c 	and.w	r2, fp, ip
 8001c8c:	4051      	eors	r1, r2
 8001c8e:	ea0b 0207 	and.w	r2, fp, r7
 8001c92:	4051      	eors	r1, r2
 8001c94:	ea06 020c 	and.w	r2, r6, ip
 8001c98:	4051      	eors	r1, r2
 8001c9a:	f8c0 13a8 	str.w	r1, [r0, #936]	; 0x3a8
 8001c9e:	ea9b 0108 	eors.w	r1, fp, r8
 8001ca2:	ea0c 0208 	and.w	r2, ip, r8
 8001ca6:	4051      	eors	r1, r2
 8001ca8:	ea0c 0203 	and.w	r2, ip, r3
 8001cac:	4051      	eors	r1, r2
 8001cae:	ea07 0208 	and.w	r2, r7, r8
 8001cb2:	4051      	eors	r1, r2
 8001cb4:	f8c0 13dc 	str.w	r1, [r0, #988]	; 0x3dc
 8001cb8:	ea9c 0109 	eors.w	r1, ip, r9
 8001cbc:	ea08 0209 	and.w	r2, r8, r9
 8001cc0:	4051      	eors	r1, r2
 8001cc2:	ea08 0204 	and.w	r2, r8, r4
 8001cc6:	4051      	eors	r1, r2
 8001cc8:	ea03 0209 	and.w	r2, r3, r9
 8001ccc:	4051      	eors	r1, r2
 8001cce:	f8c0 1340 	str.w	r1, [r0, #832]	; 0x340
 8001cd2:	f8d0 90f4 	ldr.w	r9, [r0, #244]	; 0xf4
 8001cd6:	f8d0 a124 	ldr.w	sl, [r0, #292]	; 0x124
 8001cda:	f8d0 b150 	ldr.w	fp, [r0, #336]	; 0x150
 8001cde:	f8d0 c184 	ldr.w	ip, [r0, #388]	; 0x184
 8001ce2:	f8d0 80e8 	ldr.w	r8, [r0, #232]	; 0xe8
 8001ce6:	ea93 0105 	eors.w	r1, r3, r5
 8001cea:	ea04 0205 	and.w	r2, r4, r5
 8001cee:	4051      	eors	r1, r2
 8001cf0:	ea04 020a 	and.w	r2, r4, sl
 8001cf4:	4051      	eors	r1, r2
 8001cf6:	ea09 0205 	and.w	r2, r9, r5
 8001cfa:	4051      	eors	r1, r2
 8001cfc:	f8c0 1414 	str.w	r1, [r0, #1044]	; 0x414
 8001d00:	ea94 0106 	eors.w	r1, r4, r6
 8001d04:	ea05 0206 	and.w	r2, r5, r6
 8001d08:	4051      	eors	r1, r2
 8001d0a:	ea05 020b 	and.w	r2, r5, fp
 8001d0e:	4051      	eors	r1, r2
 8001d10:	ea0a 0206 	and.w	r2, sl, r6
 8001d14:	4051      	eors	r1, r2
 8001d16:	f8c0 1444 	str.w	r1, [r0, #1092]	; 0x444
 8001d1a:	ea95 0107 	eors.w	r1, r5, r7
 8001d1e:	ea06 0207 	and.w	r2, r6, r7
 8001d22:	4051      	eors	r1, r2
 8001d24:	ea06 020c 	and.w	r2, r6, ip
 8001d28:	4051      	eors	r1, r2
 8001d2a:	ea0b 0207 	and.w	r2, fp, r7
 8001d2e:	4051      	eors	r1, r2
 8001d30:	f8c0 1470 	str.w	r1, [r0, #1136]	; 0x470
 8001d34:	ea96 0103 	eors.w	r1, r6, r3
 8001d38:	ea07 0203 	and.w	r2, r7, r3
 8001d3c:	4051      	eors	r1, r2
 8001d3e:	ea07 0208 	and.w	r2, r7, r8
 8001d42:	4051      	eors	r1, r2
 8001d44:	ea0c 0203 	and.w	r2, ip, r3
 8001d48:	4051      	eors	r1, r2
 8001d4a:	f8c0 14a4 	str.w	r1, [r0, #1188]	; 0x4a4
 8001d4e:	ea97 0104 	eors.w	r1, r7, r4
 8001d52:	ea03 0204 	and.w	r2, r3, r4
 8001d56:	4051      	eors	r1, r2
 8001d58:	ea03 0209 	and.w	r2, r3, r9
 8001d5c:	4051      	eors	r1, r2
 8001d5e:	ea08 0204 	and.w	r2, r8, r4
 8001d62:	4051      	eors	r1, r2
 8001d64:	f8c0 1408 	str.w	r1, [r0, #1032]	; 0x408
 8001d68:	e8bd 5f04 	ldmia.w	sp!, {r2, r8, r9, sl, fp, ip, lr}
 8001d6c:	e92d 5f04 	stmdb	sp!, {r2, r8, r9, sl, fp, ip, lr}
 8001d70:	f8d0 6144 	ldr.w	r6, [r0, #324]	; 0x144
 8001d74:	f8d0 7170 	ldr.w	r7, [r0, #368]	; 0x170
 8001d78:	f8d0 30d8 	ldr.w	r3, [r0, #216]	; 0xd8
 8001d7c:	f8d0 410c 	ldr.w	r4, [r0, #268]	; 0x10c
 8001d80:	f8d0 513c 	ldr.w	r5, [r0, #316]	; 0x13c
 8001d84:	ea96 0608 	eors.w	r6, r6, r8
 8001d88:	ea97 070a 	eors.w	r7, r7, sl
 8001d8c:	4053      	eors	r3, r2
 8001d8e:	ea94 0409 	eors.w	r4, r4, r9
 8001d92:	ea95 050e 	eors.w	r5, r5, lr
 8001d96:	ea5f 26f6 	movs.w	r6, r6, ror #11
 8001d9a:	ea5f 77f7 	movs.w	r7, r7, ror #31
 8001d9e:	ea5f 0373 	movs.w	r3, r3, ror #1
 8001da2:	ea5f 1434 	movs.w	r4, r4, ror #4
 8001da6:	ea5f 3535 	movs.w	r5, r5, ror #12
 8001daa:	f8c0 6144 	str.w	r6, [r0, #324]	; 0x144
 8001dae:	f8c0 7170 	str.w	r7, [r0, #368]	; 0x170
 8001db2:	f8c0 30d8 	str.w	r3, [r0, #216]	; 0xd8
 8001db6:	f8c0 410c 	str.w	r4, [r0, #268]	; 0x10c
 8001dba:	f8c0 513c 	str.w	r5, [r0, #316]	; 0x13c
 8001dbe:	f8d0 b20c 	ldr.w	fp, [r0, #524]	; 0x20c
 8001dc2:	f8d0 1504 	ldr.w	r1, [r0, #1284]	; 0x504
 8001dc6:	f8d0 c238 	ldr.w	ip, [r0, #568]	; 0x238
 8001dca:	f8d0 2508 	ldr.w	r2, [r0, #1288]	; 0x508
 8001dce:	f8d0 81a0 	ldr.w	r8, [r0, #416]	; 0x1a0
 8001dd2:	f8d0 e510 	ldr.w	lr, [r0, #1296]	; 0x510
 8001dd6:	ea9b 0b01 	eors.w	fp, fp, r1
 8001dda:	ea9c 0c02 	eors.w	ip, ip, r2
 8001dde:	ea98 080e 	eors.w	r8, r8, lr
 8001de2:	f8d0 91d4 	ldr.w	r9, [r0, #468]	; 0x1d4
 8001de6:	f8d0 151c 	ldr.w	r1, [r0, #1308]	; 0x51c
 8001dea:	f8d0 a204 	ldr.w	sl, [r0, #516]	; 0x204
 8001dee:	f8d0 e524 	ldr.w	lr, [r0, #1316]	; 0x524
 8001df2:	ea99 0901 	eors.w	r9, r9, r1
 8001df6:	ea9a 0a0e 	eors.w	sl, sl, lr
 8001dfa:	ea5f 2bfb 	movs.w	fp, fp, ror #11
 8001dfe:	ea5f 7cfc 	movs.w	ip, ip, ror #31
 8001e02:	ea5f 0878 	movs.w	r8, r8, ror #1
 8001e06:	ea5f 1939 	movs.w	r9, r9, ror #4
 8001e0a:	ea5f 3a3a 	movs.w	sl, sl, ror #12
 8001e0e:	ea93 0105 	eors.w	r1, r3, r5
 8001e12:	ea04 0205 	and.w	r2, r4, r5
 8001e16:	4051      	eors	r1, r2
 8001e18:	ea04 020a 	and.w	r2, r4, sl
 8001e1c:	4051      	eors	r1, r2
 8001e1e:	ea09 0205 	and.w	r2, r9, r5
 8001e22:	4051      	eors	r1, r2
 8001e24:	f8c0 12d4 	str.w	r1, [r0, #724]	; 0x2d4
 8001e28:	ea94 0106 	eors.w	r1, r4, r6
 8001e2c:	ea05 0206 	and.w	r2, r5, r6
 8001e30:	4051      	eors	r1, r2
 8001e32:	ea05 020b 	and.w	r2, r5, fp
 8001e36:	4051      	eors	r1, r2
 8001e38:	ea0a 0206 	and.w	r2, sl, r6
 8001e3c:	4051      	eors	r1, r2
 8001e3e:	f8c0 1300 	str.w	r1, [r0, #768]	; 0x300
 8001e42:	ea95 0107 	eors.w	r1, r5, r7
 8001e46:	ea06 0207 	and.w	r2, r6, r7
 8001e4a:	4051      	eors	r1, r2
 8001e4c:	ea06 020c 	and.w	r2, r6, ip
 8001e50:	4051      	eors	r1, r2
 8001e52:	ea0b 0207 	and.w	r2, fp, r7
 8001e56:	4051      	eors	r1, r2
 8001e58:	f8c0 1268 	str.w	r1, [r0, #616]	; 0x268
 8001e5c:	ea96 0103 	eors.w	r1, r6, r3
 8001e60:	ea07 0203 	and.w	r2, r7, r3
 8001e64:	4051      	eors	r1, r2
 8001e66:	ea07 0208 	and.w	r2, r7, r8
 8001e6a:	4051      	eors	r1, r2
 8001e6c:	ea0c 0203 	and.w	r2, ip, r3
 8001e70:	4051      	eors	r1, r2
 8001e72:	f8c0 129c 	str.w	r1, [r0, #668]	; 0x29c
 8001e76:	ea97 0104 	eors.w	r1, r7, r4
 8001e7a:	ea03 0204 	and.w	r2, r3, r4
 8001e7e:	4051      	eors	r1, r2
 8001e80:	ea03 0209 	and.w	r2, r3, r9
 8001e84:	4051      	eors	r1, r2
 8001e86:	ea08 0204 	and.w	r2, r8, r4
 8001e8a:	4051      	eors	r1, r2
 8001e8c:	f8c0 12cc 	str.w	r1, [r0, #716]	; 0x2cc
 8001e90:	6fc6      	ldr	r6, [r0, #124]	; 0x7c
 8001e92:	f8d0 14b4 	ldr.w	r1, [r0, #1204]	; 0x4b4
 8001e96:	f8d0 70a8 	ldr.w	r7, [r0, #168]	; 0xa8
 8001e9a:	f8d0 24b8 	ldr.w	r2, [r0, #1208]	; 0x4b8
 8001e9e:	6903      	ldr	r3, [r0, #16]
 8001ea0:	f8d0 e4c0 	ldr.w	lr, [r0, #1216]	; 0x4c0
 8001ea4:	404e      	eors	r6, r1
 8001ea6:	4057      	eors	r7, r2
 8001ea8:	ea93 030e 	eors.w	r3, r3, lr
 8001eac:	6c44      	ldr	r4, [r0, #68]	; 0x44
 8001eae:	f8d0 14cc 	ldr.w	r1, [r0, #1228]	; 0x4cc
 8001eb2:	6f45      	ldr	r5, [r0, #116]	; 0x74
 8001eb4:	f8d0 e4d4 	ldr.w	lr, [r0, #1236]	; 0x4d4
 8001eb8:	404c      	eors	r4, r1
 8001eba:	ea95 050e 	eors.w	r5, r5, lr
 8001ebe:	ea5f 26f6 	movs.w	r6, r6, ror #11
 8001ec2:	ea5f 77f7 	movs.w	r7, r7, ror #31
 8001ec6:	ea5f 0373 	movs.w	r3, r3, ror #1
 8001eca:	ea5f 1434 	movs.w	r4, r4, ror #4
 8001ece:	ea5f 3535 	movs.w	r5, r5, ror #12
 8001ed2:	ea98 010a 	eors.w	r1, r8, sl
 8001ed6:	ea09 020a 	and.w	r2, r9, sl
 8001eda:	4051      	eors	r1, r2
 8001edc:	ea09 0205 	and.w	r2, r9, r5
 8001ee0:	4051      	eors	r1, r2
 8001ee2:	ea04 020a 	and.w	r2, r4, sl
 8001ee6:	4051      	eors	r1, r2
 8001ee8:	f8c0 139c 	str.w	r1, [r0, #924]	; 0x39c
 8001eec:	ea99 010b 	eors.w	r1, r9, fp
 8001ef0:	ea0a 020b 	and.w	r2, sl, fp
 8001ef4:	4051      	eors	r1, r2
 8001ef6:	ea0a 0206 	and.w	r2, sl, r6
 8001efa:	4051      	eors	r1, r2
 8001efc:	ea05 020b 	and.w	r2, r5, fp
 8001f00:	4051      	eors	r1, r2
 8001f02:	f8c0 13c8 	str.w	r1, [r0, #968]	; 0x3c8
 8001f06:	ea9a 010c 	eors.w	r1, sl, ip
 8001f0a:	ea0b 020c 	and.w	r2, fp, ip
 8001f0e:	4051      	eors	r1, r2
 8001f10:	ea0b 0207 	and.w	r2, fp, r7
 8001f14:	4051      	eors	r1, r2
 8001f16:	ea06 020c 	and.w	r2, r6, ip
 8001f1a:	4051      	eors	r1, r2
 8001f1c:	f8c0 1330 	str.w	r1, [r0, #816]	; 0x330
 8001f20:	ea9b 0108 	eors.w	r1, fp, r8
 8001f24:	ea0c 0208 	and.w	r2, ip, r8
 8001f28:	4051      	eors	r1, r2
 8001f2a:	ea0c 0203 	and.w	r2, ip, r3
 8001f2e:	4051      	eors	r1, r2
 8001f30:	ea07 0208 	and.w	r2, r7, r8
 8001f34:	4051      	eors	r1, r2
 8001f36:	f8c0 1364 	str.w	r1, [r0, #868]	; 0x364
 8001f3a:	ea9c 0109 	eors.w	r1, ip, r9
 8001f3e:	ea08 0209 	and.w	r2, r8, r9
 8001f42:	4051      	eors	r1, r2
 8001f44:	ea08 0204 	and.w	r2, r8, r4
 8001f48:	4051      	eors	r1, r2
 8001f4a:	ea03 0209 	and.w	r2, r3, r9
 8001f4e:	4051      	eors	r1, r2
 8001f50:	f8c0 1394 	str.w	r1, [r0, #916]	; 0x394
 8001f54:	f8d0 b144 	ldr.w	fp, [r0, #324]	; 0x144
 8001f58:	f8d0 c170 	ldr.w	ip, [r0, #368]	; 0x170
 8001f5c:	f8d0 80d8 	ldr.w	r8, [r0, #216]	; 0xd8
 8001f60:	f8d0 910c 	ldr.w	r9, [r0, #268]	; 0x10c
 8001f64:	f8d0 a13c 	ldr.w	sl, [r0, #316]	; 0x13c
 8001f68:	ea93 0105 	eors.w	r1, r3, r5
 8001f6c:	ea04 0205 	and.w	r2, r4, r5
 8001f70:	4051      	eors	r1, r2
 8001f72:	ea04 020a 	and.w	r2, r4, sl
 8001f76:	4051      	eors	r1, r2
 8001f78:	ea09 0205 	and.w	r2, r9, r5
 8001f7c:	4051      	eors	r1, r2
 8001f7e:	f8c0 1464 	str.w	r1, [r0, #1124]	; 0x464
 8001f82:	ea94 0106 	eors.w	r1, r4, r6
 8001f86:	ea05 0206 	and.w	r2, r5, r6
 8001f8a:	4051      	eors	r1, r2
 8001f8c:	ea05 020b 	and.w	r2, r5, fp
 8001f90:	4051      	eors	r1, r2
 8001f92:	ea0a 0206 	and.w	r2, sl, r6
 8001f96:	4051      	eors	r1, r2
 8001f98:	f8c0 1490 	str.w	r1, [r0, #1168]	; 0x490
 8001f9c:	ea95 0107 	eors.w	r1, r5, r7
 8001fa0:	ea06 0207 	and.w	r2, r6, r7
 8001fa4:	4051      	eors	r1, r2
 8001fa6:	ea06 020c 	and.w	r2, r6, ip
 8001faa:	4051      	eors	r1, r2
 8001fac:	ea0b 0207 	and.w	r2, fp, r7
 8001fb0:	4051      	eors	r1, r2
 8001fb2:	f8c0 13f8 	str.w	r1, [r0, #1016]	; 0x3f8
 8001fb6:	ea96 0103 	eors.w	r1, r6, r3
 8001fba:	ea07 0203 	and.w	r2, r7, r3
 8001fbe:	4051      	eors	r1, r2
 8001fc0:	ea07 0208 	and.w	r2, r7, r8
 8001fc4:	4051      	eors	r1, r2
 8001fc6:	ea0c 0203 	and.w	r2, ip, r3
 8001fca:	4051      	eors	r1, r2
 8001fcc:	f8c0 142c 	str.w	r1, [r0, #1068]	; 0x42c
 8001fd0:	ea97 0104 	eors.w	r1, r7, r4
 8001fd4:	ea03 0204 	and.w	r2, r3, r4
 8001fd8:	4051      	eors	r1, r2
 8001fda:	ea03 0209 	and.w	r2, r3, r9
 8001fde:	4051      	eors	r1, r2
 8001fe0:	ea08 0204 	and.w	r2, r8, r4
 8001fe4:	4051      	eors	r1, r2
 8001fe6:	f8c0 145c 	str.w	r1, [r0, #1116]	; 0x45c
 8001fea:	e8bd 5f04 	ldmia.w	sp!, {r2, r8, r9, sl, fp, ip, lr}
 8001fee:	f8d0 94f0 	ldr.w	r9, [r0, #1264]	; 0x4f0
 8001ff2:	e92d 5f04 	stmdb	sp!, {r2, r8, r9, sl, fp, ip, lr}
 8001ff6:	f8d0 30cc 	ldr.w	r3, [r0, #204]	; 0xcc
 8001ffa:	f8d0 40fc 	ldr.w	r4, [r0, #252]	; 0xfc
 8001ffe:	f8d0 5128 	ldr.w	r5, [r0, #296]	; 0x128
 8002002:	f8d0 6158 	ldr.w	r6, [r0, #344]	; 0x158
 8002006:	f8d0 718c 	ldr.w	r7, [r0, #396]	; 0x18c
 800200a:	ea93 0308 	eors.w	r3, r3, r8
 800200e:	ea94 040b 	eors.w	r4, r4, fp
 8002012:	4055      	eors	r5, r2
 8002014:	ea96 0609 	eors.w	r6, r6, r9
 8002018:	ea97 070e 	eors.w	r7, r7, lr
 800201c:	ea5f 24b4 	movs.w	r4, r4, ror #10
 8002020:	ea5f 25f5 	movs.w	r5, r5, ror #11
 8002024:	ea5f 56b6 	movs.w	r6, r6, ror #22
 8002028:	ea5f 6777 	movs.w	r7, r7, ror #25
 800202c:	f8c0 30cc 	str.w	r3, [r0, #204]	; 0xcc
 8002030:	f8c0 40fc 	str.w	r4, [r0, #252]	; 0xfc
 8002034:	f8c0 5128 	str.w	r5, [r0, #296]	; 0x128
 8002038:	f8c0 6158 	str.w	r6, [r0, #344]	; 0x158
 800203c:	f8c0 718c 	str.w	r7, [r0, #396]	; 0x18c
 8002040:	f8d0 8194 	ldr.w	r8, [r0, #404]	; 0x194
 8002044:	f8d0 1504 	ldr.w	r1, [r0, #1284]	; 0x504
 8002048:	f8d0 91c4 	ldr.w	r9, [r0, #452]	; 0x1c4
 800204c:	f8d0 250c 	ldr.w	r2, [r0, #1292]	; 0x50c
 8002050:	f8d0 a1f0 	ldr.w	sl, [r0, #496]	; 0x1f0
 8002054:	f8d0 e510 	ldr.w	lr, [r0, #1296]	; 0x510
 8002058:	ea98 0801 	eors.w	r8, r8, r1
 800205c:	ea99 0902 	eors.w	r9, r9, r2
 8002060:	ea9a 0a0e 	eors.w	sl, sl, lr
 8002064:	f8d0 b220 	ldr.w	fp, [r0, #544]	; 0x220
 8002068:	f8d0 1518 	ldr.w	r1, [r0, #1304]	; 0x518
 800206c:	f8d0 c254 	ldr.w	ip, [r0, #596]	; 0x254
 8002070:	f8d0 e524 	ldr.w	lr, [r0, #1316]	; 0x524
 8002074:	ea9b 0b01 	eors.w	fp, fp, r1
 8002078:	ea9c 0c0e 	eors.w	ip, ip, lr
 800207c:	ea5f 29b9 	movs.w	r9, r9, ror #10
 8002080:	ea5f 2afa 	movs.w	sl, sl, ror #11
 8002084:	ea5f 5bbb 	movs.w	fp, fp, ror #22
 8002088:	ea5f 6c7c 	movs.w	ip, ip, ror #25
 800208c:	ea93 0105 	eors.w	r1, r3, r5
 8002090:	ea04 0205 	and.w	r2, r4, r5
 8002094:	4051      	eors	r1, r2
 8002096:	ea04 020a 	and.w	r2, r4, sl
 800209a:	4051      	eors	r1, r2
 800209c:	ea09 0205 	and.w	r2, r9, r5
 80020a0:	4051      	eors	r1, r2
 80020a2:	f8c0 125c 	str.w	r1, [r0, #604]	; 0x25c
 80020a6:	ea94 0106 	eors.w	r1, r4, r6
 80020aa:	ea05 0206 	and.w	r2, r5, r6
 80020ae:	4051      	eors	r1, r2
 80020b0:	ea05 020b 	and.w	r2, r5, fp
 80020b4:	4051      	eors	r1, r2
 80020b6:	ea0a 0206 	and.w	r2, sl, r6
 80020ba:	4051      	eors	r1, r2
 80020bc:	f8c0 128c 	str.w	r1, [r0, #652]	; 0x28c
 80020c0:	ea95 0107 	eors.w	r1, r5, r7
 80020c4:	ea06 0207 	and.w	r2, r6, r7
 80020c8:	4051      	eors	r1, r2
 80020ca:	ea06 020c 	and.w	r2, r6, ip
 80020ce:	4051      	eors	r1, r2
 80020d0:	ea0b 0207 	and.w	r2, fp, r7
 80020d4:	4051      	eors	r1, r2
 80020d6:	f8c0 12b8 	str.w	r1, [r0, #696]	; 0x2b8
 80020da:	ea96 0103 	eors.w	r1, r6, r3
 80020de:	ea07 0203 	and.w	r2, r7, r3
 80020e2:	4051      	eors	r1, r2
 80020e4:	ea07 0208 	and.w	r2, r7, r8
 80020e8:	4051      	eors	r1, r2
 80020ea:	ea0c 0203 	and.w	r2, ip, r3
 80020ee:	4051      	eors	r1, r2
 80020f0:	f8c0 12e8 	str.w	r1, [r0, #744]	; 0x2e8
 80020f4:	ea97 0104 	eors.w	r1, r7, r4
 80020f8:	ea03 0204 	and.w	r2, r3, r4
 80020fc:	4051      	eors	r1, r2
 80020fe:	ea03 0209 	and.w	r2, r3, r9
 8002102:	4051      	eors	r1, r2
 8002104:	ea08 0204 	and.w	r2, r8, r4
 8002108:	4051      	eors	r1, r2
 800210a:	f8c0 131c 	str.w	r1, [r0, #796]	; 0x31c
 800210e:	6843      	ldr	r3, [r0, #4]
 8002110:	f8d0 14b4 	ldr.w	r1, [r0, #1204]	; 0x4b4
 8002114:	6b44      	ldr	r4, [r0, #52]	; 0x34
 8002116:	f8d0 24bc 	ldr.w	r2, [r0, #1212]	; 0x4bc
 800211a:	6e05      	ldr	r5, [r0, #96]	; 0x60
 800211c:	f8d0 e4c0 	ldr.w	lr, [r0, #1216]	; 0x4c0
 8002120:	404b      	eors	r3, r1
 8002122:	4054      	eors	r4, r2
 8002124:	ea95 050e 	eors.w	r5, r5, lr
 8002128:	f8d0 6090 	ldr.w	r6, [r0, #144]	; 0x90
 800212c:	f8d0 14c8 	ldr.w	r1, [r0, #1224]	; 0x4c8
 8002130:	f8d0 70c4 	ldr.w	r7, [r0, #196]	; 0xc4
 8002134:	f8d0 e4d4 	ldr.w	lr, [r0, #1236]	; 0x4d4
 8002138:	404e      	eors	r6, r1
 800213a:	ea97 070e 	eors.w	r7, r7, lr
 800213e:	ea5f 24b4 	movs.w	r4, r4, ror #10
 8002142:	ea5f 25f5 	movs.w	r5, r5, ror #11
 8002146:	ea5f 56b6 	movs.w	r6, r6, ror #22
 800214a:	ea5f 6777 	movs.w	r7, r7, ror #25
 800214e:	ea98 010a 	eors.w	r1, r8, sl
 8002152:	ea09 020a 	and.w	r2, r9, sl
 8002156:	4051      	eors	r1, r2
 8002158:	ea09 0205 	and.w	r2, r9, r5
 800215c:	4051      	eors	r1, r2
 800215e:	ea04 020a 	and.w	r2, r4, sl
 8002162:	4051      	eors	r1, r2
 8002164:	f8c0 1324 	str.w	r1, [r0, #804]	; 0x324
 8002168:	ea99 010b 	eors.w	r1, r9, fp
 800216c:	ea0a 020b 	and.w	r2, sl, fp
 8002170:	4051      	eors	r1, r2
 8002172:	ea0a 0206 	and.w	r2, sl, r6
 8002176:	4051      	eors	r1, r2
 8002178:	ea05 020b 	and.w	r2, r5, fp
 800217c:	4051      	eors	r1, r2
 800217e:	f8c0 1354 	str.w	r1, [r0, #852]	; 0x354
 8002182:	ea9a 010c 	eors.w	r1, sl, ip
 8002186:	ea0b 020c 	and.w	r2, fp, ip
 800218a:	4051      	eors	r1, r2
 800218c:	ea0b 0207 	and.w	r2, fp, r7
 8002190:	4051      	eors	r1, r2
 8002192:	ea06 020c 	and.w	r2, r6, ip
 8002196:	4051      	eors	r1, r2
 8002198:	f8c0 1380 	str.w	r1, [r0, #896]	; 0x380
 800219c:	ea9b 0108 	eors.w	r1, fp, r8
 80021a0:	ea0c 0208 	and.w	r2, ip, r8
 80021a4:	4051      	eors	r1, r2
 80021a6:	ea0c 0203 	and.w	r2, ip, r3
 80021aa:	4051      	eors	r1, r2
 80021ac:	ea07 0208 	and.w	r2, r7, r8
 80021b0:	4051      	eors	r1, r2
 80021b2:	f8c0 13b0 	str.w	r1, [r0, #944]	; 0x3b0
 80021b6:	ea9c 0109 	eors.w	r1, ip, r9
 80021ba:	ea08 0209 	and.w	r2, r8, r9
 80021be:	4051      	eors	r1, r2
 80021c0:	ea08 0204 	and.w	r2, r8, r4
 80021c4:	4051      	eors	r1, r2
 80021c6:	ea03 0209 	and.w	r2, r3, r9
 80021ca:	4051      	eors	r1, r2
 80021cc:	f8c0 13e4 	str.w	r1, [r0, #996]	; 0x3e4
 80021d0:	f8d0 80cc 	ldr.w	r8, [r0, #204]	; 0xcc
 80021d4:	f8d0 90fc 	ldr.w	r9, [r0, #252]	; 0xfc
 80021d8:	f8d0 a128 	ldr.w	sl, [r0, #296]	; 0x128
 80021dc:	f8d0 b158 	ldr.w	fp, [r0, #344]	; 0x158
 80021e0:	f8d0 c18c 	ldr.w	ip, [r0, #396]	; 0x18c
 80021e4:	ea94 0106 	eors.w	r1, r4, r6
 80021e8:	ea05 0206 	and.w	r2, r5, r6
 80021ec:	4051      	eors	r1, r2
 80021ee:	ea05 020b 	and.w	r2, r5, fp
 80021f2:	4051      	eors	r1, r2
 80021f4:	ea0a 0206 	and.w	r2, sl, r6
 80021f8:	4051      	eors	r1, r2
 80021fa:	f8c0 141c 	str.w	r1, [r0, #1052]	; 0x41c
 80021fe:	ea95 0107 	eors.w	r1, r5, r7
 8002202:	ea06 0207 	and.w	r2, r6, r7
 8002206:	4051      	eors	r1, r2
 8002208:	ea06 020c 	and.w	r2, r6, ip
 800220c:	4051      	eors	r1, r2
 800220e:	ea0b 0207 	and.w	r2, fp, r7
 8002212:	4051      	eors	r1, r2
 8002214:	f8c0 1448 	str.w	r1, [r0, #1096]	; 0x448
 8002218:	ea96 0103 	eors.w	r1, r6, r3
 800221c:	ea07 0203 	and.w	r2, r7, r3
 8002220:	4051      	eors	r1, r2
 8002222:	ea07 0208 	and.w	r2, r7, r8
 8002226:	4051      	eors	r1, r2
 8002228:	ea0c 0203 	and.w	r2, ip, r3
 800222c:	4051      	eors	r1, r2
 800222e:	f8c0 1478 	str.w	r1, [r0, #1144]	; 0x478
 8002232:	ea97 0104 	eors.w	r1, r7, r4
 8002236:	ea03 0204 	and.w	r2, r3, r4
 800223a:	4051      	eors	r1, r2
 800223c:	ea03 0209 	and.w	r2, r3, r9
 8002240:	4051      	eors	r1, r2
 8002242:	ea08 0204 	and.w	r2, r8, r4
 8002246:	4051      	eors	r1, r2
 8002248:	f8c0 14ac 	str.w	r1, [r0, #1196]	; 0x4ac
 800224c:	f8d0 1528 	ldr.w	r1, [r0, #1320]	; 0x528
 8002250:	ea93 0605 	eors.w	r6, r3, r5
 8002254:	ea04 0705 	and.w	r7, r4, r5
 8002258:	407e      	eors	r6, r7
 800225a:	ea04 070a 	and.w	r7, r4, sl
 800225e:	407e      	eors	r6, r7
 8002260:	ea09 0705 	and.w	r7, r9, r5
 8002264:	407e      	eors	r6, r7
 8002266:	684c      	ldr	r4, [r1, #4]
 8002268:	4066      	eors	r6, r4
 800226a:	f8c0 63ec 	str.w	r6, [r0, #1004]	; 0x3ec
 800226e:	e8bd 5f04 	ldmia.w	sp!, {r2, r8, r9, sl, fp, ip, lr}
 8002272:	f8c0 052c 	str.w	r0, [r0, #1324]	; 0x52c
 8002276:	f8c0 1530 	str.w	r1, [r0, #1328]	; 0x530
 800227a:	f8c0 2534 	str.w	r2, [r0, #1332]	; 0x534
 800227e:	f8c0 3538 	str.w	r3, [r0, #1336]	; 0x538
 8002282:	f8c0 453c 	str.w	r4, [r0, #1340]	; 0x53c
 8002286:	f8c0 5540 	str.w	r5, [r0, #1344]	; 0x540
 800228a:	f8c0 6544 	str.w	r6, [r0, #1348]	; 0x544
 800228e:	f8c0 7548 	str.w	r7, [r0, #1352]	; 0x548
 8002292:	f8c0 854c 	str.w	r8, [r0, #1356]	; 0x54c
 8002296:	f8c0 9550 	str.w	r9, [r0, #1360]	; 0x550
 800229a:	f8c0 a554 	str.w	sl, [r0, #1364]	; 0x554
 800229e:	f8c0 b558 	str.w	fp, [r0, #1368]	; 0x558
 80022a2:	f8c0 c55c 	str.w	ip, [r0, #1372]	; 0x55c
 80022a6:	f8c0 e560 	str.w	lr, [r0, #1376]	; 0x560
 80022aa:	e8bd 9ff0 	ldmia.w	sp!, {r4, r5, r6, r7, r8, r9, sl, fp, ip, pc}
 80022ae:	bf00      	nop
 80022b0:	f3af 8000 	nop.w
 80022b4:	f3af 8000 	nop.w
 80022b8:	f3af 8000 	nop.w
 80022bc:	f3af 8000 	nop.w
 80022c0:	0000      	movs	r0, r0
 80022c2:	0000      	movs	r0, r0
 80022c4:	0000      	movs	r0, r0
 80022c6:	0000      	movs	r0, r0
 80022c8:	0000      	movs	r0, r0
 80022ca:	0000      	movs	r0, r0
 80022cc:	0000      	movs	r0, r0
 80022ce:	0000      	movs	r0, r0
 80022d0:	0000      	movs	r0, r0
 80022d2:	0000      	movs	r0, r0
 80022d4:	0000      	movs	r0, r0
 80022d6:	0000      	movs	r0, r0
 80022d8:	0000      	movs	r0, r0
 80022da:	0000      	movs	r0, r0
 80022dc:	0000      	movs	r0, r0
 80022de:	0000      	movs	r0, r0
 80022e0:	0000      	movs	r0, r0
 80022e2:	0000      	movs	r0, r0
 80022e4:	0000      	movs	r0, r0
 80022e6:	0000      	movs	r0, r0
 80022e8:	0000      	movs	r0, r0
 80022ea:	0000      	movs	r0, r0
 80022ec:	0000      	movs	r0, r0
 80022ee:	0000      	movs	r0, r0
 80022f0:	0000      	movs	r0, r0
 80022f2:	0000      	movs	r0, r0
 80022f4:	0000      	movs	r0, r0
 80022f6:	0000      	movs	r0, r0
 80022f8:	0000      	movs	r0, r0
 80022fa:	0000      	movs	r0, r0
 80022fc:	0000      	movs	r0, r0
 80022fe:	0000      	movs	r0, r0

08002300 <KeccakP1600_Permute0>:
 8002300:	e92d 5ff0 	stmdb	sp!, {r4, r5, r6, r7, r8, r9, sl, fp, ip, lr}
 8002304:	f8d0 1530 	ldr.w	r1, [r0, #1328]	; 0x530
 8002308:	f8d0 2534 	ldr.w	r2, [r0, #1332]	; 0x534
 800230c:	f8d0 3538 	ldr.w	r3, [r0, #1336]	; 0x538
 8002310:	f8d0 453c 	ldr.w	r4, [r0, #1340]	; 0x53c
 8002314:	f8d0 5540 	ldr.w	r5, [r0, #1344]	; 0x540
 8002318:	f8d0 6544 	ldr.w	r6, [r0, #1348]	; 0x544
 800231c:	f8d0 7548 	ldr.w	r7, [r0, #1352]	; 0x548
 8002320:	f8d0 854c 	ldr.w	r8, [r0, #1356]	; 0x54c
 8002324:	f8d0 9550 	ldr.w	r9, [r0, #1360]	; 0x550
 8002328:	f8d0 a554 	ldr.w	sl, [r0, #1364]	; 0x554
 800232c:	f8d0 b558 	ldr.w	fp, [r0, #1368]	; 0x558
 8002330:	f8d0 c55c 	ldr.w	ip, [r0, #1372]	; 0x55c
 8002334:	f8d0 e560 	ldr.w	lr, [r0, #1376]	; 0x560
 8002338:	6a03      	ldr	r3, [r0, #32]
 800233a:	6c81      	ldr	r1, [r0, #72]	; 0x48
 800233c:	6f02      	ldr	r2, [r0, #112]	; 0x70
 800233e:	f8d0 c098 	ldr.w	ip, [r0, #152]	; 0x98
 8002342:	404b      	eors	r3, r1
 8002344:	4053      	eors	r3, r2
 8002346:	ea93 030c 	eors.w	r3, r3, ip
 800234a:	f8d0 10c0 	ldr.w	r1, [r0, #192]	; 0xc0
 800234e:	404b      	eors	r3, r1
 8002350:	68c7      	ldr	r7, [r0, #12]
 8002352:	6b41      	ldr	r1, [r0, #52]	; 0x34
 8002354:	6dc2      	ldr	r2, [r0, #92]	; 0x5c
 8002356:	f8d0 c084 	ldr.w	ip, [r0, #132]	; 0x84
 800235a:	404f      	eors	r7, r1
 800235c:	4057      	eors	r7, r2
 800235e:	ea97 070c 	eors.w	r7, r7, ip
 8002362:	f8d0 10ac 	ldr.w	r1, [r0, #172]	; 0xac
 8002366:	404f      	eors	r7, r1
 8002368:	ea83 76f7 	eor.w	r6, r3, r7, ror #31
 800236c:	f8c0 64b0 	str.w	r6, [r0, #1200]	; 0x4b0
 8002370:	6a46      	ldr	r6, [r0, #36]	; 0x24
 8002372:	6cc1      	ldr	r1, [r0, #76]	; 0x4c
 8002374:	6f42      	ldr	r2, [r0, #116]	; 0x74
 8002376:	f8d0 c09c 	ldr.w	ip, [r0, #156]	; 0x9c
 800237a:	404e      	eors	r6, r1
 800237c:	4056      	eors	r6, r2
 800237e:	ea96 060c 	eors.w	r6, r6, ip
 8002382:	f8d0 10c4 	ldr.w	r1, [r0, #196]	; 0xc4
 8002386:	404e      	eors	r6, r1
 8002388:	f8d0 e008 	ldr.w	lr, [r0, #8]
 800238c:	6b01      	ldr	r1, [r0, #48]	; 0x30
 800238e:	6d82      	ldr	r2, [r0, #88]	; 0x58
 8002390:	f8d0 c080 	ldr.w	ip, [r0, #128]	; 0x80
 8002394:	ea9e 0e01 	eors.w	lr, lr, r1
 8002398:	ea9e 0e02 	eors.w	lr, lr, r2
 800239c:	ea9e 0e0c 	eors.w	lr, lr, ip
 80023a0:	f8d0 10a8 	ldr.w	r1, [r0, #168]	; 0xa8
 80023a4:	ea9e 0e01 	eors.w	lr, lr, r1
 80023a8:	ea96 080e 	eors.w	r8, r6, lr
 80023ac:	f8c0 84b4 	str.w	r8, [r0, #1204]	; 0x4b4
 80023b0:	6905      	ldr	r5, [r0, #16]
 80023b2:	6b81      	ldr	r1, [r0, #56]	; 0x38
 80023b4:	6e02      	ldr	r2, [r0, #96]	; 0x60
 80023b6:	f8d0 c088 	ldr.w	ip, [r0, #136]	; 0x88
 80023ba:	404d      	eors	r5, r1
 80023bc:	4055      	eors	r5, r2
 80023be:	ea95 050c 	eors.w	r5, r5, ip
 80023c2:	f8d0 10b0 	ldr.w	r1, [r0, #176]	; 0xb0
 80023c6:	404d      	eors	r5, r1
 80023c8:	ea85 79f6 	eor.w	r9, r5, r6, ror #31
 80023cc:	f8c0 94c8 	str.w	r9, [r0, #1224]	; 0x4c8
 80023d0:	6944      	ldr	r4, [r0, #20]
 80023d2:	6bc1      	ldr	r1, [r0, #60]	; 0x3c
 80023d4:	6e42      	ldr	r2, [r0, #100]	; 0x64
 80023d6:	f8d0 c08c 	ldr.w	ip, [r0, #140]	; 0x8c
 80023da:	404c      	eors	r4, r1
 80023dc:	4054      	eors	r4, r2
 80023de:	ea94 040c 	eors.w	r4, r4, ip
 80023e2:	f8d0 10b4 	ldr.w	r1, [r0, #180]	; 0xb4
 80023e6:	404c      	eors	r4, r1
 80023e8:	4063      	eors	r3, r4
 80023ea:	f8c0 34cc 	str.w	r3, [r0, #1228]	; 0x4cc
 80023ee:	6803      	ldr	r3, [r0, #0]
 80023f0:	6a81      	ldr	r1, [r0, #40]	; 0x28
 80023f2:	6d02      	ldr	r2, [r0, #80]	; 0x50
 80023f4:	f8d0 c078 	ldr.w	ip, [r0, #120]	; 0x78
 80023f8:	404b      	eors	r3, r1
 80023fa:	4053      	eors	r3, r2
 80023fc:	ea93 030c 	eors.w	r3, r3, ip
 8002400:	f8d0 10a0 	ldr.w	r1, [r0, #160]	; 0xa0
 8002404:	404b      	eors	r3, r1
 8002406:	ea83 7af4 	eor.w	sl, r3, r4, ror #31
 800240a:	f8c0 a4b8 	str.w	sl, [r0, #1208]	; 0x4b8
 800240e:	6846      	ldr	r6, [r0, #4]
 8002410:	6ac1      	ldr	r1, [r0, #44]	; 0x2c
 8002412:	6d42      	ldr	r2, [r0, #84]	; 0x54
 8002414:	f8d0 c07c 	ldr.w	ip, [r0, #124]	; 0x7c
 8002418:	404e      	eors	r6, r1
 800241a:	4056      	eors	r6, r2
 800241c:	ea96 060c 	eors.w	r6, r6, ip
 8002420:	f8d0 10a4 	ldr.w	r1, [r0, #164]	; 0xa4
 8002424:	404e      	eors	r6, r1
 8002426:	ea96 0b05 	eors.w	fp, r6, r5
 800242a:	f8c0 b4bc 	str.w	fp, [r0, #1212]	; 0x4bc
 800242e:	69c4      	ldr	r4, [r0, #28]
 8002430:	6c41      	ldr	r1, [r0, #68]	; 0x44
 8002432:	6ec2      	ldr	r2, [r0, #108]	; 0x6c
 8002434:	f8d0 c094 	ldr.w	ip, [r0, #148]	; 0x94
 8002438:	404c      	eors	r4, r1
 800243a:	4054      	eors	r4, r2
 800243c:	ea94 040c 	eors.w	r4, r4, ip
 8002440:	f8d0 10bc 	ldr.w	r1, [r0, #188]	; 0xbc
 8002444:	404c      	eors	r4, r1
 8002446:	ea8e 75f4 	eor.w	r5, lr, r4, ror #31
 800244a:	f8c0 54c0 	str.w	r5, [r0, #1216]	; 0x4c0
 800244e:	6985      	ldr	r5, [r0, #24]
 8002450:	6c01      	ldr	r1, [r0, #64]	; 0x40
 8002452:	6e82      	ldr	r2, [r0, #104]	; 0x68
 8002454:	f8d0 c090 	ldr.w	ip, [r0, #144]	; 0x90
 8002458:	404d      	eors	r5, r1
 800245a:	4055      	eors	r5, r2
 800245c:	ea95 050c 	eors.w	r5, r5, ip
 8002460:	f8d0 10b8 	ldr.w	r1, [r0, #184]	; 0xb8
 8002464:	404d      	eors	r5, r1
 8002466:	ea97 0205 	eors.w	r2, r7, r5
 800246a:	f8c0 24c4 	str.w	r2, [r0, #1220]	; 0x4c4
 800246e:	ea85 7cf6 	eor.w	ip, r5, r6, ror #31
 8002472:	f8c0 c4d0 	str.w	ip, [r0, #1232]	; 0x4d0
 8002476:	ea94 0e03 	eors.w	lr, r4, r3
 800247a:	f8c0 e4d4 	str.w	lr, [r0, #1236]	; 0x4d4
 800247e:	f8d0 31b0 	ldr.w	r3, [r0, #432]	; 0x1b0
 8002482:	f8d0 11d8 	ldr.w	r1, [r0, #472]	; 0x1d8
 8002486:	f8d0 2200 	ldr.w	r2, [r0, #512]	; 0x200
 800248a:	f8d0 c228 	ldr.w	ip, [r0, #552]	; 0x228
 800248e:	404b      	eors	r3, r1
 8002490:	4053      	eors	r3, r2
 8002492:	ea93 030c 	eors.w	r3, r3, ip
 8002496:	f8d0 1250 	ldr.w	r1, [r0, #592]	; 0x250
 800249a:	404b      	eors	r3, r1
 800249c:	f8d0 719c 	ldr.w	r7, [r0, #412]	; 0x19c
 80024a0:	f8d0 11c4 	ldr.w	r1, [r0, #452]	; 0x1c4
 80024a4:	f8d0 21ec 	ldr.w	r2, [r0, #492]	; 0x1ec
 80024a8:	f8d0 c214 	ldr.w	ip, [r0, #532]	; 0x214
 80024ac:	404f      	eors	r7, r1
 80024ae:	4057      	eors	r7, r2
 80024b0:	ea97 070c 	eors.w	r7, r7, ip
 80024b4:	f8d0 123c 	ldr.w	r1, [r0, #572]	; 0x23c
 80024b8:	404f      	eors	r7, r1
 80024ba:	ea83 76f7 	eor.w	r6, r3, r7, ror #31
 80024be:	f8c0 6500 	str.w	r6, [r0, #1280]	; 0x500
 80024c2:	f8d0 61b4 	ldr.w	r6, [r0, #436]	; 0x1b4
 80024c6:	f8d0 11dc 	ldr.w	r1, [r0, #476]	; 0x1dc
 80024ca:	f8d0 2204 	ldr.w	r2, [r0, #516]	; 0x204
 80024ce:	f8d0 c22c 	ldr.w	ip, [r0, #556]	; 0x22c
 80024d2:	404e      	eors	r6, r1
 80024d4:	4056      	eors	r6, r2
 80024d6:	ea96 060c 	eors.w	r6, r6, ip
 80024da:	f8d0 1254 	ldr.w	r1, [r0, #596]	; 0x254
 80024de:	404e      	eors	r6, r1
 80024e0:	f8d0 e198 	ldr.w	lr, [r0, #408]	; 0x198
 80024e4:	f8d0 11c0 	ldr.w	r1, [r0, #448]	; 0x1c0
 80024e8:	f8d0 21e8 	ldr.w	r2, [r0, #488]	; 0x1e8
 80024ec:	f8d0 c210 	ldr.w	ip, [r0, #528]	; 0x210
 80024f0:	ea9e 0e01 	eors.w	lr, lr, r1
 80024f4:	ea9e 0e02 	eors.w	lr, lr, r2
 80024f8:	ea9e 0e0c 	eors.w	lr, lr, ip
 80024fc:	f8d0 1238 	ldr.w	r1, [r0, #568]	; 0x238
 8002500:	ea9e 0e01 	eors.w	lr, lr, r1
 8002504:	ea96 080e 	eors.w	r8, r6, lr
 8002508:	f8c0 8504 	str.w	r8, [r0, #1284]	; 0x504
 800250c:	f8d0 51a0 	ldr.w	r5, [r0, #416]	; 0x1a0
 8002510:	f8d0 11c8 	ldr.w	r1, [r0, #456]	; 0x1c8
 8002514:	f8d0 21f0 	ldr.w	r2, [r0, #496]	; 0x1f0
 8002518:	f8d0 c218 	ldr.w	ip, [r0, #536]	; 0x218
 800251c:	404d      	eors	r5, r1
 800251e:	4055      	eors	r5, r2
 8002520:	ea95 050c 	eors.w	r5, r5, ip
 8002524:	f8d0 1240 	ldr.w	r1, [r0, #576]	; 0x240
 8002528:	404d      	eors	r5, r1
 800252a:	ea85 79f6 	eor.w	r9, r5, r6, ror #31
 800252e:	f8c0 9518 	str.w	r9, [r0, #1304]	; 0x518
 8002532:	f8d0 41a4 	ldr.w	r4, [r0, #420]	; 0x1a4
 8002536:	f8d0 11cc 	ldr.w	r1, [r0, #460]	; 0x1cc
 800253a:	f8d0 21f4 	ldr.w	r2, [r0, #500]	; 0x1f4
 800253e:	f8d0 c21c 	ldr.w	ip, [r0, #540]	; 0x21c
 8002542:	404c      	eors	r4, r1
 8002544:	4054      	eors	r4, r2
 8002546:	ea94 040c 	eors.w	r4, r4, ip
 800254a:	f8d0 1244 	ldr.w	r1, [r0, #580]	; 0x244
 800254e:	404c      	eors	r4, r1
 8002550:	4063      	eors	r3, r4
 8002552:	f8c0 351c 	str.w	r3, [r0, #1308]	; 0x51c
 8002556:	f8d0 3190 	ldr.w	r3, [r0, #400]	; 0x190
 800255a:	f8d0 11b8 	ldr.w	r1, [r0, #440]	; 0x1b8
 800255e:	f8d0 21e0 	ldr.w	r2, [r0, #480]	; 0x1e0
 8002562:	f8d0 c208 	ldr.w	ip, [r0, #520]	; 0x208
 8002566:	404b      	eors	r3, r1
 8002568:	4053      	eors	r3, r2
 800256a:	ea93 030c 	eors.w	r3, r3, ip
 800256e:	f8d0 1230 	ldr.w	r1, [r0, #560]	; 0x230
 8002572:	404b      	eors	r3, r1
 8002574:	ea83 7af4 	eor.w	sl, r3, r4, ror #31
 8002578:	f8c0 a508 	str.w	sl, [r0, #1288]	; 0x508
 800257c:	f8d0 6194 	ldr.w	r6, [r0, #404]	; 0x194
 8002580:	f8d0 11bc 	ldr.w	r1, [r0, #444]	; 0x1bc
 8002584:	f8d0 21e4 	ldr.w	r2, [r0, #484]	; 0x1e4
 8002588:	f8d0 c20c 	ldr.w	ip, [r0, #524]	; 0x20c
 800258c:	404e      	eors	r6, r1
 800258e:	4056      	eors	r6, r2
 8002590:	ea96 060c 	eors.w	r6, r6, ip
 8002594:	f8d0 1234 	ldr.w	r1, [r0, #564]	; 0x234
 8002598:	404e      	eors	r6, r1
 800259a:	ea96 0b05 	eors.w	fp, r6, r5
 800259e:	f8c0 b50c 	str.w	fp, [r0, #1292]	; 0x50c
 80025a2:	f8d0 41ac 	ldr.w	r4, [r0, #428]	; 0x1ac
 80025a6:	f8d0 11d4 	ldr.w	r1, [r0, #468]	; 0x1d4
 80025aa:	f8d0 21fc 	ldr.w	r2, [r0, #508]	; 0x1fc
 80025ae:	f8d0 c224 	ldr.w	ip, [r0, #548]	; 0x224
 80025b2:	404c      	eors	r4, r1
 80025b4:	4054      	eors	r4, r2
 80025b6:	ea94 040c 	eors.w	r4, r4, ip
 80025ba:	f8d0 124c 	ldr.w	r1, [r0, #588]	; 0x24c
 80025be:	404c      	eors	r4, r1
 80025c0:	ea8e 75f4 	eor.w	r5, lr, r4, ror #31
 80025c4:	f8c0 5510 	str.w	r5, [r0, #1296]	; 0x510
 80025c8:	f8d0 51a8 	ldr.w	r5, [r0, #424]	; 0x1a8
 80025cc:	f8d0 11d0 	ldr.w	r1, [r0, #464]	; 0x1d0
 80025d0:	f8d0 21f8 	ldr.w	r2, [r0, #504]	; 0x1f8
 80025d4:	f8d0 c220 	ldr.w	ip, [r0, #544]	; 0x220
 80025d8:	404d      	eors	r5, r1
 80025da:	4055      	eors	r5, r2
 80025dc:	ea95 050c 	eors.w	r5, r5, ip
 80025e0:	f8d0 1248 	ldr.w	r1, [r0, #584]	; 0x248
 80025e4:	404d      	eors	r5, r1
 80025e6:	ea97 0205 	eors.w	r2, r7, r5
 80025ea:	f8c0 2514 	str.w	r2, [r0, #1300]	; 0x514
 80025ee:	ea85 7cf6 	eor.w	ip, r5, r6, ror #31
 80025f2:	f8c0 c520 	str.w	ip, [r0, #1312]	; 0x520
 80025f6:	ea94 0e03 	eors.w	lr, r4, r3
 80025fa:	f8c0 e524 	str.w	lr, [r0, #1316]	; 0x524
 80025fe:	f8d0 30e8 	ldr.w	r3, [r0, #232]	; 0xe8
 8002602:	f8d0 1110 	ldr.w	r1, [r0, #272]	; 0x110
 8002606:	f8d0 2138 	ldr.w	r2, [r0, #312]	; 0x138
 800260a:	f8d0 c160 	ldr.w	ip, [r0, #352]	; 0x160
 800260e:	404b      	eors	r3, r1
 8002610:	4053      	eors	r3, r2
 8002612:	ea93 030c 	eors.w	r3, r3, ip
 8002616:	f8d0 1188 	ldr.w	r1, [r0, #392]	; 0x188
 800261a:	404b      	eors	r3, r1
 800261c:	f8d0 70d4 	ldr.w	r7, [r0, #212]	; 0xd4
 8002620:	f8d0 10fc 	ldr.w	r1, [r0, #252]	; 0xfc
 8002624:	f8d0 2124 	ldr.w	r2, [r0, #292]	; 0x124
 8002628:	f8d0 c14c 	ldr.w	ip, [r0, #332]	; 0x14c
 800262c:	404f      	eors	r7, r1
 800262e:	4057      	eors	r7, r2
 8002630:	ea97 070c 	eors.w	r7, r7, ip
 8002634:	f8d0 1174 	ldr.w	r1, [r0, #372]	; 0x174
 8002638:	404f      	eors	r7, r1
 800263a:	ea83 76f7 	eor.w	r6, r3, r7, ror #31
 800263e:	f8c0 64d8 	str.w	r6, [r0, #1240]	; 0x4d8
 8002642:	f8d0 60ec 	ldr.w	r6, [r0, #236]	; 0xec
 8002646:	f8d0 1114 	ldr.w	r1, [r0, #276]	; 0x114
 800264a:	f8d0 213c 	ldr.w	r2, [r0, #316]	; 0x13c
 800264e:	f8d0 c164 	ldr.w	ip, [r0, #356]	; 0x164
 8002652:	404e      	eors	r6, r1
 8002654:	4056      	eors	r6, r2
 8002656:	ea96 060c 	eors.w	r6, r6, ip
 800265a:	f8d0 118c 	ldr.w	r1, [r0, #396]	; 0x18c
 800265e:	404e      	eors	r6, r1
 8002660:	f8d0 e0d0 	ldr.w	lr, [r0, #208]	; 0xd0
 8002664:	f8d0 10f8 	ldr.w	r1, [r0, #248]	; 0xf8
 8002668:	f8d0 2120 	ldr.w	r2, [r0, #288]	; 0x120
 800266c:	f8d0 c148 	ldr.w	ip, [r0, #328]	; 0x148
 8002670:	ea9e 0e01 	eors.w	lr, lr, r1
 8002674:	ea9e 0e02 	eors.w	lr, lr, r2
 8002678:	ea9e 0e0c 	eors.w	lr, lr, ip
 800267c:	f8d0 1170 	ldr.w	r1, [r0, #368]	; 0x170
 8002680:	ea9e 0e01 	eors.w	lr, lr, r1
 8002684:	ea96 080e 	eors.w	r8, r6, lr
 8002688:	f8c0 84dc 	str.w	r8, [r0, #1244]	; 0x4dc
 800268c:	f8d0 50d8 	ldr.w	r5, [r0, #216]	; 0xd8
 8002690:	f8d0 1100 	ldr.w	r1, [r0, #256]	; 0x100
 8002694:	f8d0 2128 	ldr.w	r2, [r0, #296]	; 0x128
 8002698:	f8d0 c150 	ldr.w	ip, [r0, #336]	; 0x150
 800269c:	404d      	eors	r5, r1
 800269e:	4055      	eors	r5, r2
 80026a0:	ea95 050c 	eors.w	r5, r5, ip
 80026a4:	f8d0 1178 	ldr.w	r1, [r0, #376]	; 0x178
 80026a8:	404d      	eors	r5, r1
 80026aa:	ea85 79f6 	eor.w	r9, r5, r6, ror #31
 80026ae:	f8c0 94f0 	str.w	r9, [r0, #1264]	; 0x4f0
 80026b2:	f8d0 40dc 	ldr.w	r4, [r0, #220]	; 0xdc
 80026b6:	f8d0 1104 	ldr.w	r1, [r0, #260]	; 0x104
 80026ba:	f8d0 212c 	ldr.w	r2, [r0, #300]	; 0x12c
 80026be:	f8d0 c154 	ldr.w	ip, [r0, #340]	; 0x154
 80026c2:	404c      	eors	r4, r1
 80026c4:	4054      	eors	r4, r2
 80026c6:	ea94 040c 	eors.w	r4, r4, ip
 80026ca:	f8d0 117c 	ldr.w	r1, [r0, #380]	; 0x17c
 80026ce:	404c      	eors	r4, r1
 80026d0:	4063      	eors	r3, r4
 80026d2:	f8c0 34f4 	str.w	r3, [r0, #1268]	; 0x4f4
 80026d6:	f8d0 30c8 	ldr.w	r3, [r0, #200]	; 0xc8
 80026da:	f8d0 10f0 	ldr.w	r1, [r0, #240]	; 0xf0
 80026de:	f8d0 2118 	ldr.w	r2, [r0, #280]	; 0x118
 80026e2:	f8d0 c140 	ldr.w	ip, [r0, #320]	; 0x140
 80026e6:	404b      	eors	r3, r1
 80026e8:	4053      	eors	r3, r2
 80026ea:	ea93 030c 	eors.w	r3, r3, ip
 80026ee:	f8d0 1168 	ldr.w	r1, [r0, #360]	; 0x168
 80026f2:	404b      	eors	r3, r1
 80026f4:	ea83 7af4 	eor.w	sl, r3, r4, ror #31
 80026f8:	f8c0 a4e0 	str.w	sl, [r0, #1248]	; 0x4e0
 80026fc:	f8d0 60cc 	ldr.w	r6, [r0, #204]	; 0xcc
 8002700:	f8d0 10f4 	ldr.w	r1, [r0, #244]	; 0xf4
 8002704:	f8d0 211c 	ldr.w	r2, [r0, #284]	; 0x11c
 8002708:	f8d0 c144 	ldr.w	ip, [r0, #324]	; 0x144
 800270c:	404e      	eors	r6, r1
 800270e:	4056      	eors	r6, r2
 8002710:	ea96 060c 	eors.w	r6, r6, ip
 8002714:	f8d0 116c 	ldr.w	r1, [r0, #364]	; 0x16c
 8002718:	404e      	eors	r6, r1
 800271a:	ea96 0b05 	eors.w	fp, r6, r5
 800271e:	f8c0 b4e4 	str.w	fp, [r0, #1252]	; 0x4e4
 8002722:	f8d0 40e4 	ldr.w	r4, [r0, #228]	; 0xe4
 8002726:	f8d0 110c 	ldr.w	r1, [r0, #268]	; 0x10c
 800272a:	f8d0 2134 	ldr.w	r2, [r0, #308]	; 0x134
 800272e:	f8d0 c15c 	ldr.w	ip, [r0, #348]	; 0x15c
 8002732:	404c      	eors	r4, r1
 8002734:	4054      	eors	r4, r2
 8002736:	ea94 040c 	eors.w	r4, r4, ip
 800273a:	f8d0 1184 	ldr.w	r1, [r0, #388]	; 0x184
 800273e:	404c      	eors	r4, r1
 8002740:	ea8e 75f4 	eor.w	r5, lr, r4, ror #31
 8002744:	f8c0 54e8 	str.w	r5, [r0, #1256]	; 0x4e8
 8002748:	f8d0 50e0 	ldr.w	r5, [r0, #224]	; 0xe0
 800274c:	f8d0 1108 	ldr.w	r1, [r0, #264]	; 0x108
 8002750:	f8d0 2130 	ldr.w	r2, [r0, #304]	; 0x130
 8002754:	f8d0 c158 	ldr.w	ip, [r0, #344]	; 0x158
 8002758:	404d      	eors	r5, r1
 800275a:	4055      	eors	r5, r2
 800275c:	ea95 050c 	eors.w	r5, r5, ip
 8002760:	f8d0 1180 	ldr.w	r1, [r0, #384]	; 0x180
 8002764:	404d      	eors	r5, r1
 8002766:	ea97 0205 	eors.w	r2, r7, r5
 800276a:	f8c0 24ec 	str.w	r2, [r0, #1260]	; 0x4ec
 800276e:	ea85 7cf6 	eor.w	ip, r5, r6, ror #31
 8002772:	f8c0 c4f8 	str.w	ip, [r0, #1272]	; 0x4f8
 8002776:	ea94 0e03 	eors.w	lr, r4, r3
 800277a:	f8c0 e4fc 	str.w	lr, [r0, #1276]	; 0x4fc
 800277e:	e92d 5f04 	stmdb	sp!, {r2, r8, r9, sl, fp, ip, lr}
 8002782:	f8d0 511c 	ldr.w	r5, [r0, #284]	; 0x11c
 8002786:	f8d0 614c 	ldr.w	r6, [r0, #332]	; 0x14c
 800278a:	f8d0 717c 	ldr.w	r7, [r0, #380]	; 0x17c
 800278e:	f8d0 30e0 	ldr.w	r3, [r0, #224]	; 0xe0
 8002792:	f8d0 4110 	ldr.w	r4, [r0, #272]	; 0x110
 8002796:	ea95 0508 	eors.w	r5, r5, r8
 800279a:	ea96 060b 	eors.w	r6, r6, fp
 800279e:	4057      	eors	r7, r2
 80027a0:	ea93 0309 	eors.w	r3, r3, r9
 80027a4:	ea94 040c 	eors.w	r4, r4, ip
 80027a8:	ea5f 75b5 	movs.w	r5, r5, ror #30
 80027ac:	ea5f 2676 	movs.w	r6, r6, ror #9
 80027b0:	ea5f 0777 	movs.w	r7, r7, ror #1
 80027b4:	ea5f 43b3 	movs.w	r3, r3, ror #18
 80027b8:	ea5f 54b4 	movs.w	r4, r4, ror #22
 80027bc:	f8c0 511c 	str.w	r5, [r0, #284]	; 0x11c
 80027c0:	f8c0 614c 	str.w	r6, [r0, #332]	; 0x14c
 80027c4:	f8c0 717c 	str.w	r7, [r0, #380]	; 0x17c
 80027c8:	f8c0 30e0 	str.w	r3, [r0, #224]	; 0xe0
 80027cc:	f8c0 4110 	str.w	r4, [r0, #272]	; 0x110
 80027d0:	f8d0 a1e4 	ldr.w	sl, [r0, #484]	; 0x1e4
 80027d4:	f8d0 1504 	ldr.w	r1, [r0, #1284]	; 0x504
 80027d8:	f8d0 b214 	ldr.w	fp, [r0, #532]	; 0x214
 80027dc:	f8d0 250c 	ldr.w	r2, [r0, #1292]	; 0x50c
 80027e0:	f8d0 c244 	ldr.w	ip, [r0, #580]	; 0x244
 80027e4:	f8d0 e514 	ldr.w	lr, [r0, #1300]	; 0x514
 80027e8:	ea9a 0a01 	eors.w	sl, sl, r1
 80027ec:	ea9b 0b02 	eors.w	fp, fp, r2
 80027f0:	ea9c 0c0e 	eors.w	ip, ip, lr
 80027f4:	f8d0 81a8 	ldr.w	r8, [r0, #424]	; 0x1a8
 80027f8:	f8d0 1518 	ldr.w	r1, [r0, #1304]	; 0x518
 80027fc:	f8d0 91d8 	ldr.w	r9, [r0, #472]	; 0x1d8
 8002800:	f8d0 e520 	ldr.w	lr, [r0, #1312]	; 0x520
 8002804:	ea98 0801 	eors.w	r8, r8, r1
 8002808:	ea99 090e 	eors.w	r9, r9, lr
 800280c:	ea5f 7aba 	movs.w	sl, sl, ror #30
 8002810:	ea5f 2b7b 	movs.w	fp, fp, ror #9
 8002814:	ea5f 0c7c 	movs.w	ip, ip, ror #1
 8002818:	ea5f 48b8 	movs.w	r8, r8, ror #18
 800281c:	ea5f 59b9 	movs.w	r9, r9, ror #22
 8002820:	ea93 0105 	eors.w	r1, r3, r5
 8002824:	ea04 0205 	and.w	r2, r4, r5
 8002828:	4051      	eors	r1, r2
 800282a:	ea04 020a 	and.w	r2, r4, sl
 800282e:	4051      	eors	r1, r2
 8002830:	ea09 0205 	and.w	r2, r9, r5
 8002834:	4051      	eors	r1, r2
 8002836:	f8c0 12ac 	str.w	r1, [r0, #684]	; 0x2ac
 800283a:	ea94 0106 	eors.w	r1, r4, r6
 800283e:	ea05 0206 	and.w	r2, r5, r6
 8002842:	4051      	eors	r1, r2
 8002844:	ea05 020b 	and.w	r2, r5, fp
 8002848:	4051      	eors	r1, r2
 800284a:	ea0a 0206 	and.w	r2, sl, r6
 800284e:	4051      	eors	r1, r2
 8002850:	f8c0 12dc 	str.w	r1, [r0, #732]	; 0x2dc
 8002854:	ea95 0107 	eors.w	r1, r5, r7
 8002858:	ea06 0207 	and.w	r2, r6, r7
 800285c:	4051      	eors	r1, r2
 800285e:	ea06 020c 	and.w	r2, r6, ip
 8002862:	4051      	eors	r1, r2
 8002864:	ea0b 0207 	and.w	r2, fp, r7
 8002868:	4051      	eors	r1, r2
 800286a:	f8c0 130c 	str.w	r1, [r0, #780]	; 0x30c
 800286e:	ea96 0103 	eors.w	r1, r6, r3
 8002872:	ea07 0203 	and.w	r2, r7, r3
 8002876:	4051      	eors	r1, r2
 8002878:	ea07 0208 	and.w	r2, r7, r8
 800287c:	4051      	eors	r1, r2
 800287e:	ea0c 0203 	and.w	r2, ip, r3
 8002882:	4051      	eors	r1, r2
 8002884:	f8c0 1270 	str.w	r1, [r0, #624]	; 0x270
 8002888:	ea97 0104 	eors.w	r1, r7, r4
 800288c:	ea03 0204 	and.w	r2, r3, r4
 8002890:	4051      	eors	r1, r2
 8002892:	ea03 0209 	and.w	r2, r3, r9
 8002896:	4051      	eors	r1, r2
 8002898:	ea08 0204 	and.w	r2, r8, r4
 800289c:	4051      	eors	r1, r2
 800289e:	f8c0 12a0 	str.w	r1, [r0, #672]	; 0x2a0
 80028a2:	6d45      	ldr	r5, [r0, #84]	; 0x54
 80028a4:	f8d0 14b4 	ldr.w	r1, [r0, #1204]	; 0x4b4
 80028a8:	f8d0 6084 	ldr.w	r6, [r0, #132]	; 0x84
 80028ac:	f8d0 24bc 	ldr.w	r2, [r0, #1212]	; 0x4bc
 80028b0:	f8d0 70b4 	ldr.w	r7, [r0, #180]	; 0xb4
 80028b4:	f8d0 e4c4 	ldr.w	lr, [r0, #1220]	; 0x4c4
 80028b8:	404d      	eors	r5, r1
 80028ba:	4056      	eors	r6, r2
 80028bc:	ea97 070e 	eors.w	r7, r7, lr
 80028c0:	6983      	ldr	r3, [r0, #24]
 80028c2:	f8d0 14c8 	ldr.w	r1, [r0, #1224]	; 0x4c8
 80028c6:	6c84      	ldr	r4, [r0, #72]	; 0x48
 80028c8:	f8d0 e4d0 	ldr.w	lr, [r0, #1232]	; 0x4d0
 80028cc:	404b      	eors	r3, r1
 80028ce:	ea94 040e 	eors.w	r4, r4, lr
 80028d2:	ea5f 75b5 	movs.w	r5, r5, ror #30
 80028d6:	ea5f 2676 	movs.w	r6, r6, ror #9
 80028da:	ea5f 0777 	movs.w	r7, r7, ror #1
 80028de:	ea5f 43b3 	movs.w	r3, r3, ror #18
 80028e2:	ea5f 54b4 	movs.w	r4, r4, ror #22
 80028e6:	ea98 010a 	eors.w	r1, r8, sl
 80028ea:	ea09 020a 	and.w	r2, r9, sl
 80028ee:	4051      	eors	r1, r2
 80028f0:	ea09 0205 	and.w	r2, r9, r5
 80028f4:	4051      	eors	r1, r2
 80028f6:	ea04 020a 	and.w	r2, r4, sl
 80028fa:	4051      	eors	r1, r2
 80028fc:	f8c0 1374 	str.w	r1, [r0, #884]	; 0x374
 8002900:	ea99 010b 	eors.w	r1, r9, fp
 8002904:	ea0a 020b 	and.w	r2, sl, fp
 8002908:	4051      	eors	r1, r2
 800290a:	ea0a 0206 	and.w	r2, sl, r6
 800290e:	4051      	eors	r1, r2
 8002910:	ea05 020b 	and.w	r2, r5, fp
 8002914:	4051      	eors	r1, r2
 8002916:	f8c0 13a4 	str.w	r1, [r0, #932]	; 0x3a4
 800291a:	ea9a 010c 	eors.w	r1, sl, ip
 800291e:	ea0b 020c 	and.w	r2, fp, ip
 8002922:	4051      	eors	r1, r2
 8002924:	ea0b 0207 	and.w	r2, fp, r7
 8002928:	4051      	eors	r1, r2
 800292a:	ea06 020c 	and.w	r2, r6, ip
 800292e:	4051      	eors	r1, r2
 8002930:	f8c0 13d4 	str.w	r1, [r0, #980]	; 0x3d4
 8002934:	ea9b 0108 	eors.w	r1, fp, r8
 8002938:	ea0c 0208 	and.w	r2, ip, r8
 800293c:	4051      	eors	r1, r2
 800293e:	ea0c 0203 	and.w	r2, ip, r3
 8002942:	4051      	eors	r1, r2
 8002944:	ea07 0208 	and.w	r2, r7, r8
 8002948:	4051      	eors	r1, r2
 800294a:	f8c0 1338 	str.w	r1, [r0, #824]	; 0x338
 800294e:	ea9c 0109 	eors.w	r1, ip, r9
 8002952:	ea08 0209 	and.w	r2, r8, r9
 8002956:	4051      	eors	r1, r2
 8002958:	ea08 0204 	and.w	r2, r8, r4
 800295c:	4051      	eors	r1, r2
 800295e:	ea03 0209 	and.w	r2, r3, r9
 8002962:	4051      	eors	r1, r2
 8002964:	f8c0 1368 	str.w	r1, [r0, #872]	; 0x368
 8002968:	f8d0 a11c 	ldr.w	sl, [r0, #284]	; 0x11c
 800296c:	f8d0 b14c 	ldr.w	fp, [r0, #332]	; 0x14c
 8002970:	f8d0 c17c 	ldr.w	ip, [r0, #380]	; 0x17c
 8002974:	f8d0 80e0 	ldr.w	r8, [r0, #224]	; 0xe0
 8002978:	f8d0 9110 	ldr.w	r9, [r0, #272]	; 0x110
 800297c:	ea93 0105 	eors.w	r1, r3, r5
 8002980:	ea04 0205 	and.w	r2, r4, r5
 8002984:	4051      	eors	r1, r2
 8002986:	ea04 020a 	and.w	r2, r4, sl
 800298a:	4051      	eors	r1, r2
 800298c:	ea09 0205 	and.w	r2, r9, r5
 8002990:	4051      	eors	r1, r2
 8002992:	f8c0 143c 	str.w	r1, [r0, #1084]	; 0x43c
 8002996:	ea94 0106 	eors.w	r1, r4, r6
 800299a:	ea05 0206 	and.w	r2, r5, r6
 800299e:	4051      	eors	r1, r2
 80029a0:	ea05 020b 	and.w	r2, r5, fp
 80029a4:	4051      	eors	r1, r2
 80029a6:	ea0a 0206 	and.w	r2, sl, r6
 80029aa:	4051      	eors	r1, r2
 80029ac:	f8c0 146c 	str.w	r1, [r0, #1132]	; 0x46c
 80029b0:	ea95 0107 	eors.w	r1, r5, r7
 80029b4:	ea06 0207 	and.w	r2, r6, r7
 80029b8:	4051      	eors	r1, r2
 80029ba:	ea06 020c 	and.w	r2, r6, ip
 80029be:	4051      	eors	r1, r2
 80029c0:	ea0b 0207 	and.w	r2, fp, r7
 80029c4:	4051      	eors	r1, r2
 80029c6:	f8c0 149c 	str.w	r1, [r0, #1180]	; 0x49c
 80029ca:	ea96 0103 	eors.w	r1, r6, r3
 80029ce:	ea07 0203 	and.w	r2, r7, r3
 80029d2:	4051      	eors	r1, r2
 80029d4:	ea07 0208 	and.w	r2, r7, r8
 80029d8:	4051      	eors	r1, r2
 80029da:	ea0c 0203 	and.w	r2, ip, r3
 80029de:	4051      	eors	r1, r2
 80029e0:	f8c0 1400 	str.w	r1, [r0, #1024]	; 0x400
 80029e4:	ea97 0104 	eors.w	r1, r7, r4
 80029e8:	ea03 0204 	and.w	r2, r3, r4
 80029ec:	4051      	eors	r1, r2
 80029ee:	ea03 0209 	and.w	r2, r3, r9
 80029f2:	4051      	eors	r1, r2
 80029f4:	ea08 0204 	and.w	r2, r8, r4
 80029f8:	4051      	eors	r1, r2
 80029fa:	f8c0 1430 	str.w	r1, [r0, #1072]	; 0x430
 80029fe:	e8bd 5f04 	ldmia.w	sp!, {r2, r8, r9, sl, fp, ip, lr}
 8002a02:	e92d 5f04 	stmdb	sp!, {r2, r8, r9, sl, fp, ip, lr}
 8002a06:	f8d0 716c 	ldr.w	r7, [r0, #364]	; 0x16c
 8002a0a:	f8d0 30d0 	ldr.w	r3, [r0, #208]	; 0xd0
 8002a0e:	f8d0 4104 	ldr.w	r4, [r0, #260]	; 0x104
 8002a12:	f8d0 5130 	ldr.w	r5, [r0, #304]	; 0x130
 8002a16:	f8d0 6164 	ldr.w	r6, [r0, #356]	; 0x164
 8002a1a:	ea97 0708 	eors.w	r7, r7, r8
 8002a1e:	ea93 030a 	eors.w	r3, r3, sl
 8002a22:	4054      	eors	r4, r2
 8002a24:	ea95 0509 	eors.w	r5, r5, r9
 8002a28:	ea96 060e 	eors.w	r6, r6, lr
 8002a2c:	ea5f 57f7 	movs.w	r7, r7, ror #23
 8002a30:	ea5f 7474 	movs.w	r4, r4, ror #29
 8002a34:	ea5f 5535 	movs.w	r5, r5, ror #20
 8002a38:	ea5f 7636 	movs.w	r6, r6, ror #28
 8002a3c:	f8c0 716c 	str.w	r7, [r0, #364]	; 0x16c
 8002a40:	f8c0 30d0 	str.w	r3, [r0, #208]	; 0xd0
 8002a44:	f8c0 4104 	str.w	r4, [r0, #260]	; 0x104
 8002a48:	f8c0 5130 	str.w	r5, [r0, #304]	; 0x130
 8002a4c:	f8c0 6164 	str.w	r6, [r0, #356]	; 0x164
 8002a50:	f8d0 c234 	ldr.w	ip, [r0, #564]	; 0x234
 8002a54:	f8d0 1504 	ldr.w	r1, [r0, #1284]	; 0x504
 8002a58:	f8d0 8198 	ldr.w	r8, [r0, #408]	; 0x198
 8002a5c:	f8d0 2508 	ldr.w	r2, [r0, #1288]	; 0x508
 8002a60:	f8d0 91cc 	ldr.w	r9, [r0, #460]	; 0x1cc
 8002a64:	f8d0 e514 	ldr.w	lr, [r0, #1300]	; 0x514
 8002a68:	ea9c 0c01 	eors.w	ip, ip, r1
 8002a6c:	ea98 0802 	eors.w	r8, r8, r2
 8002a70:	ea99 090e 	eors.w	r9, r9, lr
 8002a74:	f8d0 a1f8 	ldr.w	sl, [r0, #504]	; 0x1f8
 8002a78:	f8d0 1518 	ldr.w	r1, [r0, #1304]	; 0x518
 8002a7c:	f8d0 b22c 	ldr.w	fp, [r0, #556]	; 0x22c
 8002a80:	f8d0 e524 	ldr.w	lr, [r0, #1316]	; 0x524
 8002a84:	ea9a 0a01 	eors.w	sl, sl, r1
 8002a88:	ea9b 0b0e 	eors.w	fp, fp, lr
 8002a8c:	ea5f 5cfc 	movs.w	ip, ip, ror #23
 8002a90:	ea5f 7979 	movs.w	r9, r9, ror #29
 8002a94:	ea5f 5a3a 	movs.w	sl, sl, ror #20
 8002a98:	ea5f 7b3b 	movs.w	fp, fp, ror #28
 8002a9c:	ea93 0105 	eors.w	r1, r3, r5
 8002aa0:	ea04 0205 	and.w	r2, r4, r5
 8002aa4:	4051      	eors	r1, r2
 8002aa6:	ea04 020a 	and.w	r2, r4, sl
 8002aaa:	4051      	eors	r1, r2
 8002aac:	ea09 0205 	and.w	r2, r9, r5
 8002ab0:	4051      	eors	r1, r2
 8002ab2:	f8c0 12fc 	str.w	r1, [r0, #764]	; 0x2fc
 8002ab6:	ea94 0106 	eors.w	r1, r4, r6
 8002aba:	ea05 0206 	and.w	r2, r5, r6
 8002abe:	4051      	eors	r1, r2
 8002ac0:	ea05 020b 	and.w	r2, r5, fp
 8002ac4:	4051      	eors	r1, r2
 8002ac6:	ea0a 0206 	and.w	r2, sl, r6
 8002aca:	4051      	eors	r1, r2
 8002acc:	f8c0 1260 	str.w	r1, [r0, #608]	; 0x260
 8002ad0:	ea95 0107 	eors.w	r1, r5, r7
 8002ad4:	ea06 0207 	and.w	r2, r6, r7
 8002ad8:	4051      	eors	r1, r2
 8002ada:	ea06 020c 	and.w	r2, r6, ip
 8002ade:	4051      	eors	r1, r2
 8002ae0:	ea0b 0207 	and.w	r2, fp, r7
 8002ae4:	4051      	eors	r1, r2
 8002ae6:	f8c0 1294 	str.w	r1, [r0, #660]	; 0x294
 8002aea:	ea96 0103 	eors.w	r1, r6, r3
 8002aee:	ea07 0203 	and.w	r2, r7, r3
 8002af2:	4051      	eors	r1, r2
 8002af4:	ea07 0208 	and.w	r2, r7, r8
 8002af8:	4051      	eors	r1, r2
 8002afa:	ea0c 0203 	and.w	r2, ip, r3
 8002afe:	4051      	eors	r1, r2
 8002b00:	f8c0 12c0 	str.w	r1, [r0, #704]	; 0x2c0
 8002b04:	ea97 0104 	eors.w	r1, r7, r4
 8002b08:	ea03 0204 	and.w	r2, r3, r4
 8002b0c:	4051      	eors	r1, r2
 8002b0e:	ea03 0209 	and.w	r2, r3, r9
 8002b12:	4051      	eors	r1, r2
 8002b14:	ea08 0204 	and.w	r2, r8, r4
 8002b18:	4051      	eors	r1, r2
 8002b1a:	f8c0 12f4 	str.w	r1, [r0, #756]	; 0x2f4
 8002b1e:	f8d0 70a4 	ldr.w	r7, [r0, #164]	; 0xa4
 8002b22:	f8d0 14b4 	ldr.w	r1, [r0, #1204]	; 0x4b4
 8002b26:	6883      	ldr	r3, [r0, #8]
 8002b28:	f8d0 24b8 	ldr.w	r2, [r0, #1208]	; 0x4b8
 8002b2c:	6bc4      	ldr	r4, [r0, #60]	; 0x3c
 8002b2e:	f8d0 e4c4 	ldr.w	lr, [r0, #1220]	; 0x4c4
 8002b32:	404f      	eors	r7, r1
 8002b34:	4053      	eors	r3, r2
 8002b36:	ea94 040e 	eors.w	r4, r4, lr
 8002b3a:	6e85      	ldr	r5, [r0, #104]	; 0x68
 8002b3c:	f8d0 14c8 	ldr.w	r1, [r0, #1224]	; 0x4c8
 8002b40:	f8d0 609c 	ldr.w	r6, [r0, #156]	; 0x9c
 8002b44:	f8d0 e4d4 	ldr.w	lr, [r0, #1236]	; 0x4d4
 8002b48:	404d      	eors	r5, r1
 8002b4a:	ea96 060e 	eors.w	r6, r6, lr
 8002b4e:	ea5f 57f7 	movs.w	r7, r7, ror #23
 8002b52:	ea5f 7474 	movs.w	r4, r4, ror #29
 8002b56:	ea5f 5535 	movs.w	r5, r5, ror #20
 8002b5a:	ea5f 7636 	movs.w	r6, r6, ror #28
 8002b5e:	ea98 010a 	eors.w	r1, r8, sl
 8002b62:	ea09 020a 	and.w	r2, r9, sl
 8002b66:	4051      	eors	r1, r2
 8002b68:	ea09 0205 	and.w	r2, r9, r5
 8002b6c:	4051      	eors	r1, r2
 8002b6e:	ea04 020a 	and.w	r2, r4, sl
 8002b72:	4051      	eors	r1, r2
 8002b74:	f8c0 13c4 	str.w	r1, [r0, #964]	; 0x3c4
 8002b78:	ea99 010b 	eors.w	r1, r9, fp
 8002b7c:	ea0a 020b 	and.w	r2, sl, fp
 8002b80:	4051      	eors	r1, r2
 8002b82:	ea0a 0206 	and.w	r2, sl, r6
 8002b86:	4051      	eors	r1, r2
 8002b88:	ea05 020b 	and.w	r2, r5, fp
 8002b8c:	4051      	eors	r1, r2
 8002b8e:	f8c0 1328 	str.w	r1, [r0, #808]	; 0x328
 8002b92:	ea9a 010c 	eors.w	r1, sl, ip
 8002b96:	ea0b 020c 	and.w	r2, fp, ip
 8002b9a:	4051      	eors	r1, r2
 8002b9c:	ea0b 0207 	and.w	r2, fp, r7
 8002ba0:	4051      	eors	r1, r2
 8002ba2:	ea06 020c 	and.w	r2, r6, ip
 8002ba6:	4051      	eors	r1, r2
 8002ba8:	f8c0 135c 	str.w	r1, [r0, #860]	; 0x35c
 8002bac:	ea9b 0108 	eors.w	r1, fp, r8
 8002bb0:	ea0c 0208 	and.w	r2, ip, r8
 8002bb4:	4051      	eors	r1, r2
 8002bb6:	ea0c 0203 	and.w	r2, ip, r3
 8002bba:	4051      	eors	r1, r2
 8002bbc:	ea07 0208 	and.w	r2, r7, r8
 8002bc0:	4051      	eors	r1, r2
 8002bc2:	f8c0 1388 	str.w	r1, [r0, #904]	; 0x388
 8002bc6:	ea9c 0109 	eors.w	r1, ip, r9
 8002bca:	ea08 0209 	and.w	r2, r8, r9
 8002bce:	4051      	eors	r1, r2
 8002bd0:	ea08 0204 	and.w	r2, r8, r4
 8002bd4:	4051      	eors	r1, r2
 8002bd6:	ea03 0209 	and.w	r2, r3, r9
 8002bda:	4051      	eors	r1, r2
 8002bdc:	f8c0 13bc 	str.w	r1, [r0, #956]	; 0x3bc
 8002be0:	f8d0 c16c 	ldr.w	ip, [r0, #364]	; 0x16c
 8002be4:	f8d0 80d0 	ldr.w	r8, [r0, #208]	; 0xd0
 8002be8:	f8d0 9104 	ldr.w	r9, [r0, #260]	; 0x104
 8002bec:	f8d0 a130 	ldr.w	sl, [r0, #304]	; 0x130
 8002bf0:	f8d0 b164 	ldr.w	fp, [r0, #356]	; 0x164
 8002bf4:	ea93 0105 	eors.w	r1, r3, r5
 8002bf8:	ea04 0205 	and.w	r2, r4, r5
 8002bfc:	4051      	eors	r1, r2
 8002bfe:	ea04 020a 	and.w	r2, r4, sl
 8002c02:	4051      	eors	r1, r2
 8002c04:	ea09 0205 	and.w	r2, r9, r5
 8002c08:	4051      	eors	r1, r2
 8002c0a:	f8c0 148c 	str.w	r1, [r0, #1164]	; 0x48c
 8002c0e:	ea94 0106 	eors.w	r1, r4, r6
 8002c12:	ea05 0206 	and.w	r2, r5, r6
 8002c16:	4051      	eors	r1, r2
 8002c18:	ea05 020b 	and.w	r2, r5, fp
 8002c1c:	4051      	eors	r1, r2
 8002c1e:	ea0a 0206 	and.w	r2, sl, r6
 8002c22:	4051      	eors	r1, r2
 8002c24:	f8c0 13f0 	str.w	r1, [r0, #1008]	; 0x3f0
 8002c28:	ea95 0107 	eors.w	r1, r5, r7
 8002c2c:	ea06 0207 	and.w	r2, r6, r7
 8002c30:	4051      	eors	r1, r2
 8002c32:	ea06 020c 	and.w	r2, r6, ip
 8002c36:	4051      	eors	r1, r2
 8002c38:	ea0b 0207 	and.w	r2, fp, r7
 8002c3c:	4051      	eors	r1, r2
 8002c3e:	f8c0 1424 	str.w	r1, [r0, #1060]	; 0x424
 8002c42:	ea96 0103 	eors.w	r1, r6, r3
 8002c46:	ea07 0203 	and.w	r2, r7, r3
 8002c4a:	4051      	eors	r1, r2
 8002c4c:	ea07 0208 	and.w	r2, r7, r8
 8002c50:	4051      	eors	r1, r2
 8002c52:	ea0c 0203 	and.w	r2, ip, r3
 8002c56:	4051      	eors	r1, r2
 8002c58:	f8c0 1450 	str.w	r1, [r0, #1104]	; 0x450
 8002c5c:	ea97 0104 	eors.w	r1, r7, r4
 8002c60:	ea03 0204 	and.w	r2, r3, r4
 8002c64:	4051      	eors	r1, r2
 8002c66:	ea03 0209 	and.w	r2, r3, r9
 8002c6a:	4051      	eors	r1, r2
 8002c6c:	ea08 0204 	and.w	r2, r8, r4
 8002c70:	4051      	eors	r1, r2
 8002c72:	f8c0 1484 	str.w	r1, [r0, #1156]	; 0x484
 8002c76:	e8bd 5f04 	ldmia.w	sp!, {r2, r8, r9, sl, fp, ip, lr}
 8002c7a:	f8d0 84d8 	ldr.w	r8, [r0, #1240]	; 0x4d8
 8002c7e:	e92d 5f04 	stmdb	sp!, {r2, r8, r9, sl, fp, ip, lr}
 8002c82:	f8d0 40f0 	ldr.w	r4, [r0, #240]	; 0xf0
 8002c86:	f8d0 5120 	ldr.w	r5, [r0, #288]	; 0x120
 8002c8a:	f8d0 6154 	ldr.w	r6, [r0, #340]	; 0x154
 8002c8e:	f8d0 7180 	ldr.w	r7, [r0, #384]	; 0x180
 8002c92:	f8d0 30ec 	ldr.w	r3, [r0, #236]	; 0xec
 8002c96:	ea94 0408 	eors.w	r4, r4, r8
 8002c9a:	ea95 050a 	eors.w	r5, r5, sl
 8002c9e:	4056      	eors	r6, r2
 8002ca0:	ea97 0709 	eors.w	r7, r7, r9
 8002ca4:	ea93 030e 	eors.w	r3, r3, lr
 8002ca8:	ea5f 34b4 	movs.w	r4, r4, ror #14
 8002cac:	ea5f 65f5 	movs.w	r5, r5, ror #27
 8002cb0:	ea5f 6636 	movs.w	r6, r6, ror #24
 8002cb4:	ea5f 1737 	movs.w	r7, r7, ror #4
 8002cb8:	ea5f 43b3 	movs.w	r3, r3, ror #18
 8002cbc:	f8c0 40f0 	str.w	r4, [r0, #240]	; 0xf0
 8002cc0:	f8c0 5120 	str.w	r5, [r0, #288]	; 0x120
 8002cc4:	f8c0 6154 	str.w	r6, [r0, #340]	; 0x154
 8002cc8:	f8c0 7180 	str.w	r7, [r0, #384]	; 0x180
 8002ccc:	f8c0 30ec 	str.w	r3, [r0, #236]	; 0xec
 8002cd0:	f8d0 91b8 	ldr.w	r9, [r0, #440]	; 0x1b8
 8002cd4:	f8d0 1500 	ldr.w	r1, [r0, #1280]	; 0x500
 8002cd8:	f8d0 a1e8 	ldr.w	sl, [r0, #488]	; 0x1e8
 8002cdc:	f8d0 2508 	ldr.w	r2, [r0, #1288]	; 0x508
 8002ce0:	f8d0 b21c 	ldr.w	fp, [r0, #540]	; 0x21c
 8002ce4:	f8d0 e514 	ldr.w	lr, [r0, #1300]	; 0x514
 8002ce8:	ea99 0901 	eors.w	r9, r9, r1
 8002cec:	ea9a 0a02 	eors.w	sl, sl, r2
 8002cf0:	ea9b 0b0e 	eors.w	fp, fp, lr
 8002cf4:	f8d0 c248 	ldr.w	ip, [r0, #584]	; 0x248
 8002cf8:	f8d0 1518 	ldr.w	r1, [r0, #1304]	; 0x518
 8002cfc:	f8d0 81b4 	ldr.w	r8, [r0, #436]	; 0x1b4
 8002d00:	f8d0 e524 	ldr.w	lr, [r0, #1316]	; 0x524
 8002d04:	ea9c 0c01 	eors.w	ip, ip, r1
 8002d08:	ea98 080e 	eors.w	r8, r8, lr
 8002d0c:	ea5f 39b9 	movs.w	r9, r9, ror #14
 8002d10:	ea5f 6afa 	movs.w	sl, sl, ror #27
 8002d14:	ea5f 6b3b 	movs.w	fp, fp, ror #24
 8002d18:	ea5f 1c3c 	movs.w	ip, ip, ror #4
 8002d1c:	ea5f 48b8 	movs.w	r8, r8, ror #18
 8002d20:	ea93 0105 	eors.w	r1, r3, r5
 8002d24:	ea04 0205 	and.w	r2, r4, r5
 8002d28:	4051      	eors	r1, r2
 8002d2a:	ea04 020a 	and.w	r2, r4, sl
 8002d2e:	4051      	eors	r1, r2
 8002d30:	ea09 0205 	and.w	r2, r9, r5
 8002d34:	4051      	eors	r1, r2
 8002d36:	f8c0 1280 	str.w	r1, [r0, #640]	; 0x280
 8002d3a:	ea94 0106 	eors.w	r1, r4, r6
 8002d3e:	ea05 0206 	and.w	r2, r5, r6
 8002d42:	4051      	eors	r1, r2
 8002d44:	ea05 020b 	and.w	r2, r5, fp
 8002d48:	4051      	eors	r1, r2
 8002d4a:	ea0a 0206 	and.w	r2, sl, r6
 8002d4e:	4051      	eors	r1, r2
 8002d50:	f8c0 12b0 	str.w	r1, [r0, #688]	; 0x2b0
 8002d54:	ea95 0107 	eors.w	r1, r5, r7
 8002d58:	ea06 0207 	and.w	r2, r6, r7
 8002d5c:	4051      	eors	r1, r2
 8002d5e:	ea06 020c 	and.w	r2, r6, ip
 8002d62:	4051      	eors	r1, r2
 8002d64:	ea0b 0207 	and.w	r2, fp, r7
 8002d68:	4051      	eors	r1, r2
 8002d6a:	f8c0 12e4 	str.w	r1, [r0, #740]	; 0x2e4
 8002d6e:	ea96 0103 	eors.w	r1, r6, r3
 8002d72:	ea07 0203 	and.w	r2, r7, r3
 8002d76:	4051      	eors	r1, r2
 8002d78:	ea07 0208 	and.w	r2, r7, r8
 8002d7c:	4051      	eors	r1, r2
 8002d7e:	ea0c 0203 	and.w	r2, ip, r3
 8002d82:	4051      	eors	r1, r2
 8002d84:	f8c0 1310 	str.w	r1, [r0, #784]	; 0x310
 8002d88:	ea97 0104 	eors.w	r1, r7, r4
 8002d8c:	ea03 0204 	and.w	r2, r3, r4
 8002d90:	4051      	eors	r1, r2
 8002d92:	ea03 0209 	and.w	r2, r3, r9
 8002d96:	4051      	eors	r1, r2
 8002d98:	ea08 0204 	and.w	r2, r8, r4
 8002d9c:	4051      	eors	r1, r2
 8002d9e:	f8c0 127c 	str.w	r1, [r0, #636]	; 0x27c
 8002da2:	6a84      	ldr	r4, [r0, #40]	; 0x28
 8002da4:	f8d0 14b0 	ldr.w	r1, [r0, #1200]	; 0x4b0
 8002da8:	6d85      	ldr	r5, [r0, #88]	; 0x58
 8002daa:	f8d0 24b8 	ldr.w	r2, [r0, #1208]	; 0x4b8
 8002dae:	f8d0 608c 	ldr.w	r6, [r0, #140]	; 0x8c
 8002db2:	f8d0 e4c4 	ldr.w	lr, [r0, #1220]	; 0x4c4
 8002db6:	404c      	eors	r4, r1
 8002db8:	4055      	eors	r5, r2
 8002dba:	ea96 060e 	eors.w	r6, r6, lr
 8002dbe:	f8d0 70b8 	ldr.w	r7, [r0, #184]	; 0xb8
 8002dc2:	f8d0 14c8 	ldr.w	r1, [r0, #1224]	; 0x4c8
 8002dc6:	6a43      	ldr	r3, [r0, #36]	; 0x24
 8002dc8:	f8d0 e4d4 	ldr.w	lr, [r0, #1236]	; 0x4d4
 8002dcc:	404f      	eors	r7, r1
 8002dce:	ea93 030e 	eors.w	r3, r3, lr
 8002dd2:	ea5f 34b4 	movs.w	r4, r4, ror #14
 8002dd6:	ea5f 65f5 	movs.w	r5, r5, ror #27
 8002dda:	ea5f 6636 	movs.w	r6, r6, ror #24
 8002dde:	ea5f 1737 	movs.w	r7, r7, ror #4
 8002de2:	ea5f 43b3 	movs.w	r3, r3, ror #18
 8002de6:	ea98 010a 	eors.w	r1, r8, sl
 8002dea:	ea09 020a 	and.w	r2, r9, sl
 8002dee:	4051      	eors	r1, r2
 8002df0:	ea09 0205 	and.w	r2, r9, r5
 8002df4:	4051      	eors	r1, r2
 8002df6:	ea04 020a 	and.w	r2, r4, sl
 8002dfa:	4051      	eors	r1, r2
 8002dfc:	f8c0 1348 	str.w	r1, [r0, #840]	; 0x348
 8002e00:	ea99 010b 	eors.w	r1, r9, fp
 8002e04:	ea0a 020b 	and.w	r2, sl, fp
 8002e08:	4051      	eors	r1, r2
 8002e0a:	ea0a 0206 	and.w	r2, sl, r6
 8002e0e:	4051      	eors	r1, r2
 8002e10:	ea05 020b 	and.w	r2, r5, fp
 8002e14:	4051      	eors	r1, r2
 8002e16:	f8c0 1378 	str.w	r1, [r0, #888]	; 0x378
 8002e1a:	ea9a 010c 	eors.w	r1, sl, ip
 8002e1e:	ea0b 020c 	and.w	r2, fp, ip
 8002e22:	4051      	eors	r1, r2
 8002e24:	ea0b 0207 	and.w	r2, fp, r7
 8002e28:	4051      	eors	r1, r2
 8002e2a:	ea06 020c 	and.w	r2, r6, ip
 8002e2e:	4051      	eors	r1, r2
 8002e30:	f8c0 13ac 	str.w	r1, [r0, #940]	; 0x3ac
 8002e34:	ea9b 0108 	eors.w	r1, fp, r8
 8002e38:	ea0c 0208 	and.w	r2, ip, r8
 8002e3c:	4051      	eors	r1, r2
 8002e3e:	ea0c 0203 	and.w	r2, ip, r3
 8002e42:	4051      	eors	r1, r2
 8002e44:	ea07 0208 	and.w	r2, r7, r8
 8002e48:	4051      	eors	r1, r2
 8002e4a:	f8c0 13d8 	str.w	r1, [r0, #984]	; 0x3d8
 8002e4e:	ea9c 0109 	eors.w	r1, ip, r9
 8002e52:	ea08 0209 	and.w	r2, r8, r9
 8002e56:	4051      	eors	r1, r2
 8002e58:	ea08 0204 	and.w	r2, r8, r4
 8002e5c:	4051      	eors	r1, r2
 8002e5e:	ea03 0209 	and.w	r2, r3, r9
 8002e62:	4051      	eors	r1, r2
 8002e64:	f8c0 1344 	str.w	r1, [r0, #836]	; 0x344
 8002e68:	f8d0 90f0 	ldr.w	r9, [r0, #240]	; 0xf0
 8002e6c:	f8d0 a120 	ldr.w	sl, [r0, #288]	; 0x120
 8002e70:	f8d0 b154 	ldr.w	fp, [r0, #340]	; 0x154
 8002e74:	f8d0 c180 	ldr.w	ip, [r0, #384]	; 0x180
 8002e78:	f8d0 80ec 	ldr.w	r8, [r0, #236]	; 0xec
 8002e7c:	ea93 0105 	eors.w	r1, r3, r5
 8002e80:	ea04 0205 	and.w	r2, r4, r5
 8002e84:	4051      	eors	r1, r2
 8002e86:	ea04 020a 	and.w	r2, r4, sl
 8002e8a:	4051      	eors	r1, r2
 8002e8c:	ea09 0205 	and.w	r2, r9, r5
 8002e90:	4051      	eors	r1, r2
 8002e92:	f8c0 1410 	str.w	r1, [r0, #1040]	; 0x410
 8002e96:	ea94 0106 	eors.w	r1, r4, r6
 8002e9a:	ea05 0206 	and.w	r2, r5, r6
 8002e9e:	4051      	eors	r1, r2
 8002ea0:	ea05 020b 	and.w	r2, r5, fp
 8002ea4:	4051      	eors	r1, r2
 8002ea6:	ea0a 0206 	and.w	r2, sl, r6
 8002eaa:	4051      	eors	r1, r2
 8002eac:	f8c0 1440 	str.w	r1, [r0, #1088]	; 0x440
 8002eb0:	ea95 0107 	eors.w	r1, r5, r7
 8002eb4:	ea06 0207 	and.w	r2, r6, r7
 8002eb8:	4051      	eors	r1, r2
 8002eba:	ea06 020c 	and.w	r2, r6, ip
 8002ebe:	4051      	eors	r1, r2
 8002ec0:	ea0b 0207 	and.w	r2, fp, r7
 8002ec4:	4051      	eors	r1, r2
 8002ec6:	f8c0 1474 	str.w	r1, [r0, #1140]	; 0x474
 8002eca:	ea96 0103 	eors.w	r1, r6, r3
 8002ece:	ea07 0203 	and.w	r2, r7, r3
 8002ed2:	4051      	eors	r1, r2
 8002ed4:	ea07 0208 	and.w	r2, r7, r8
 8002ed8:	4051      	eors	r1, r2
 8002eda:	ea0c 0203 	and.w	r2, ip, r3
 8002ede:	4051      	eors	r1, r2
 8002ee0:	f8c0 14a0 	str.w	r1, [r0, #1184]	; 0x4a0
 8002ee4:	ea97 0104 	eors.w	r1, r7, r4
 8002ee8:	ea03 0204 	and.w	r2, r3, r4
 8002eec:	4051      	eors	r1, r2
 8002eee:	ea03 0209 	and.w	r2, r3, r9
 8002ef2:	4051      	eors	r1, r2
 8002ef4:	ea08 0204 	and.w	r2, r8, r4
 8002ef8:	4051      	eors	r1, r2
 8002efa:	f8c0 140c 	str.w	r1, [r0, #1036]	; 0x40c
 8002efe:	e8bd 5f04 	ldmia.w	sp!, {r2, r8, r9, sl, fp, ip, lr}
 8002f02:	e92d 5f04 	stmdb	sp!, {r2, r8, r9, sl, fp, ip, lr}
 8002f06:	f8d0 6140 	ldr.w	r6, [r0, #320]	; 0x140
 8002f0a:	f8d0 7174 	ldr.w	r7, [r0, #372]	; 0x174
 8002f0e:	f8d0 30dc 	ldr.w	r3, [r0, #220]	; 0xdc
 8002f12:	f8d0 4108 	ldr.w	r4, [r0, #264]	; 0x108
 8002f16:	f8d0 5138 	ldr.w	r5, [r0, #312]	; 0x138
 8002f1a:	ea96 0608 	eors.w	r6, r6, r8
 8002f1e:	ea97 070b 	eors.w	r7, r7, fp
 8002f22:	4053      	eors	r3, r2
 8002f24:	ea94 0409 	eors.w	r4, r4, r9
 8002f28:	ea95 050c 	eors.w	r5, r5, ip
 8002f2c:	ea5f 3636 	movs.w	r6, r6, ror #12
 8002f30:	ea5f 77f7 	movs.w	r7, r7, ror #31
 8002f34:	ea5f 0373 	movs.w	r3, r3, ror #1
 8002f38:	ea5f 1474 	movs.w	r4, r4, ror #5
 8002f3c:	ea5f 3575 	movs.w	r5, r5, ror #13
 8002f40:	f8c0 6140 	str.w	r6, [r0, #320]	; 0x140
 8002f44:	f8c0 7174 	str.w	r7, [r0, #372]	; 0x174
 8002f48:	f8c0 30dc 	str.w	r3, [r0, #220]	; 0xdc
 8002f4c:	f8c0 4108 	str.w	r4, [r0, #264]	; 0x108
 8002f50:	f8c0 5138 	str.w	r5, [r0, #312]	; 0x138
 8002f54:	f8d0 b208 	ldr.w	fp, [r0, #520]	; 0x208
 8002f58:	f8d0 1500 	ldr.w	r1, [r0, #1280]	; 0x500
 8002f5c:	f8d0 c23c 	ldr.w	ip, [r0, #572]	; 0x23c
 8002f60:	f8d0 250c 	ldr.w	r2, [r0, #1292]	; 0x50c
 8002f64:	f8d0 81a4 	ldr.w	r8, [r0, #420]	; 0x1a4
 8002f68:	f8d0 e514 	ldr.w	lr, [r0, #1300]	; 0x514
 8002f6c:	ea9b 0b01 	eors.w	fp, fp, r1
 8002f70:	ea9c 0c02 	eors.w	ip, ip, r2
 8002f74:	ea98 080e 	eors.w	r8, r8, lr
 8002f78:	f8d0 91d0 	ldr.w	r9, [r0, #464]	; 0x1d0
 8002f7c:	f8d0 1518 	ldr.w	r1, [r0, #1304]	; 0x518
 8002f80:	f8d0 a200 	ldr.w	sl, [r0, #512]	; 0x200
 8002f84:	f8d0 e520 	ldr.w	lr, [r0, #1312]	; 0x520
 8002f88:	ea99 0901 	eors.w	r9, r9, r1
 8002f8c:	ea9a 0a0e 	eors.w	sl, sl, lr
 8002f90:	ea5f 3b3b 	movs.w	fp, fp, ror #12
 8002f94:	ea5f 7cfc 	movs.w	ip, ip, ror #31
 8002f98:	ea5f 0878 	movs.w	r8, r8, ror #1
 8002f9c:	ea5f 1979 	movs.w	r9, r9, ror #5
 8002fa0:	ea5f 3a7a 	movs.w	sl, sl, ror #13
 8002fa4:	ea93 0105 	eors.w	r1, r3, r5
 8002fa8:	ea04 0205 	and.w	r2, r4, r5
 8002fac:	4051      	eors	r1, r2
 8002fae:	ea04 020a 	and.w	r2, r4, sl
 8002fb2:	4051      	eors	r1, r2
 8002fb4:	ea09 0205 	and.w	r2, r9, r5
 8002fb8:	4051      	eors	r1, r2
 8002fba:	f8c0 12d0 	str.w	r1, [r0, #720]	; 0x2d0
 8002fbe:	ea94 0106 	eors.w	r1, r4, r6
 8002fc2:	ea05 0206 	and.w	r2, r5, r6
 8002fc6:	4051      	eors	r1, r2
 8002fc8:	ea05 020b 	and.w	r2, r5, fp
 8002fcc:	4051      	eors	r1, r2
 8002fce:	ea0a 0206 	and.w	r2, sl, r6
 8002fd2:	4051      	eors	r1, r2
 8002fd4:	f8c0 1304 	str.w	r1, [r0, #772]	; 0x304
 8002fd8:	ea95 0107 	eors.w	r1, r5, r7
 8002fdc:	ea06 0207 	and.w	r2, r6, r7
 8002fe0:	4051      	eors	r1, r2
 8002fe2:	ea06 020c 	and.w	r2, r6, ip
 8002fe6:	4051      	eors	r1, r2
 8002fe8:	ea0b 0207 	and.w	r2, fp, r7
 8002fec:	4051      	eors	r1, r2
 8002fee:	f8c0 126c 	str.w	r1, [r0, #620]	; 0x26c
 8002ff2:	ea96 0103 	eors.w	r1, r6, r3
 8002ff6:	ea07 0203 	and.w	r2, r7, r3
 8002ffa:	4051      	eors	r1, r2
 8002ffc:	ea07 0208 	and.w	r2, r7, r8
 8003000:	4051      	eors	r1, r2
 8003002:	ea0c 0203 	and.w	r2, ip, r3
 8003006:	4051      	eors	r1, r2
 8003008:	f8c0 1298 	str.w	r1, [r0, #664]	; 0x298
 800300c:	ea97 0104 	eors.w	r1, r7, r4
 8003010:	ea03 0204 	and.w	r2, r3, r4
 8003014:	4051      	eors	r1, r2
 8003016:	ea03 0209 	and.w	r2, r3, r9
 800301a:	4051      	eors	r1, r2
 800301c:	ea08 0204 	and.w	r2, r8, r4
 8003020:	4051      	eors	r1, r2
 8003022:	f8c0 12c8 	str.w	r1, [r0, #712]	; 0x2c8
 8003026:	6f86      	ldr	r6, [r0, #120]	; 0x78
 8003028:	f8d0 14b0 	ldr.w	r1, [r0, #1200]	; 0x4b0
 800302c:	f8d0 70ac 	ldr.w	r7, [r0, #172]	; 0xac
 8003030:	f8d0 24bc 	ldr.w	r2, [r0, #1212]	; 0x4bc
 8003034:	6943      	ldr	r3, [r0, #20]
 8003036:	f8d0 e4c4 	ldr.w	lr, [r0, #1220]	; 0x4c4
 800303a:	404e      	eors	r6, r1
 800303c:	4057      	eors	r7, r2
 800303e:	ea93 030e 	eors.w	r3, r3, lr
 8003042:	6c04      	ldr	r4, [r0, #64]	; 0x40
 8003044:	f8d0 14c8 	ldr.w	r1, [r0, #1224]	; 0x4c8
 8003048:	6f05      	ldr	r5, [r0, #112]	; 0x70
 800304a:	f8d0 e4d0 	ldr.w	lr, [r0, #1232]	; 0x4d0
 800304e:	404c      	eors	r4, r1
 8003050:	ea95 050e 	eors.w	r5, r5, lr
 8003054:	ea5f 3636 	movs.w	r6, r6, ror #12
 8003058:	ea5f 77f7 	movs.w	r7, r7, ror #31
 800305c:	ea5f 0373 	movs.w	r3, r3, ror #1
 8003060:	ea5f 1474 	movs.w	r4, r4, ror #5
 8003064:	ea5f 3575 	movs.w	r5, r5, ror #13
 8003068:	ea98 010a 	eors.w	r1, r8, sl
 800306c:	ea09 020a 	and.w	r2, r9, sl
 8003070:	4051      	eors	r1, r2
 8003072:	ea09 0205 	and.w	r2, r9, r5
 8003076:	4051      	eors	r1, r2
 8003078:	ea04 020a 	and.w	r2, r4, sl
 800307c:	4051      	eors	r1, r2
 800307e:	f8c0 1398 	str.w	r1, [r0, #920]	; 0x398
 8003082:	ea99 010b 	eors.w	r1, r9, fp
 8003086:	ea0a 020b 	and.w	r2, sl, fp
 800308a:	4051      	eors	r1, r2
 800308c:	ea0a 0206 	and.w	r2, sl, r6
 8003090:	4051      	eors	r1, r2
 8003092:	ea05 020b 	and.w	r2, r5, fp
 8003096:	4051      	eors	r1, r2
 8003098:	f8c0 13cc 	str.w	r1, [r0, #972]	; 0x3cc
 800309c:	ea9a 010c 	eors.w	r1, sl, ip
 80030a0:	ea0b 020c 	and.w	r2, fp, ip
 80030a4:	4051      	eors	r1, r2
 80030a6:	ea0b 0207 	and.w	r2, fp, r7
 80030aa:	4051      	eors	r1, r2
 80030ac:	ea06 020c 	and.w	r2, r6, ip
 80030b0:	4051      	eors	r1, r2
 80030b2:	f8c0 1334 	str.w	r1, [r0, #820]	; 0x334
 80030b6:	ea9b 0108 	eors.w	r1, fp, r8
 80030ba:	ea0c 0208 	and.w	r2, ip, r8
 80030be:	4051      	eors	r1, r2
 80030c0:	ea0c 0203 	and.w	r2, ip, r3
 80030c4:	4051      	eors	r1, r2
 80030c6:	ea07 0208 	and.w	r2, r7, r8
 80030ca:	4051      	eors	r1, r2
 80030cc:	f8c0 1360 	str.w	r1, [r0, #864]	; 0x360
 80030d0:	ea9c 0109 	eors.w	r1, ip, r9
 80030d4:	ea08 0209 	and.w	r2, r8, r9
 80030d8:	4051      	eors	r1, r2
 80030da:	ea08 0204 	and.w	r2, r8, r4
 80030de:	4051      	eors	r1, r2
 80030e0:	ea03 0209 	and.w	r2, r3, r9
 80030e4:	4051      	eors	r1, r2
 80030e6:	f8c0 1390 	str.w	r1, [r0, #912]	; 0x390
 80030ea:	f8d0 b140 	ldr.w	fp, [r0, #320]	; 0x140
 80030ee:	f8d0 c174 	ldr.w	ip, [r0, #372]	; 0x174
 80030f2:	f8d0 80dc 	ldr.w	r8, [r0, #220]	; 0xdc
 80030f6:	f8d0 9108 	ldr.w	r9, [r0, #264]	; 0x108
 80030fa:	f8d0 a138 	ldr.w	sl, [r0, #312]	; 0x138
 80030fe:	ea93 0105 	eors.w	r1, r3, r5
 8003102:	ea04 0205 	and.w	r2, r4, r5
 8003106:	4051      	eors	r1, r2
 8003108:	ea04 020a 	and.w	r2, r4, sl
 800310c:	4051      	eors	r1, r2
 800310e:	ea09 0205 	and.w	r2, r9, r5
 8003112:	4051      	eors	r1, r2
 8003114:	f8c0 1460 	str.w	r1, [r0, #1120]	; 0x460
 8003118:	ea94 0106 	eors.w	r1, r4, r6
 800311c:	ea05 0206 	and.w	r2, r5, r6
 8003120:	4051      	eors	r1, r2
 8003122:	ea05 020b 	and.w	r2, r5, fp
 8003126:	4051      	eors	r1, r2
 8003128:	ea0a 0206 	and.w	r2, sl, r6
 800312c:	4051      	eors	r1, r2
 800312e:	f8c0 1494 	str.w	r1, [r0, #1172]	; 0x494
 8003132:	ea95 0107 	eors.w	r1, r5, r7
 8003136:	ea06 0207 	and.w	r2, r6, r7
 800313a:	4051      	eors	r1, r2
 800313c:	ea06 020c 	and.w	r2, r6, ip
 8003140:	4051      	eors	r1, r2
 8003142:	ea0b 0207 	and.w	r2, fp, r7
 8003146:	4051      	eors	r1, r2
 8003148:	f8c0 13fc 	str.w	r1, [r0, #1020]	; 0x3fc
 800314c:	ea96 0103 	eors.w	r1, r6, r3
 8003150:	ea07 0203 	and.w	r2, r7, r3
 8003154:	4051      	eors	r1, r2
 8003156:	ea07 0208 	and.w	r2, r7, r8
 800315a:	4051      	eors	r1, r2
 800315c:	ea0c 0203 	and.w	r2, ip, r3
 8003160:	4051      	eors	r1, r2
 8003162:	f8c0 1428 	str.w	r1, [r0, #1064]	; 0x428
 8003166:	ea97 0104 	eors.w	r1, r7, r4
 800316a:	ea03 0204 	and.w	r2, r3, r4
 800316e:	4051      	eors	r1, r2
 8003170:	ea03 0209 	and.w	r2, r3, r9
 8003174:	4051      	eors	r1, r2
 8003176:	ea08 0204 	and.w	r2, r8, r4
 800317a:	4051      	eors	r1, r2
 800317c:	f8c0 1458 	str.w	r1, [r0, #1112]	; 0x458
 8003180:	e8bd 5f04 	ldmia.w	sp!, {r2, r8, r9, sl, fp, ip, lr}
 8003184:	f8d0 94f4 	ldr.w	r9, [r0, #1268]	; 0x4f4
 8003188:	e92d 5f04 	stmdb	sp!, {r2, r8, r9, sl, fp, ip, lr}
 800318c:	f8d0 30c8 	ldr.w	r3, [r0, #200]	; 0xc8
 8003190:	f8d0 40f8 	ldr.w	r4, [r0, #248]	; 0xf8
 8003194:	f8d0 512c 	ldr.w	r5, [r0, #300]	; 0x12c
 8003198:	f8d0 615c 	ldr.w	r6, [r0, #348]	; 0x15c
 800319c:	f8d0 7188 	ldr.w	r7, [r0, #392]	; 0x188
 80031a0:	ea93 0308 	eors.w	r3, r3, r8
 80031a4:	ea94 040a 	eors.w	r4, r4, sl
 80031a8:	4055      	eors	r5, r2
 80031aa:	ea96 0609 	eors.w	r6, r6, r9
 80031ae:	ea97 070c 	eors.w	r7, r7, ip
 80031b2:	ea5f 24b4 	movs.w	r4, r4, ror #10
 80031b6:	ea5f 25b5 	movs.w	r5, r5, ror #10
 80031ba:	ea5f 5676 	movs.w	r6, r6, ror #21
 80031be:	ea5f 6777 	movs.w	r7, r7, ror #25
 80031c2:	f8c0 30c8 	str.w	r3, [r0, #200]	; 0xc8
 80031c6:	f8c0 40f8 	str.w	r4, [r0, #248]	; 0xf8
 80031ca:	f8c0 512c 	str.w	r5, [r0, #300]	; 0x12c
 80031ce:	f8c0 615c 	str.w	r6, [r0, #348]	; 0x15c
 80031d2:	f8c0 7188 	str.w	r7, [r0, #392]	; 0x188
 80031d6:	f8d0 8190 	ldr.w	r8, [r0, #400]	; 0x190
 80031da:	f8d0 1500 	ldr.w	r1, [r0, #1280]	; 0x500
 80031de:	f8d0 91c0 	ldr.w	r9, [r0, #448]	; 0x1c0
 80031e2:	f8d0 2508 	ldr.w	r2, [r0, #1288]	; 0x508
 80031e6:	f8d0 a1f4 	ldr.w	sl, [r0, #500]	; 0x1f4
 80031ea:	f8d0 e514 	ldr.w	lr, [r0, #1300]	; 0x514
 80031ee:	ea98 0801 	eors.w	r8, r8, r1
 80031f2:	ea99 0902 	eors.w	r9, r9, r2
 80031f6:	ea9a 0a0e 	eors.w	sl, sl, lr
 80031fa:	f8d0 b224 	ldr.w	fp, [r0, #548]	; 0x224
 80031fe:	f8d0 151c 	ldr.w	r1, [r0, #1308]	; 0x51c
 8003202:	f8d0 c250 	ldr.w	ip, [r0, #592]	; 0x250
 8003206:	f8d0 e520 	ldr.w	lr, [r0, #1312]	; 0x520
 800320a:	ea9b 0b01 	eors.w	fp, fp, r1
 800320e:	ea9c 0c0e 	eors.w	ip, ip, lr
 8003212:	ea5f 29b9 	movs.w	r9, r9, ror #10
 8003216:	ea5f 2aba 	movs.w	sl, sl, ror #10
 800321a:	ea5f 5b7b 	movs.w	fp, fp, ror #21
 800321e:	ea5f 6c7c 	movs.w	ip, ip, ror #25
 8003222:	ea93 0105 	eors.w	r1, r3, r5
 8003226:	ea04 0205 	and.w	r2, r4, r5
 800322a:	4051      	eors	r1, r2
 800322c:	ea04 020a 	and.w	r2, r4, sl
 8003230:	4051      	eors	r1, r2
 8003232:	ea09 0205 	and.w	r2, r9, r5
 8003236:	4051      	eors	r1, r2
 8003238:	f8c0 1258 	str.w	r1, [r0, #600]	; 0x258
 800323c:	ea94 0106 	eors.w	r1, r4, r6
 8003240:	ea05 0206 	and.w	r2, r5, r6
 8003244:	4051      	eors	r1, r2
 8003246:	ea05 020b 	and.w	r2, r5, fp
 800324a:	4051      	eors	r1, r2
 800324c:	ea0a 0206 	and.w	r2, sl, r6
 8003250:	4051      	eors	r1, r2
 8003252:	f8c0 1288 	str.w	r1, [r0, #648]	; 0x288
 8003256:	ea95 0107 	eors.w	r1, r5, r7
 800325a:	ea06 0207 	and.w	r2, r6, r7
 800325e:	4051      	eors	r1, r2
 8003260:	ea06 020c 	and.w	r2, r6, ip
 8003264:	4051      	eors	r1, r2
 8003266:	ea0b 0207 	and.w	r2, fp, r7
 800326a:	4051      	eors	r1, r2
 800326c:	f8c0 12bc 	str.w	r1, [r0, #700]	; 0x2bc
 8003270:	ea96 0103 	eors.w	r1, r6, r3
 8003274:	ea07 0203 	and.w	r2, r7, r3
 8003278:	4051      	eors	r1, r2
 800327a:	ea07 0208 	and.w	r2, r7, r8
 800327e:	4051      	eors	r1, r2
 8003280:	ea0c 0203 	and.w	r2, ip, r3
 8003284:	4051      	eors	r1, r2
 8003286:	f8c0 12ec 	str.w	r1, [r0, #748]	; 0x2ec
 800328a:	ea97 0104 	eors.w	r1, r7, r4
 800328e:	ea03 0204 	and.w	r2, r3, r4
 8003292:	4051      	eors	r1, r2
 8003294:	ea03 0209 	and.w	r2, r3, r9
 8003298:	4051      	eors	r1, r2
 800329a:	ea08 0204 	and.w	r2, r8, r4
 800329e:	4051      	eors	r1, r2
 80032a0:	f8c0 1318 	str.w	r1, [r0, #792]	; 0x318
 80032a4:	6803      	ldr	r3, [r0, #0]
 80032a6:	f8d0 14b0 	ldr.w	r1, [r0, #1200]	; 0x4b0
 80032aa:	6b04      	ldr	r4, [r0, #48]	; 0x30
 80032ac:	f8d0 24b8 	ldr.w	r2, [r0, #1208]	; 0x4b8
 80032b0:	6e45      	ldr	r5, [r0, #100]	; 0x64
 80032b2:	f8d0 e4c4 	ldr.w	lr, [r0, #1220]	; 0x4c4
 80032b6:	404b      	eors	r3, r1
 80032b8:	4054      	eors	r4, r2
 80032ba:	ea95 050e 	eors.w	r5, r5, lr
 80032be:	f8d0 6094 	ldr.w	r6, [r0, #148]	; 0x94
 80032c2:	f8d0 14cc 	ldr.w	r1, [r0, #1228]	; 0x4cc
 80032c6:	f8d0 70c0 	ldr.w	r7, [r0, #192]	; 0xc0
 80032ca:	f8d0 e4d0 	ldr.w	lr, [r0, #1232]	; 0x4d0
 80032ce:	404e      	eors	r6, r1
 80032d0:	ea97 070e 	eors.w	r7, r7, lr
 80032d4:	ea5f 24b4 	movs.w	r4, r4, ror #10
 80032d8:	ea5f 25b5 	movs.w	r5, r5, ror #10
 80032dc:	ea5f 5676 	movs.w	r6, r6, ror #21
 80032e0:	ea5f 6777 	movs.w	r7, r7, ror #25
 80032e4:	ea98 010a 	eors.w	r1, r8, sl
 80032e8:	ea09 020a 	and.w	r2, r9, sl
 80032ec:	4051      	eors	r1, r2
 80032ee:	ea09 0205 	and.w	r2, r9, r5
 80032f2:	4051      	eors	r1, r2
 80032f4:	ea04 020a 	and.w	r2, r4, sl
 80032f8:	4051      	eors	r1, r2
 80032fa:	f8c0 1320 	str.w	r1, [r0, #800]	; 0x320
 80032fe:	ea99 010b 	eors.w	r1, r9, fp
 8003302:	ea0a 020b 	and.w	r2, sl, fp
 8003306:	4051      	eors	r1, r2
 8003308:	ea0a 0206 	and.w	r2, sl, r6
 800330c:	4051      	eors	r1, r2
 800330e:	ea05 020b 	and.w	r2, r5, fp
 8003312:	4051      	eors	r1, r2
 8003314:	f8c0 1350 	str.w	r1, [r0, #848]	; 0x350
 8003318:	ea9a 010c 	eors.w	r1, sl, ip
 800331c:	ea0b 020c 	and.w	r2, fp, ip
 8003320:	4051      	eors	r1, r2
 8003322:	ea0b 0207 	and.w	r2, fp, r7
 8003326:	4051      	eors	r1, r2
 8003328:	ea06 020c 	and.w	r2, r6, ip
 800332c:	4051      	eors	r1, r2
 800332e:	f8c0 1384 	str.w	r1, [r0, #900]	; 0x384
 8003332:	ea9b 0108 	eors.w	r1, fp, r8
 8003336:	ea0c 0208 	and.w	r2, ip, r8
 800333a:	4051      	eors	r1, r2
 800333c:	ea0c 0203 	and.w	r2, ip, r3
 8003340:	4051      	eors	r1, r2
 8003342:	ea07 0208 	and.w	r2, r7, r8
 8003346:	4051      	eors	r1, r2
 8003348:	f8c0 13b4 	str.w	r1, [r0, #948]	; 0x3b4
 800334c:	ea9c 0109 	eors.w	r1, ip, r9
 8003350:	ea08 0209 	and.w	r2, r8, r9
 8003354:	4051      	eors	r1, r2
 8003356:	ea08 0204 	and.w	r2, r8, r4
 800335a:	4051      	eors	r1, r2
 800335c:	ea03 0209 	and.w	r2, r3, r9
 8003360:	4051      	eors	r1, r2
 8003362:	f8c0 13e0 	str.w	r1, [r0, #992]	; 0x3e0
 8003366:	f8d0 80c8 	ldr.w	r8, [r0, #200]	; 0xc8
 800336a:	f8d0 90f8 	ldr.w	r9, [r0, #248]	; 0xf8
 800336e:	f8d0 a12c 	ldr.w	sl, [r0, #300]	; 0x12c
 8003372:	f8d0 b15c 	ldr.w	fp, [r0, #348]	; 0x15c
 8003376:	f8d0 c188 	ldr.w	ip, [r0, #392]	; 0x188
 800337a:	ea94 0106 	eors.w	r1, r4, r6
 800337e:	ea05 0206 	and.w	r2, r5, r6
 8003382:	4051      	eors	r1, r2
 8003384:	ea05 020b 	and.w	r2, r5, fp
 8003388:	4051      	eors	r1, r2
 800338a:	ea0a 0206 	and.w	r2, sl, r6
 800338e:	4051      	eors	r1, r2
 8003390:	f8c0 1418 	str.w	r1, [r0, #1048]	; 0x418
 8003394:	ea95 0107 	eors.w	r1, r5, r7
 8003398:	ea06 0207 	and.w	r2, r6, r7
 800339c:	4051      	eors	r1, r2
 800339e:	ea06 020c 	and.w	r2, r6, ip
 80033a2:	4051      	eors	r1, r2
 80033a4:	ea0b 0207 	and.w	r2, fp, r7
 80033a8:	4051      	eors	r1, r2
 80033aa:	f8c0 144c 	str.w	r1, [r0, #1100]	; 0x44c
 80033ae:	ea96 0103 	eors.w	r1, r6, r3
 80033b2:	ea07 0203 	and.w	r2, r7, r3
 80033b6:	4051      	eors	r1, r2
 80033b8:	ea07 0208 	and.w	r2, r7, r8
 80033bc:	4051      	eors	r1, r2
 80033be:	ea0c 0203 	and.w	r2, ip, r3
 80033c2:	4051      	eors	r1, r2
 80033c4:	f8c0 147c 	str.w	r1, [r0, #1148]	; 0x47c
 80033c8:	ea97 0104 	eors.w	r1, r7, r4
 80033cc:	ea03 0204 	and.w	r2, r3, r4
 80033d0:	4051      	eors	r1, r2
 80033d2:	ea03 0209 	and.w	r2, r3, r9
 80033d6:	4051      	eors	r1, r2
 80033d8:	ea08 0204 	and.w	r2, r8, r4
 80033dc:	4051      	eors	r1, r2
 80033de:	f8c0 14a8 	str.w	r1, [r0, #1192]	; 0x4a8
 80033e2:	f8d0 1528 	ldr.w	r1, [r0, #1320]	; 0x528
 80033e6:	ea93 0605 	eors.w	r6, r3, r5
 80033ea:	ea04 0705 	and.w	r7, r4, r5
 80033ee:	407e      	eors	r6, r7
 80033f0:	ea04 070a 	and.w	r7, r4, sl
 80033f4:	407e      	eors	r6, r7
 80033f6:	ea09 0705 	and.w	r7, r9, r5
 80033fa:	407e      	eors	r6, r7
 80033fc:	680c      	ldr	r4, [r1, #0]
 80033fe:	4066      	eors	r6, r4
 8003400:	f8c0 63e8 	str.w	r6, [r0, #1000]	; 0x3e8
 8003404:	e8bd 5f04 	ldmia.w	sp!, {r2, r8, r9, sl, fp, ip, lr}
 8003408:	f8d0 24e8 	ldr.w	r2, [r0, #1256]	; 0x4e8
 800340c:	e92d 5f04 	stmdb	sp!, {r2, r8, r9, sl, fp, ip, lr}
 8003410:	f8d0 5118 	ldr.w	r5, [r0, #280]	; 0x118
 8003414:	f8d0 6148 	ldr.w	r6, [r0, #328]	; 0x148
 8003418:	f8d0 7178 	ldr.w	r7, [r0, #376]	; 0x178
 800341c:	f8d0 30e4 	ldr.w	r3, [r0, #228]	; 0xe4
 8003420:	f8d0 4114 	ldr.w	r4, [r0, #276]	; 0x114
 8003424:	ea95 0508 	eors.w	r5, r5, r8
 8003428:	ea96 060a 	eors.w	r6, r6, sl
 800342c:	4057      	eors	r7, r2
 800342e:	ea93 0309 	eors.w	r3, r3, r9
 8003432:	ea94 040e 	eors.w	r4, r4, lr
 8003436:	ea5f 75f5 	movs.w	r5, r5, ror #31
 800343a:	ea5f 26b6 	movs.w	r6, r6, ror #10
 800343e:	ea5f 07b7 	movs.w	r7, r7, ror #2
 8003442:	ea5f 43b3 	movs.w	r3, r3, ror #18
 8003446:	ea5f 54b4 	movs.w	r4, r4, ror #22
 800344a:	f8c0 5118 	str.w	r5, [r0, #280]	; 0x118
 800344e:	f8c0 6148 	str.w	r6, [r0, #328]	; 0x148
 8003452:	f8c0 7178 	str.w	r7, [r0, #376]	; 0x178
 8003456:	f8c0 30e4 	str.w	r3, [r0, #228]	; 0xe4
 800345a:	f8c0 4114 	str.w	r4, [r0, #276]	; 0x114
 800345e:	f8d0 a1e0 	ldr.w	sl, [r0, #480]	; 0x1e0
 8003462:	f8d0 1500 	ldr.w	r1, [r0, #1280]	; 0x500
 8003466:	f8d0 b210 	ldr.w	fp, [r0, #528]	; 0x210
 800346a:	f8d0 2508 	ldr.w	r2, [r0, #1288]	; 0x508
 800346e:	f8d0 c240 	ldr.w	ip, [r0, #576]	; 0x240
 8003472:	f8d0 e510 	ldr.w	lr, [r0, #1296]	; 0x510
 8003476:	ea9a 0a01 	eors.w	sl, sl, r1
 800347a:	ea9b 0b02 	eors.w	fp, fp, r2
 800347e:	ea9c 0c0e 	eors.w	ip, ip, lr
 8003482:	f8d0 81ac 	ldr.w	r8, [r0, #428]	; 0x1ac
 8003486:	f8d0 151c 	ldr.w	r1, [r0, #1308]	; 0x51c
 800348a:	f8d0 91dc 	ldr.w	r9, [r0, #476]	; 0x1dc
 800348e:	f8d0 e524 	ldr.w	lr, [r0, #1316]	; 0x524
 8003492:	ea98 0801 	eors.w	r8, r8, r1
 8003496:	ea99 090e 	eors.w	r9, r9, lr
 800349a:	ea5f 7afa 	movs.w	sl, sl, ror #31
 800349e:	ea5f 2bbb 	movs.w	fp, fp, ror #10
 80034a2:	ea5f 0cbc 	movs.w	ip, ip, ror #2
 80034a6:	ea5f 48b8 	movs.w	r8, r8, ror #18
 80034aa:	ea5f 59b9 	movs.w	r9, r9, ror #22
 80034ae:	ea93 0105 	eors.w	r1, r3, r5
 80034b2:	ea04 0205 	and.w	r2, r4, r5
 80034b6:	4051      	eors	r1, r2
 80034b8:	ea04 020a 	and.w	r2, r4, sl
 80034bc:	4051      	eors	r1, r2
 80034be:	ea09 0205 	and.w	r2, r9, r5
 80034c2:	4051      	eors	r1, r2
 80034c4:	f8c0 12a8 	str.w	r1, [r0, #680]	; 0x2a8
 80034c8:	ea94 0106 	eors.w	r1, r4, r6
 80034cc:	ea05 0206 	and.w	r2, r5, r6
 80034d0:	4051      	eors	r1, r2
 80034d2:	ea05 020b 	and.w	r2, r5, fp
 80034d6:	4051      	eors	r1, r2
 80034d8:	ea0a 0206 	and.w	r2, sl, r6
 80034dc:	4051      	eors	r1, r2
 80034de:	f8c0 12d8 	str.w	r1, [r0, #728]	; 0x2d8
 80034e2:	ea95 0107 	eors.w	r1, r5, r7
 80034e6:	ea06 0207 	and.w	r2, r6, r7
 80034ea:	4051      	eors	r1, r2
 80034ec:	ea06 020c 	and.w	r2, r6, ip
 80034f0:	4051      	eors	r1, r2
 80034f2:	ea0b 0207 	and.w	r2, fp, r7
 80034f6:	4051      	eors	r1, r2
 80034f8:	f8c0 1308 	str.w	r1, [r0, #776]	; 0x308
 80034fc:	ea96 0103 	eors.w	r1, r6, r3
 8003500:	ea07 0203 	and.w	r2, r7, r3
 8003504:	4051      	eors	r1, r2
 8003506:	ea07 0208 	and.w	r2, r7, r8
 800350a:	4051      	eors	r1, r2
 800350c:	ea0c 0203 	and.w	r2, ip, r3
 8003510:	4051      	eors	r1, r2
 8003512:	f8c0 1274 	str.w	r1, [r0, #628]	; 0x274
 8003516:	ea97 0104 	eors.w	r1, r7, r4
 800351a:	ea03 0204 	and.w	r2, r3, r4
 800351e:	4051      	eors	r1, r2
 8003520:	ea03 0209 	and.w	r2, r3, r9
 8003524:	4051      	eors	r1, r2
 8003526:	ea08 0204 	and.w	r2, r8, r4
 800352a:	4051      	eors	r1, r2
 800352c:	f8c0 12a4 	str.w	r1, [r0, #676]	; 0x2a4
 8003530:	6d05      	ldr	r5, [r0, #80]	; 0x50
 8003532:	f8d0 14b0 	ldr.w	r1, [r0, #1200]	; 0x4b0
 8003536:	f8d0 6080 	ldr.w	r6, [r0, #128]	; 0x80
 800353a:	f8d0 24b8 	ldr.w	r2, [r0, #1208]	; 0x4b8
 800353e:	f8d0 70b0 	ldr.w	r7, [r0, #176]	; 0xb0
 8003542:	f8d0 e4c0 	ldr.w	lr, [r0, #1216]	; 0x4c0
 8003546:	404d      	eors	r5, r1
 8003548:	4056      	eors	r6, r2
 800354a:	ea97 070e 	eors.w	r7, r7, lr
 800354e:	69c3      	ldr	r3, [r0, #28]
 8003550:	f8d0 14cc 	ldr.w	r1, [r0, #1228]	; 0x4cc
 8003554:	6cc4      	ldr	r4, [r0, #76]	; 0x4c
 8003556:	f8d0 e4d4 	ldr.w	lr, [r0, #1236]	; 0x4d4
 800355a:	404b      	eors	r3, r1
 800355c:	ea94 040e 	eors.w	r4, r4, lr
 8003560:	ea5f 75f5 	movs.w	r5, r5, ror #31
 8003564:	ea5f 26b6 	movs.w	r6, r6, ror #10
 8003568:	ea5f 07b7 	movs.w	r7, r7, ror #2
 800356c:	ea5f 43b3 	movs.w	r3, r3, ror #18
 8003570:	ea5f 54b4 	movs.w	r4, r4, ror #22
 8003574:	ea98 010a 	eors.w	r1, r8, sl
 8003578:	ea09 020a 	and.w	r2, r9, sl
 800357c:	4051      	eors	r1, r2
 800357e:	ea09 0205 	and.w	r2, r9, r5
 8003582:	4051      	eors	r1, r2
 8003584:	ea04 020a 	and.w	r2, r4, sl
 8003588:	4051      	eors	r1, r2
 800358a:	f8c0 1370 	str.w	r1, [r0, #880]	; 0x370
 800358e:	ea99 010b 	eors.w	r1, r9, fp
 8003592:	ea0a 020b 	and.w	r2, sl, fp
 8003596:	4051      	eors	r1, r2
 8003598:	ea0a 0206 	and.w	r2, sl, r6
 800359c:	4051      	eors	r1, r2
 800359e:	ea05 020b 	and.w	r2, r5, fp
 80035a2:	4051      	eors	r1, r2
 80035a4:	f8c0 13a0 	str.w	r1, [r0, #928]	; 0x3a0
 80035a8:	ea9a 010c 	eors.w	r1, sl, ip
 80035ac:	ea0b 020c 	and.w	r2, fp, ip
 80035b0:	4051      	eors	r1, r2
 80035b2:	ea0b 0207 	and.w	r2, fp, r7
 80035b6:	4051      	eors	r1, r2
 80035b8:	ea06 020c 	and.w	r2, r6, ip
 80035bc:	4051      	eors	r1, r2
 80035be:	f8c0 13d0 	str.w	r1, [r0, #976]	; 0x3d0
 80035c2:	ea9b 0108 	eors.w	r1, fp, r8
 80035c6:	ea0c 0208 	and.w	r2, ip, r8
 80035ca:	4051      	eors	r1, r2
 80035cc:	ea0c 0203 	and.w	r2, ip, r3
 80035d0:	4051      	eors	r1, r2
 80035d2:	ea07 0208 	and.w	r2, r7, r8
 80035d6:	4051      	eors	r1, r2
 80035d8:	f8c0 133c 	str.w	r1, [r0, #828]	; 0x33c
 80035dc:	ea9c 0109 	eors.w	r1, ip, r9
 80035e0:	ea08 0209 	and.w	r2, r8, r9
 80035e4:	4051      	eors	r1, r2
 80035e6:	ea08 0204 	and.w	r2, r8, r4
 80035ea:	4051      	eors	r1, r2
 80035ec:	ea03 0209 	and.w	r2, r3, r9
 80035f0:	4051      	eors	r1, r2
 80035f2:	f8c0 136c 	str.w	r1, [r0, #876]	; 0x36c
 80035f6:	f8d0 a118 	ldr.w	sl, [r0, #280]	; 0x118
 80035fa:	f8d0 b148 	ldr.w	fp, [r0, #328]	; 0x148
 80035fe:	f8d0 c178 	ldr.w	ip, [r0, #376]	; 0x178
 8003602:	f8d0 80e4 	ldr.w	r8, [r0, #228]	; 0xe4
 8003606:	f8d0 9114 	ldr.w	r9, [r0, #276]	; 0x114
 800360a:	ea93 0105 	eors.w	r1, r3, r5
 800360e:	ea04 0205 	and.w	r2, r4, r5
 8003612:	4051      	eors	r1, r2
 8003614:	ea04 020a 	and.w	r2, r4, sl
 8003618:	4051      	eors	r1, r2
 800361a:	ea09 0205 	and.w	r2, r9, r5
 800361e:	4051      	eors	r1, r2
 8003620:	f8c0 1438 	str.w	r1, [r0, #1080]	; 0x438
 8003624:	ea94 0106 	eors.w	r1, r4, r6
 8003628:	ea05 0206 	and.w	r2, r5, r6
 800362c:	4051      	eors	r1, r2
 800362e:	ea05 020b 	and.w	r2, r5, fp
 8003632:	4051      	eors	r1, r2
 8003634:	ea0a 0206 	and.w	r2, sl, r6
 8003638:	4051      	eors	r1, r2
 800363a:	f8c0 1468 	str.w	r1, [r0, #1128]	; 0x468
 800363e:	ea95 0107 	eors.w	r1, r5, r7
 8003642:	ea06 0207 	and.w	r2, r6, r7
 8003646:	4051      	eors	r1, r2
 8003648:	ea06 020c 	and.w	r2, r6, ip
 800364c:	4051      	eors	r1, r2
 800364e:	ea0b 0207 	and.w	r2, fp, r7
 8003652:	4051      	eors	r1, r2
 8003654:	f8c0 1498 	str.w	r1, [r0, #1176]	; 0x498
 8003658:	ea96 0103 	eors.w	r1, r6, r3
 800365c:	ea07 0203 	and.w	r2, r7, r3
 8003660:	4051      	eors	r1, r2
 8003662:	ea07 0208 	and.w	r2, r7, r8
 8003666:	4051      	eors	r1, r2
 8003668:	ea0c 0203 	and.w	r2, ip, r3
 800366c:	4051      	eors	r1, r2
 800366e:	f8c0 1404 	str.w	r1, [r0, #1028]	; 0x404
 8003672:	ea97 0104 	eors.w	r1, r7, r4
 8003676:	ea03 0204 	and.w	r2, r3, r4
 800367a:	4051      	eors	r1, r2
 800367c:	ea03 0209 	and.w	r2, r3, r9
 8003680:	4051      	eors	r1, r2
 8003682:	ea08 0204 	and.w	r2, r8, r4
 8003686:	4051      	eors	r1, r2
 8003688:	f8c0 1434 	str.w	r1, [r0, #1076]	; 0x434
 800368c:	e8bd 5f04 	ldmia.w	sp!, {r2, r8, r9, sl, fp, ip, lr}
 8003690:	e92d 5f04 	stmdb	sp!, {r2, r8, r9, sl, fp, ip, lr}
 8003694:	f8d0 7168 	ldr.w	r7, [r0, #360]	; 0x168
 8003698:	f8d0 30d4 	ldr.w	r3, [r0, #212]	; 0xd4
 800369c:	f8d0 4100 	ldr.w	r4, [r0, #256]	; 0x100
 80036a0:	f8d0 5134 	ldr.w	r5, [r0, #308]	; 0x134
 80036a4:	f8d0 6160 	ldr.w	r6, [r0, #352]	; 0x160
 80036a8:	ea97 0708 	eors.w	r7, r7, r8
 80036ac:	ea93 030b 	eors.w	r3, r3, fp
 80036b0:	4054      	eors	r4, r2
 80036b2:	ea95 0509 	eors.w	r5, r5, r9
 80036b6:	ea96 060c 	eors.w	r6, r6, ip
 80036ba:	ea5f 57f7 	movs.w	r7, r7, ror #23
 80036be:	ea5f 73f3 	movs.w	r3, r3, ror #31
 80036c2:	ea5f 7474 	movs.w	r4, r4, ror #29
 80036c6:	ea5f 45f5 	movs.w	r5, r5, ror #19
 80036ca:	ea5f 7636 	movs.w	r6, r6, ror #28
 80036ce:	f8c0 7168 	str.w	r7, [r0, #360]	; 0x168
 80036d2:	f8c0 30d4 	str.w	r3, [r0, #212]	; 0xd4
 80036d6:	f8c0 4100 	str.w	r4, [r0, #256]	; 0x100
 80036da:	f8c0 5134 	str.w	r5, [r0, #308]	; 0x134
 80036de:	f8c0 6160 	str.w	r6, [r0, #352]	; 0x160
 80036e2:	f8d0 c230 	ldr.w	ip, [r0, #560]	; 0x230
 80036e6:	f8d0 1500 	ldr.w	r1, [r0, #1280]	; 0x500
 80036ea:	f8d0 819c 	ldr.w	r8, [r0, #412]	; 0x19c
 80036ee:	f8d0 250c 	ldr.w	r2, [r0, #1292]	; 0x50c
 80036f2:	f8d0 91c8 	ldr.w	r9, [r0, #456]	; 0x1c8
 80036f6:	f8d0 e510 	ldr.w	lr, [r0, #1296]	; 0x510
 80036fa:	ea9c 0c01 	eors.w	ip, ip, r1
 80036fe:	ea98 0802 	eors.w	r8, r8, r2
 8003702:	ea99 090e 	eors.w	r9, r9, lr
 8003706:	f8d0 a1fc 	ldr.w	sl, [r0, #508]	; 0x1fc
 800370a:	f8d0 151c 	ldr.w	r1, [r0, #1308]	; 0x51c
 800370e:	f8d0 b228 	ldr.w	fp, [r0, #552]	; 0x228
 8003712:	f8d0 e520 	ldr.w	lr, [r0, #1312]	; 0x520
 8003716:	ea9a 0a01 	eors.w	sl, sl, r1
 800371a:	ea9b 0b0e 	eors.w	fp, fp, lr
 800371e:	ea5f 5cfc 	movs.w	ip, ip, ror #23
 8003722:	ea5f 78f8 	movs.w	r8, r8, ror #31
 8003726:	ea5f 7979 	movs.w	r9, r9, ror #29
 800372a:	ea5f 4afa 	movs.w	sl, sl, ror #19
 800372e:	ea5f 7b3b 	movs.w	fp, fp, ror #28
 8003732:	ea93 0105 	eors.w	r1, r3, r5
 8003736:	ea04 0205 	and.w	r2, r4, r5
 800373a:	4051      	eors	r1, r2
 800373c:	ea04 020a 	and.w	r2, r4, sl
 8003740:	4051      	eors	r1, r2
 8003742:	ea09 0205 	and.w	r2, r9, r5
 8003746:	4051      	eors	r1, r2
 8003748:	f8c0 12f8 	str.w	r1, [r0, #760]	; 0x2f8
 800374c:	ea94 0106 	eors.w	r1, r4, r6
 8003750:	ea05 0206 	and.w	r2, r5, r6
 8003754:	4051      	eors	r1, r2
 8003756:	ea05 020b 	and.w	r2, r5, fp
 800375a:	4051      	eors	r1, r2
 800375c:	ea0a 0206 	and.w	r2, sl, r6
 8003760:	4051      	eors	r1, r2
 8003762:	f8c0 1264 	str.w	r1, [r0, #612]	; 0x264
 8003766:	ea95 0107 	eors.w	r1, r5, r7
 800376a:	ea06 0207 	and.w	r2, r6, r7
 800376e:	4051      	eors	r1, r2
 8003770:	ea06 020c 	and.w	r2, r6, ip
 8003774:	4051      	eors	r1, r2
 8003776:	ea0b 0207 	and.w	r2, fp, r7
 800377a:	4051      	eors	r1, r2
 800377c:	f8c0 1290 	str.w	r1, [r0, #656]	; 0x290
 8003780:	ea96 0103 	eors.w	r1, r6, r3
 8003784:	ea07 0203 	and.w	r2, r7, r3
 8003788:	4051      	eors	r1, r2
 800378a:	ea07 0208 	and.w	r2, r7, r8
 800378e:	4051      	eors	r1, r2
 8003790:	ea0c 0203 	and.w	r2, ip, r3
 8003794:	4051      	eors	r1, r2
 8003796:	f8c0 12c4 	str.w	r1, [r0, #708]	; 0x2c4
 800379a:	ea97 0104 	eors.w	r1, r7, r4
 800379e:	ea03 0204 	and.w	r2, r3, r4
 80037a2:	4051      	eors	r1, r2
 80037a4:	ea03 0209 	and.w	r2, r3, r9
 80037a8:	4051      	eors	r1, r2
 80037aa:	ea08 0204 	and.w	r2, r8, r4
 80037ae:	4051      	eors	r1, r2
 80037b0:	f8c0 12f0 	str.w	r1, [r0, #752]	; 0x2f0
 80037b4:	f8d0 70a0 	ldr.w	r7, [r0, #160]	; 0xa0
 80037b8:	f8d0 14b0 	ldr.w	r1, [r0, #1200]	; 0x4b0
 80037bc:	68c3      	ldr	r3, [r0, #12]
 80037be:	f8d0 24bc 	ldr.w	r2, [r0, #1212]	; 0x4bc
 80037c2:	6b84      	ldr	r4, [r0, #56]	; 0x38
 80037c4:	f8d0 e4c0 	ldr.w	lr, [r0, #1216]	; 0x4c0
 80037c8:	404f      	eors	r7, r1
 80037ca:	4053      	eors	r3, r2
 80037cc:	ea94 040e 	eors.w	r4, r4, lr
 80037d0:	6ec5      	ldr	r5, [r0, #108]	; 0x6c
 80037d2:	f8d0 14cc 	ldr.w	r1, [r0, #1228]	; 0x4cc
 80037d6:	f8d0 6098 	ldr.w	r6, [r0, #152]	; 0x98
 80037da:	f8d0 e4d0 	ldr.w	lr, [r0, #1232]	; 0x4d0
 80037de:	404d      	eors	r5, r1
 80037e0:	ea96 060e 	eors.w	r6, r6, lr
 80037e4:	ea5f 57f7 	movs.w	r7, r7, ror #23
 80037e8:	ea5f 73f3 	movs.w	r3, r3, ror #31
 80037ec:	ea5f 7474 	movs.w	r4, r4, ror #29
 80037f0:	ea5f 45f5 	movs.w	r5, r5, ror #19
 80037f4:	ea5f 7636 	movs.w	r6, r6, ror #28
 80037f8:	ea98 010a 	eors.w	r1, r8, sl
 80037fc:	ea09 020a 	and.w	r2, r9, sl
 8003800:	4051      	eors	r1, r2
 8003802:	ea09 0205 	and.w	r2, r9, r5
 8003806:	4051      	eors	r1, r2
 8003808:	ea04 020a 	and.w	r2, r4, sl
 800380c:	4051      	eors	r1, r2
 800380e:	f8c0 13c0 	str.w	r1, [r0, #960]	; 0x3c0
 8003812:	ea99 010b 	eors.w	r1, r9, fp
 8003816:	ea0a 020b 	and.w	r2, sl, fp
 800381a:	4051      	eors	r1, r2
 800381c:	ea0a 0206 	and.w	r2, sl, r6
 8003820:	4051      	eors	r1, r2
 8003822:	ea05 020b 	and.w	r2, r5, fp
 8003826:	4051      	eors	r1, r2
 8003828:	f8c0 132c 	str.w	r1, [r0, #812]	; 0x32c
 800382c:	ea9a 010c 	eors.w	r1, sl, ip
 8003830:	ea0b 020c 	and.w	r2, fp, ip
 8003834:	4051      	eors	r1, r2
 8003836:	ea0b 0207 	and.w	r2, fp, r7
 800383a:	4051      	eors	r1, r2
 800383c:	ea06 020c 	and.w	r2, r6, ip
 8003840:	4051      	eors	r1, r2
 8003842:	f8c0 1358 	str.w	r1, [r0, #856]	; 0x358
 8003846:	ea9b 0108 	eors.w	r1, fp, r8
 800384a:	ea0c 0208 	and.w	r2, ip, r8
 800384e:	4051      	eors	r1, r2
 8003850:	ea0c 0203 	and.w	r2, ip, r3
 8003854:	4051      	eors	r1, r2
 8003856:	ea07 0208 	and.w	r2, r7, r8
 800385a:	4051      	eors	r1, r2
 800385c:	f8c0 138c 	str.w	r1, [r0, #908]	; 0x38c
 8003860:	ea9c 0109 	eors.w	r1, ip, r9
 8003864:	ea08 0209 	and.w	r2, r8, r9
 8003868:	4051      	eors	r1, r2
 800386a:	ea08 0204 	and.w	r2, r8, r4
 800386e:	4051      	eors	r1, r2
 8003870:	ea03 0209 	and.w	r2, r3, r9
 8003874:	4051      	eors	r1, r2
 8003876:	f8c0 13b8 	str.w	r1, [r0, #952]	; 0x3b8
 800387a:	f8d0 c168 	ldr.w	ip, [r0, #360]	; 0x168
 800387e:	f8d0 80d4 	ldr.w	r8, [r0, #212]	; 0xd4
 8003882:	f8d0 9100 	ldr.w	r9, [r0, #256]	; 0x100
 8003886:	f8d0 a134 	ldr.w	sl, [r0, #308]	; 0x134
 800388a:	f8d0 b160 	ldr.w	fp, [r0, #352]	; 0x160
 800388e:	ea93 0105 	eors.w	r1, r3, r5
 8003892:	ea04 0205 	and.w	r2, r4, r5
 8003896:	4051      	eors	r1, r2
 8003898:	ea04 020a 	and.w	r2, r4, sl
 800389c:	4051      	eors	r1, r2
 800389e:	ea09 0205 	and.w	r2, r9, r5
 80038a2:	4051      	eors	r1, r2
 80038a4:	f8c0 1488 	str.w	r1, [r0, #1160]	; 0x488
 80038a8:	ea94 0106 	eors.w	r1, r4, r6
 80038ac:	ea05 0206 	and.w	r2, r5, r6
 80038b0:	4051      	eors	r1, r2
 80038b2:	ea05 020b 	and.w	r2, r5, fp
 80038b6:	4051      	eors	r1, r2
 80038b8:	ea0a 0206 	and.w	r2, sl, r6
 80038bc:	4051      	eors	r1, r2
 80038be:	f8c0 13f4 	str.w	r1, [r0, #1012]	; 0x3f4
 80038c2:	ea95 0107 	eors.w	r1, r5, r7
 80038c6:	ea06 0207 	and.w	r2, r6, r7
 80038ca:	4051      	eors	r1, r2
 80038cc:	ea06 020c 	and.w	r2, r6, ip
 80038d0:	4051      	eors	r1, r2
 80038d2:	ea0b 0207 	and.w	r2, fp, r7
 80038d6:	4051      	eors	r1, r2
 80038d8:	f8c0 1420 	str.w	r1, [r0, #1056]	; 0x420
 80038dc:	ea96 0103 	eors.w	r1, r6, r3
 80038e0:	ea07 0203 	and.w	r2, r7, r3
 80038e4:	4051      	eors	r1, r2
 80038e6:	ea07 0208 	and.w	r2, r7, r8
 80038ea:	4051      	eors	r1, r2
 80038ec:	ea0c 0203 	and.w	r2, ip, r3
 80038f0:	4051      	eors	r1, r2
 80038f2:	f8c0 1454 	str.w	r1, [r0, #1108]	; 0x454
 80038f6:	ea97 0104 	eors.w	r1, r7, r4
 80038fa:	ea03 0204 	and.w	r2, r3, r4
 80038fe:	4051      	eors	r1, r2
 8003900:	ea03 0209 	and.w	r2, r3, r9
 8003904:	4051      	eors	r1, r2
 8003906:	ea08 0204 	and.w	r2, r8, r4
 800390a:	4051      	eors	r1, r2
 800390c:	f8c0 1480 	str.w	r1, [r0, #1152]	; 0x480
 8003910:	e8bd 5f04 	ldmia.w	sp!, {r2, r8, r9, sl, fp, ip, lr}
 8003914:	f8d0 84dc 	ldr.w	r8, [r0, #1244]	; 0x4dc
 8003918:	e92d 5f04 	stmdb	sp!, {r2, r8, r9, sl, fp, ip, lr}
 800391c:	f8d0 40f4 	ldr.w	r4, [r0, #244]	; 0xf4
 8003920:	f8d0 5124 	ldr.w	r5, [r0, #292]	; 0x124
 8003924:	f8d0 6150 	ldr.w	r6, [r0, #336]	; 0x150
 8003928:	f8d0 7184 	ldr.w	r7, [r0, #388]	; 0x184
 800392c:	f8d0 30e8 	ldr.w	r3, [r0, #232]	; 0xe8
 8003930:	ea94 0408 	eors.w	r4, r4, r8
 8003934:	ea95 050b 	eors.w	r5, r5, fp
 8003938:	4056      	eors	r6, r2
 800393a:	ea97 0709 	eors.w	r7, r7, r9
 800393e:	ea93 030c 	eors.w	r3, r3, ip
 8003942:	ea5f 34b4 	movs.w	r4, r4, ror #14
 8003946:	ea5f 65f5 	movs.w	r5, r5, ror #27
 800394a:	ea5f 6676 	movs.w	r6, r6, ror #25
 800394e:	ea5f 1737 	movs.w	r7, r7, ror #4
 8003952:	ea5f 43f3 	movs.w	r3, r3, ror #19
 8003956:	f8c0 40f4 	str.w	r4, [r0, #244]	; 0xf4
 800395a:	f8c0 5124 	str.w	r5, [r0, #292]	; 0x124
 800395e:	f8c0 6150 	str.w	r6, [r0, #336]	; 0x150
 8003962:	f8c0 7184 	str.w	r7, [r0, #388]	; 0x184
 8003966:	f8c0 30e8 	str.w	r3, [r0, #232]	; 0xe8
 800396a:	f8d0 91bc 	ldr.w	r9, [r0, #444]	; 0x1bc
 800396e:	f8d0 1504 	ldr.w	r1, [r0, #1284]	; 0x504
 8003972:	f8d0 a1ec 	ldr.w	sl, [r0, #492]	; 0x1ec
 8003976:	f8d0 250c 	ldr.w	r2, [r0, #1292]	; 0x50c
 800397a:	f8d0 b218 	ldr.w	fp, [r0, #536]	; 0x218
 800397e:	f8d0 e510 	ldr.w	lr, [r0, #1296]	; 0x510
 8003982:	ea99 0901 	eors.w	r9, r9, r1
 8003986:	ea9a 0a02 	eors.w	sl, sl, r2
 800398a:	ea9b 0b0e 	eors.w	fp, fp, lr
 800398e:	f8d0 c24c 	ldr.w	ip, [r0, #588]	; 0x24c
 8003992:	f8d0 151c 	ldr.w	r1, [r0, #1308]	; 0x51c
 8003996:	f8d0 81b0 	ldr.w	r8, [r0, #432]	; 0x1b0
 800399a:	f8d0 e520 	ldr.w	lr, [r0, #1312]	; 0x520
 800399e:	ea9c 0c01 	eors.w	ip, ip, r1
 80039a2:	ea98 080e 	eors.w	r8, r8, lr
 80039a6:	ea5f 39b9 	movs.w	r9, r9, ror #14
 80039aa:	ea5f 6afa 	movs.w	sl, sl, ror #27
 80039ae:	ea5f 6b7b 	movs.w	fp, fp, ror #25
 80039b2:	ea5f 1c3c 	movs.w	ip, ip, ror #4
 80039b6:	ea5f 48f8 	movs.w	r8, r8, ror #19
 80039ba:	ea93 0105 	eors.w	r1, r3, r5
 80039be:	ea04 0205 	and.w	r2, r4, r5
 80039c2:	4051      	eors	r1, r2
 80039c4:	ea04 020a 	and.w	r2, r4, sl
 80039c8:	4051      	eors	r1, r2
 80039ca:	ea09 0205 	and.w	r2, r9, r5
 80039ce:	4051      	eors	r1, r2
 80039d0:	f8c0 1284 	str.w	r1, [r0, #644]	; 0x284
 80039d4:	ea94 0106 	eors.w	r1, r4, r6
 80039d8:	ea05 0206 	and.w	r2, r5, r6
 80039dc:	4051      	eors	r1, r2
 80039de:	ea05 020b 	and.w	r2, r5, fp
 80039e2:	4051      	eors	r1, r2
 80039e4:	ea0a 0206 	and.w	r2, sl, r6
 80039e8:	4051      	eors	r1, r2
 80039ea:	f8c0 12b4 	str.w	r1, [r0, #692]	; 0x2b4
 80039ee:	ea95 0107 	eors.w	r1, r5, r7
 80039f2:	ea06 0207 	and.w	r2, r6, r7
 80039f6:	4051      	eors	r1, r2
 80039f8:	ea06 020c 	and.w	r2, r6, ip
 80039fc:	4051      	eors	r1, r2
 80039fe:	ea0b 0207 	and.w	r2, fp, r7
 8003a02:	4051      	eors	r1, r2
 8003a04:	f8c0 12e0 	str.w	r1, [r0, #736]	; 0x2e0
 8003a08:	ea96 0103 	eors.w	r1, r6, r3
 8003a0c:	ea07 0203 	and.w	r2, r7, r3
 8003a10:	4051      	eors	r1, r2
 8003a12:	ea07 0208 	and.w	r2, r7, r8
 8003a16:	4051      	eors	r1, r2
 8003a18:	ea0c 0203 	and.w	r2, ip, r3
 8003a1c:	4051      	eors	r1, r2
 8003a1e:	f8c0 1314 	str.w	r1, [r0, #788]	; 0x314
 8003a22:	ea97 0104 	eors.w	r1, r7, r4
 8003a26:	ea03 0204 	and.w	r2, r3, r4
 8003a2a:	4051      	eors	r1, r2
 8003a2c:	ea03 0209 	and.w	r2, r3, r9
 8003a30:	4051      	eors	r1, r2
 8003a32:	ea08 0204 	and.w	r2, r8, r4
 8003a36:	4051      	eors	r1, r2
 8003a38:	f8c0 1278 	str.w	r1, [r0, #632]	; 0x278
 8003a3c:	6ac4      	ldr	r4, [r0, #44]	; 0x2c
 8003a3e:	f8d0 14b4 	ldr.w	r1, [r0, #1204]	; 0x4b4
 8003a42:	6dc5      	ldr	r5, [r0, #92]	; 0x5c
 8003a44:	f8d0 24bc 	ldr.w	r2, [r0, #1212]	; 0x4bc
 8003a48:	f8d0 6088 	ldr.w	r6, [r0, #136]	; 0x88
 8003a4c:	f8d0 e4c0 	ldr.w	lr, [r0, #1216]	; 0x4c0
 8003a50:	404c      	eors	r4, r1
 8003a52:	4055      	eors	r5, r2
 8003a54:	ea96 060e 	eors.w	r6, r6, lr
 8003a58:	f8d0 70bc 	ldr.w	r7, [r0, #188]	; 0xbc
 8003a5c:	f8d0 14cc 	ldr.w	r1, [r0, #1228]	; 0x4cc
 8003a60:	6a03      	ldr	r3, [r0, #32]
 8003a62:	f8d0 e4d0 	ldr.w	lr, [r0, #1232]	; 0x4d0
 8003a66:	404f      	eors	r7, r1
 8003a68:	ea93 030e 	eors.w	r3, r3, lr
 8003a6c:	ea5f 34b4 	movs.w	r4, r4, ror #14
 8003a70:	ea5f 65f5 	movs.w	r5, r5, ror #27
 8003a74:	ea5f 6676 	movs.w	r6, r6, ror #25
 8003a78:	ea5f 1737 	movs.w	r7, r7, ror #4
 8003a7c:	ea5f 43f3 	movs.w	r3, r3, ror #19
 8003a80:	ea98 010a 	eors.w	r1, r8, sl
 8003a84:	ea09 020a 	and.w	r2, r9, sl
 8003a88:	4051      	eors	r1, r2
 8003a8a:	ea09 0205 	and.w	r2, r9, r5
 8003a8e:	4051      	eors	r1, r2
 8003a90:	ea04 020a 	and.w	r2, r4, sl
 8003a94:	4051      	eors	r1, r2
 8003a96:	f8c0 134c 	str.w	r1, [r0, #844]	; 0x34c
 8003a9a:	ea99 010b 	eors.w	r1, r9, fp
 8003a9e:	ea0a 020b 	and.w	r2, sl, fp
 8003aa2:	4051      	eors	r1, r2
 8003aa4:	ea0a 0206 	and.w	r2, sl, r6
 8003aa8:	4051      	eors	r1, r2
 8003aaa:	ea05 020b 	and.w	r2, r5, fp
 8003aae:	4051      	eors	r1, r2
 8003ab0:	f8c0 137c 	str.w	r1, [r0, #892]	; 0x37c
 8003ab4:	ea9a 010c 	eors.w	r1, sl, ip
 8003ab8:	ea0b 020c 	and.w	r2, fp, ip
 8003abc:	4051      	eors	r1, r2
 8003abe:	ea0b 0207 	and.w	r2, fp, r7
 8003ac2:	4051      	eors	r1, r2
 8003ac4:	ea06 020c 	and.w	r2, r6, ip
 8003ac8:	4051      	eors	r1, r2
 8003aca:	f8c0 13a8 	str.w	r1, [r0, #936]	; 0x3a8
 8003ace:	ea9b 0108 	eors.w	r1, fp, r8
 8003ad2:	ea0c 0208 	and.w	r2, ip, r8
 8003ad6:	4051      	eors	r1, r2
 8003ad8:	ea0c 0203 	and.w	r2, ip, r3
 8003adc:	4051      	eors	r1, r2
 8003ade:	ea07 0208 	and.w	r2, r7, r8
 8003ae2:	4051      	eors	r1, r2
 8003ae4:	f8c0 13dc 	str.w	r1, [r0, #988]	; 0x3dc
 8003ae8:	ea9c 0109 	eors.w	r1, ip, r9
 8003aec:	ea08 0209 	and.w	r2, r8, r9
 8003af0:	4051      	eors	r1, r2
 8003af2:	ea08 0204 	and.w	r2, r8, r4
 8003af6:	4051      	eors	r1, r2
 8003af8:	ea03 0209 	and.w	r2, r3, r9
 8003afc:	4051      	eors	r1, r2
 8003afe:	f8c0 1340 	str.w	r1, [r0, #832]	; 0x340
 8003b02:	f8d0 90f4 	ldr.w	r9, [r0, #244]	; 0xf4
 8003b06:	f8d0 a124 	ldr.w	sl, [r0, #292]	; 0x124
 8003b0a:	f8d0 b150 	ldr.w	fp, [r0, #336]	; 0x150
 8003b0e:	f8d0 c184 	ldr.w	ip, [r0, #388]	; 0x184
 8003b12:	f8d0 80e8 	ldr.w	r8, [r0, #232]	; 0xe8
 8003b16:	ea93 0105 	eors.w	r1, r3, r5
 8003b1a:	ea04 0205 	and.w	r2, r4, r5
 8003b1e:	4051      	eors	r1, r2
 8003b20:	ea04 020a 	and.w	r2, r4, sl
 8003b24:	4051      	eors	r1, r2
 8003b26:	ea09 0205 	and.w	r2, r9, r5
 8003b2a:	4051      	eors	r1, r2
 8003b2c:	f8c0 1414 	str.w	r1, [r0, #1044]	; 0x414
 8003b30:	ea94 0106 	eors.w	r1, r4, r6
 8003b34:	ea05 0206 	and.w	r2, r5, r6
 8003b38:	4051      	eors	r1, r2
 8003b3a:	ea05 020b 	and.w	r2, r5, fp
 8003b3e:	4051      	eors	r1, r2
 8003b40:	ea0a 0206 	and.w	r2, sl, r6
 8003b44:	4051      	eors	r1, r2
 8003b46:	f8c0 1444 	str.w	r1, [r0, #1092]	; 0x444
 8003b4a:	ea95 0107 	eors.w	r1, r5, r7
 8003b4e:	ea06 0207 	and.w	r2, r6, r7
 8003b52:	4051      	eors	r1, r2
 8003b54:	ea06 020c 	and.w	r2, r6, ip
 8003b58:	4051      	eors	r1, r2
 8003b5a:	ea0b 0207 	and.w	r2, fp, r7
 8003b5e:	4051      	eors	r1, r2
 8003b60:	f8c0 1470 	str.w	r1, [r0, #1136]	; 0x470
 8003b64:	ea96 0103 	eors.w	r1, r6, r3
 8003b68:	ea07 0203 	and.w	r2, r7, r3
 8003b6c:	4051      	eors	r1, r2
 8003b6e:	ea07 0208 	and.w	r2, r7, r8
 8003b72:	4051      	eors	r1, r2
 8003b74:	ea0c 0203 	and.w	r2, ip, r3
 8003b78:	4051      	eors	r1, r2
 8003b7a:	f8c0 14a4 	str.w	r1, [r0, #1188]	; 0x4a4
 8003b7e:	ea97 0104 	eors.w	r1, r7, r4
 8003b82:	ea03 0204 	and.w	r2, r3, r4
 8003b86:	4051      	eors	r1, r2
 8003b88:	ea03 0209 	and.w	r2, r3, r9
 8003b8c:	4051      	eors	r1, r2
 8003b8e:	ea08 0204 	and.w	r2, r8, r4
 8003b92:	4051      	eors	r1, r2
 8003b94:	f8c0 1408 	str.w	r1, [r0, #1032]	; 0x408
 8003b98:	e8bd 5f04 	ldmia.w	sp!, {r2, r8, r9, sl, fp, ip, lr}
 8003b9c:	e92d 5f04 	stmdb	sp!, {r2, r8, r9, sl, fp, ip, lr}
 8003ba0:	f8d0 6144 	ldr.w	r6, [r0, #324]	; 0x144
 8003ba4:	f8d0 7170 	ldr.w	r7, [r0, #368]	; 0x170
 8003ba8:	f8d0 30d8 	ldr.w	r3, [r0, #216]	; 0xd8
 8003bac:	f8d0 410c 	ldr.w	r4, [r0, #268]	; 0x10c
 8003bb0:	f8d0 513c 	ldr.w	r5, [r0, #316]	; 0x13c
 8003bb4:	ea96 0608 	eors.w	r6, r6, r8
 8003bb8:	ea97 070a 	eors.w	r7, r7, sl
 8003bbc:	4053      	eors	r3, r2
 8003bbe:	ea94 0409 	eors.w	r4, r4, r9
 8003bc2:	ea95 050e 	eors.w	r5, r5, lr
 8003bc6:	ea5f 26f6 	movs.w	r6, r6, ror #11
 8003bca:	ea5f 77f7 	movs.w	r7, r7, ror #31
 8003bce:	ea5f 0373 	movs.w	r3, r3, ror #1
 8003bd2:	ea5f 1434 	movs.w	r4, r4, ror #4
 8003bd6:	ea5f 3535 	movs.w	r5, r5, ror #12
 8003bda:	f8c0 6144 	str.w	r6, [r0, #324]	; 0x144
 8003bde:	f8c0 7170 	str.w	r7, [r0, #368]	; 0x170
 8003be2:	f8c0 30d8 	str.w	r3, [r0, #216]	; 0xd8
 8003be6:	f8c0 410c 	str.w	r4, [r0, #268]	; 0x10c
 8003bea:	f8c0 513c 	str.w	r5, [r0, #316]	; 0x13c
 8003bee:	f8d0 b20c 	ldr.w	fp, [r0, #524]	; 0x20c
 8003bf2:	f8d0 1504 	ldr.w	r1, [r0, #1284]	; 0x504
 8003bf6:	f8d0 c238 	ldr.w	ip, [r0, #568]	; 0x238
 8003bfa:	f8d0 2508 	ldr.w	r2, [r0, #1288]	; 0x508
 8003bfe:	f8d0 81a0 	ldr.w	r8, [r0, #416]	; 0x1a0
 8003c02:	f8d0 e510 	ldr.w	lr, [r0, #1296]	; 0x510
 8003c06:	ea9b 0b01 	eors.w	fp, fp, r1
 8003c0a:	ea9c 0c02 	eors.w	ip, ip, r2
 8003c0e:	ea98 080e 	eors.w	r8, r8, lr
 8003c12:	f8d0 91d4 	ldr.w	r9, [r0, #468]	; 0x1d4
 8003c16:	f8d0 151c 	ldr.w	r1, [r0, #1308]	; 0x51c
 8003c1a:	f8d0 a204 	ldr.w	sl, [r0, #516]	; 0x204
 8003c1e:	f8d0 e524 	ldr.w	lr, [r0, #1316]	; 0x524
 8003c22:	ea99 0901 	eors.w	r9, r9, r1
 8003c26:	ea9a 0a0e 	eors.w	sl, sl, lr
 8003c2a:	ea5f 2bfb 	movs.w	fp, fp, ror #11
 8003c2e:	ea5f 7cfc 	movs.w	ip, ip, ror #31
 8003c32:	ea5f 0878 	movs.w	r8, r8, ror #1
 8003c36:	ea5f 1939 	movs.w	r9, r9, ror #4
 8003c3a:	ea5f 3a3a 	movs.w	sl, sl, ror #12
 8003c3e:	ea93 0105 	eors.w	r1, r3, r5
 8003c42:	ea04 0205 	and.w	r2, r4, r5
 8003c46:	4051      	eors	r1, r2
 8003c48:	ea04 020a 	and.w	r2, r4, sl
 8003c4c:	4051      	eors	r1, r2
 8003c4e:	ea09 0205 	and.w	r2, r9, r5
 8003c52:	4051      	eors	r1, r2
 8003c54:	f8c0 12d4 	str.w	r1, [r0, #724]	; 0x2d4
 8003c58:	ea94 0106 	eors.w	r1, r4, r6
 8003c5c:	ea05 0206 	and.w	r2, r5, r6
 8003c60:	4051      	eors	r1, r2
 8003c62:	ea05 020b 	and.w	r2, r5, fp
 8003c66:	4051      	eors	r1, r2
 8003c68:	ea0a 0206 	and.w	r2, sl, r6
 8003c6c:	4051      	eors	r1, r2
 8003c6e:	f8c0 1300 	str.w	r1, [r0, #768]	; 0x300
 8003c72:	ea95 0107 	eors.w	r1, r5, r7
 8003c76:	ea06 0207 	and.w	r2, r6, r7
 8003c7a:	4051      	eors	r1, r2
 8003c7c:	ea06 020c 	and.w	r2, r6, ip
 8003c80:	4051      	eors	r1, r2
 8003c82:	ea0b 0207 	and.w	r2, fp, r7
 8003c86:	4051      	eors	r1, r2
 8003c88:	f8c0 1268 	str.w	r1, [r0, #616]	; 0x268
 8003c8c:	ea96 0103 	eors.w	r1, r6, r3
 8003c90:	ea07 0203 	and.w	r2, r7, r3
 8003c94:	4051      	eors	r1, r2
 8003c96:	ea07 0208 	and.w	r2, r7, r8
 8003c9a:	4051      	eors	r1, r2
 8003c9c:	ea0c 0203 	and.w	r2, ip, r3
 8003ca0:	4051      	eors	r1, r2
 8003ca2:	f8c0 129c 	str.w	r1, [r0, #668]	; 0x29c
 8003ca6:	ea97 0104 	eors.w	r1, r7, r4
 8003caa:	ea03 0204 	and.w	r2, r3, r4
 8003cae:	4051      	eors	r1, r2
 8003cb0:	ea03 0209 	and.w	r2, r3, r9
 8003cb4:	4051      	eors	r1, r2
 8003cb6:	ea08 0204 	and.w	r2, r8, r4
 8003cba:	4051      	eors	r1, r2
 8003cbc:	f8c0 12cc 	str.w	r1, [r0, #716]	; 0x2cc
 8003cc0:	6fc6      	ldr	r6, [r0, #124]	; 0x7c
 8003cc2:	f8d0 14b4 	ldr.w	r1, [r0, #1204]	; 0x4b4
 8003cc6:	f8d0 70a8 	ldr.w	r7, [r0, #168]	; 0xa8
 8003cca:	f8d0 24b8 	ldr.w	r2, [r0, #1208]	; 0x4b8
 8003cce:	6903      	ldr	r3, [r0, #16]
 8003cd0:	f8d0 e4c0 	ldr.w	lr, [r0, #1216]	; 0x4c0
 8003cd4:	404e      	eors	r6, r1
 8003cd6:	4057      	eors	r7, r2
 8003cd8:	ea93 030e 	eors.w	r3, r3, lr
 8003cdc:	6c44      	ldr	r4, [r0, #68]	; 0x44
 8003cde:	f8d0 14cc 	ldr.w	r1, [r0, #1228]	; 0x4cc
 8003ce2:	6f45      	ldr	r5, [r0, #116]	; 0x74
 8003ce4:	f8d0 e4d4 	ldr.w	lr, [r0, #1236]	; 0x4d4
 8003ce8:	404c      	eors	r4, r1
 8003cea:	ea95 050e 	eors.w	r5, r5, lr
 8003cee:	ea5f 26f6 	movs.w	r6, r6, ror #11
 8003cf2:	ea5f 77f7 	movs.w	r7, r7, ror #31
 8003cf6:	ea5f 0373 	movs.w	r3, r3, ror #1
 8003cfa:	ea5f 1434 	movs.w	r4, r4, ror #4
 8003cfe:	ea5f 3535 	movs.w	r5, r5, ror #12
 8003d02:	ea98 010a 	eors.w	r1, r8, sl
 8003d06:	ea09 020a 	and.w	r2, r9, sl
 8003d0a:	4051      	eors	r1, r2
 8003d0c:	ea09 0205 	and.w	r2, r9, r5
 8003d10:	4051      	eors	r1, r2
 8003d12:	ea04 020a 	and.w	r2, r4, sl
 8003d16:	4051      	eors	r1, r2
 8003d18:	f8c0 139c 	str.w	r1, [r0, #924]	; 0x39c
 8003d1c:	ea99 010b 	eors.w	r1, r9, fp
 8003d20:	ea0a 020b 	and.w	r2, sl, fp
 8003d24:	4051      	eors	r1, r2
 8003d26:	ea0a 0206 	and.w	r2, sl, r6
 8003d2a:	4051      	eors	r1, r2
 8003d2c:	ea05 020b 	and.w	r2, r5, fp
 8003d30:	4051      	eors	r1, r2
 8003d32:	f8c0 13c8 	str.w	r1, [r0, #968]	; 0x3c8
 8003d36:	ea9a 010c 	eors.w	r1, sl, ip
 8003d3a:	ea0b 020c 	and.w	r2, fp, ip
 8003d3e:	4051      	eors	r1, r2
 8003d40:	ea0b 0207 	and.w	r2, fp, r7
 8003d44:	4051      	eors	r1, r2
 8003d46:	ea06 020c 	and.w	r2, r6, ip
 8003d4a:	4051      	eors	r1, r2
 8003d4c:	f8c0 1330 	str.w	r1, [r0, #816]	; 0x330
 8003d50:	ea9b 0108 	eors.w	r1, fp, r8
 8003d54:	ea0c 0208 	and.w	r2, ip, r8
 8003d58:	4051      	eors	r1, r2
 8003d5a:	ea0c 0203 	and.w	r2, ip, r3
 8003d5e:	4051      	eors	r1, r2
 8003d60:	ea07 0208 	and.w	r2, r7, r8
 8003d64:	4051      	eors	r1, r2
 8003d66:	f8c0 1364 	str.w	r1, [r0, #868]	; 0x364
 8003d6a:	ea9c 0109 	eors.w	r1, ip, r9
 8003d6e:	ea08 0209 	and.w	r2, r8, r9
 8003d72:	4051      	eors	r1, r2
 8003d74:	ea08 0204 	and.w	r2, r8, r4
 8003d78:	4051      	eors	r1, r2
 8003d7a:	ea03 0209 	and.w	r2, r3, r9
 8003d7e:	4051      	eors	r1, r2
 8003d80:	f8c0 1394 	str.w	r1, [r0, #916]	; 0x394
 8003d84:	f8d0 b144 	ldr.w	fp, [r0, #324]	; 0x144
 8003d88:	f8d0 c170 	ldr.w	ip, [r0, #368]	; 0x170
 8003d8c:	f8d0 80d8 	ldr.w	r8, [r0, #216]	; 0xd8
 8003d90:	f8d0 910c 	ldr.w	r9, [r0, #268]	; 0x10c
 8003d94:	f8d0 a13c 	ldr.w	sl, [r0, #316]	; 0x13c
 8003d98:	ea93 0105 	eors.w	r1, r3, r5
 8003d9c:	ea04 0205 	and.w	r2, r4, r5
 8003da0:	4051      	eors	r1, r2
 8003da2:	ea04 020a 	and.w	r2, r4, sl
 8003da6:	4051      	eors	r1, r2
 8003da8:	ea09 0205 	and.w	r2, r9, r5
 8003dac:	4051      	eors	r1, r2
 8003dae:	f8c0 1464 	str.w	r1, [r0, #1124]	; 0x464
 8003db2:	ea94 0106 	eors.w	r1, r4, r6
 8003db6:	ea05 0206 	and.w	r2, r5, r6
 8003dba:	4051      	eors	r1, r2
 8003dbc:	ea05 020b 	and.w	r2, r5, fp
 8003dc0:	4051      	eors	r1, r2
 8003dc2:	ea0a 0206 	and.w	r2, sl, r6
 8003dc6:	4051      	eors	r1, r2
 8003dc8:	f8c0 1490 	str.w	r1, [r0, #1168]	; 0x490
 8003dcc:	ea95 0107 	eors.w	r1, r5, r7
 8003dd0:	ea06 0207 	and.w	r2, r6, r7
 8003dd4:	4051      	eors	r1, r2
 8003dd6:	ea06 020c 	and.w	r2, r6, ip
 8003dda:	4051      	eors	r1, r2
 8003ddc:	ea0b 0207 	and.w	r2, fp, r7
 8003de0:	4051      	eors	r1, r2
 8003de2:	f8c0 13f8 	str.w	r1, [r0, #1016]	; 0x3f8
 8003de6:	ea96 0103 	eors.w	r1, r6, r3
 8003dea:	ea07 0203 	and.w	r2, r7, r3
 8003dee:	4051      	eors	r1, r2
 8003df0:	ea07 0208 	and.w	r2, r7, r8
 8003df4:	4051      	eors	r1, r2
 8003df6:	ea0c 0203 	and.w	r2, ip, r3
 8003dfa:	4051      	eors	r1, r2
 8003dfc:	f8c0 142c 	str.w	r1, [r0, #1068]	; 0x42c
 8003e00:	ea97 0104 	eors.w	r1, r7, r4
 8003e04:	ea03 0204 	and.w	r2, r3, r4
 8003e08:	4051      	eors	r1, r2
 8003e0a:	ea03 0209 	and.w	r2, r3, r9
 8003e0e:	4051      	eors	r1, r2
 8003e10:	ea08 0204 	and.w	r2, r8, r4
 8003e14:	4051      	eors	r1, r2
 8003e16:	f8c0 145c 	str.w	r1, [r0, #1116]	; 0x45c
 8003e1a:	e8bd 5f04 	ldmia.w	sp!, {r2, r8, r9, sl, fp, ip, lr}
 8003e1e:	f8d0 94f0 	ldr.w	r9, [r0, #1264]	; 0x4f0
 8003e22:	e92d 5f04 	stmdb	sp!, {r2, r8, r9, sl, fp, ip, lr}
 8003e26:	f8d0 30cc 	ldr.w	r3, [r0, #204]	; 0xcc
 8003e2a:	f8d0 40fc 	ldr.w	r4, [r0, #252]	; 0xfc
 8003e2e:	f8d0 5128 	ldr.w	r5, [r0, #296]	; 0x128
 8003e32:	f8d0 6158 	ldr.w	r6, [r0, #344]	; 0x158
 8003e36:	f8d0 718c 	ldr.w	r7, [r0, #396]	; 0x18c
 8003e3a:	ea93 0308 	eors.w	r3, r3, r8
 8003e3e:	ea94 040b 	eors.w	r4, r4, fp
 8003e42:	4055      	eors	r5, r2
 8003e44:	ea96 0609 	eors.w	r6, r6, r9
 8003e48:	ea97 070e 	eors.w	r7, r7, lr
 8003e4c:	ea5f 24b4 	movs.w	r4, r4, ror #10
 8003e50:	ea5f 25f5 	movs.w	r5, r5, ror #11
 8003e54:	ea5f 56b6 	movs.w	r6, r6, ror #22
 8003e58:	ea5f 6777 	movs.w	r7, r7, ror #25
 8003e5c:	f8c0 30cc 	str.w	r3, [r0, #204]	; 0xcc
 8003e60:	f8c0 40fc 	str.w	r4, [r0, #252]	; 0xfc
 8003e64:	f8c0 5128 	str.w	r5, [r0, #296]	; 0x128
 8003e68:	f8c0 6158 	str.w	r6, [r0, #344]	; 0x158
 8003e6c:	f8c0 718c 	str.w	r7, [r0, #396]	; 0x18c
 8003e70:	f8d0 8194 	ldr.w	r8, [r0, #404]	; 0x194
 8003e74:	f8d0 1504 	ldr.w	r1, [r0, #1284]	; 0x504
 8003e78:	f8d0 91c4 	ldr.w	r9, [r0, #452]	; 0x1c4
 8003e7c:	f8d0 250c 	ldr.w	r2, [r0, #1292]	; 0x50c
 8003e80:	f8d0 a1f0 	ldr.w	sl, [r0, #496]	; 0x1f0
 8003e84:	f8d0 e510 	ldr.w	lr, [r0, #1296]	; 0x510
 8003e88:	ea98 0801 	eors.w	r8, r8, r1
 8003e8c:	ea99 0902 	eors.w	r9, r9, r2
 8003e90:	ea9a 0a0e 	eors.w	sl, sl, lr
 8003e94:	f8d0 b220 	ldr.w	fp, [r0, #544]	; 0x220
 8003e98:	f8d0 1518 	ldr.w	r1, [r0, #1304]	; 0x518
 8003e9c:	f8d0 c254 	ldr.w	ip, [r0, #596]	; 0x254
 8003ea0:	f8d0 e524 	ldr.w	lr, [r0, #1316]	; 0x524
 8003ea4:	ea9b 0b01 	eors.w	fp, fp, r1
 8003ea8:	ea9c 0c0e 	eors.w	ip, ip, lr
 8003eac:	ea5f 29b9 	movs.w	r9, r9, ror #10
 8003eb0:	ea5f 2afa 	movs.w	sl, sl, ror #11
 8003eb4:	ea5f 5bbb 	movs.w	fp, fp, ror #22
 8003eb8:	ea5f 6c7c 	movs.w	ip, ip, ror #25
 8003ebc:	ea93 0105 	eors.w	r1, r3, r5
 8003ec0:	ea04 0205 	and.w	r2, r4, r5
 8003ec4:	4051      	eors	r1, r2
 8003ec6:	ea04 020a 	and.w	r2, r4, sl
 8003eca:	4051      	eors	r1, r2
 8003ecc:	ea09 0205 	and.w	r2, r9, r5
 8003ed0:	4051      	eors	r1, r2
 8003ed2:	f8c0 125c 	str.w	r1, [r0, #604]	; 0x25c
 8003ed6:	ea94 0106 	eors.w	r1, r4, r6
 8003eda:	ea05 0206 	and.w	r2, r5, r6
 8003ede:	4051      	eors	r1, r2
 8003ee0:	ea05 020b 	and.w	r2, r5, fp
 8003ee4:	4051      	eors	r1, r2
 8003ee6:	ea0a 0206 	and.w	r2, sl, r6
 8003eea:	4051      	eors	r1, r2
 8003eec:	f8c0 128c 	str.w	r1, [r0, #652]	; 0x28c
 8003ef0:	ea95 0107 	eors.w	r1, r5, r7
 8003ef4:	ea06 0207 	and.w	r2, r6, r7
 8003ef8:	4051      	eors	r1, r2
 8003efa:	ea06 020c 	and.w	r2, r6, ip
 8003efe:	4051      	eors	r1, r2
 8003f00:	ea0b 0207 	and.w	r2, fp, r7
 8003f04:	4051      	eors	r1, r2
 8003f06:	f8c0 12b8 	str.w	r1, [r0, #696]	; 0x2b8
 8003f0a:	ea96 0103 	eors.w	r1, r6, r3
 8003f0e:	ea07 0203 	and.w	r2, r7, r3
 8003f12:	4051      	eors	r1, r2
 8003f14:	ea07 0208 	and.w	r2, r7, r8
 8003f18:	4051      	eors	r1, r2
 8003f1a:	ea0c 0203 	and.w	r2, ip, r3
 8003f1e:	4051      	eors	r1, r2
 8003f20:	f8c0 12e8 	str.w	r1, [r0, #744]	; 0x2e8
 8003f24:	ea97 0104 	eors.w	r1, r7, r4
 8003f28:	ea03 0204 	and.w	r2, r3, r4
 8003f2c:	4051      	eors	r1, r2
 8003f2e:	ea03 0209 	and.w	r2, r3, r9
 8003f32:	4051      	eors	r1, r2
 8003f34:	ea08 0204 	and.w	r2, r8, r4
 8003f38:	4051      	eors	r1, r2
 8003f3a:	f8c0 131c 	str.w	r1, [r0, #796]	; 0x31c
 8003f3e:	6843      	ldr	r3, [r0, #4]
 8003f40:	f8d0 14b4 	ldr.w	r1, [r0, #1204]	; 0x4b4
 8003f44:	6b44      	ldr	r4, [r0, #52]	; 0x34
 8003f46:	f8d0 24bc 	ldr.w	r2, [r0, #1212]	; 0x4bc
 8003f4a:	6e05      	ldr	r5, [r0, #96]	; 0x60
 8003f4c:	f8d0 e4c0 	ldr.w	lr, [r0, #1216]	; 0x4c0
 8003f50:	404b      	eors	r3, r1
 8003f52:	4054      	eors	r4, r2
 8003f54:	ea95 050e 	eors.w	r5, r5, lr
 8003f58:	f8d0 6090 	ldr.w	r6, [r0, #144]	; 0x90
 8003f5c:	f8d0 14c8 	ldr.w	r1, [r0, #1224]	; 0x4c8
 8003f60:	f8d0 70c4 	ldr.w	r7, [r0, #196]	; 0xc4
 8003f64:	f8d0 e4d4 	ldr.w	lr, [r0, #1236]	; 0x4d4
 8003f68:	404e      	eors	r6, r1
 8003f6a:	ea97 070e 	eors.w	r7, r7, lr
 8003f6e:	ea5f 24b4 	movs.w	r4, r4, ror #10
 8003f72:	ea5f 25f5 	movs.w	r5, r5, ror #11
 8003f76:	ea5f 56b6 	movs.w	r6, r6, ror #22
 8003f7a:	ea5f 6777 	movs.w	r7, r7, ror #25
 8003f7e:	ea98 010a 	eors.w	r1, r8, sl
 8003f82:	ea09 020a 	and.w	r2, r9, sl
 8003f86:	4051      	eors	r1, r2
 8003f88:	ea09 0205 	and.w	r2, r9, r5
 8003f8c:	4051      	eors	r1, r2
 8003f8e:	ea04 020a 	and.w	r2, r4, sl
 8003f92:	4051      	eors	r1, r2
 8003f94:	f8c0 1324 	str.w	r1, [r0, #804]	; 0x324
 8003f98:	ea99 010b 	eors.w	r1, r9, fp
 8003f9c:	ea0a 020b 	and.w	r2, sl, fp
 8003fa0:	4051      	eors	r1, r2
 8003fa2:	ea0a 0206 	and.w	r2, sl, r6
 8003fa6:	4051      	eors	r1, r2
 8003fa8:	ea05 020b 	and.w	r2, r5, fp
 8003fac:	4051      	eors	r1, r2
 8003fae:	f8c0 1354 	str.w	r1, [r0, #852]	; 0x354
 8003fb2:	ea9a 010c 	eors.w	r1, sl, ip
 8003fb6:	ea0b 020c 	and.w	r2, fp, ip
 8003fba:	4051      	eors	r1, r2
 8003fbc:	ea0b 0207 	and.w	r2, fp, r7
 8003fc0:	4051      	eors	r1, r2
 8003fc2:	ea06 020c 	and.w	r2, r6, ip
 8003fc6:	4051      	eors	r1, r2
 8003fc8:	f8c0 1380 	str.w	r1, [r0, #896]	; 0x380
 8003fcc:	ea9b 0108 	eors.w	r1, fp, r8
 8003fd0:	ea0c 0208 	and.w	r2, ip, r8
 8003fd4:	4051      	eors	r1, r2
 8003fd6:	ea0c 0203 	and.w	r2, ip, r3
 8003fda:	4051      	eors	r1, r2
 8003fdc:	ea07 0208 	and.w	r2, r7, r8
 8003fe0:	4051      	eors	r1, r2
 8003fe2:	f8c0 13b0 	str.w	r1, [r0, #944]	; 0x3b0
 8003fe6:	ea9c 0109 	eors.w	r1, ip, r9
 8003fea:	ea08 0209 	and.w	r2, r8, r9
 8003fee:	4051      	eors	r1, r2
 8003ff0:	ea08 0204 	and.w	r2, r8, r4
 8003ff4:	4051      	eors	r1, r2
 8003ff6:	ea03 0209 	and.w	r2, r3, r9
 8003ffa:	4051      	eors	r1, r2
 8003ffc:	f8c0 13e4 	str.w	r1, [r0, #996]	; 0x3e4
 8004000:	f8d0 80cc 	ldr.w	r8, [r0, #204]	; 0xcc
 8004004:	f8d0 90fc 	ldr.w	r9, [r0, #252]	; 0xfc
 8004008:	f8d0 a128 	ldr.w	sl, [r0, #296]	; 0x128
 800400c:	f8d0 b158 	ldr.w	fp, [r0, #344]	; 0x158
 8004010:	f8d0 c18c 	ldr.w	ip, [r0, #396]	; 0x18c
 8004014:	ea94 0106 	eors.w	r1, r4, r6
 8004018:	ea05 0206 	and.w	r2, r5, r6
 800401c:	4051      	eors	r1, r2
 800401e:	ea05 020b 	and.w	r2, r5, fp
 8004022:	4051      	eors	r1, r2
 8004024:	ea0a 0206 	and.w	r2, sl, r6
 8004028:	4051      	eors	r1, r2
 800402a:	f8c0 141c 	str.w	r1, [r0, #1052]	; 0x41c
 800402e:	ea95 0107 	eors.w	r1, r5, r7
 8004032:	ea06 0207 	and.w	r2, r6, r7
 8004036:	4051      	eors	r1, r2
 8004038:	ea06 020c 	and.w	r2, r6, ip
 800403c:	4051      	eors	r1, r2
 800403e:	ea0b 0207 	and.w	r2, fp, r7
 8004042:	4051      	eors	r1, r2
 8004044:	f8c0 1448 	str.w	r1, [r0, #1096]	; 0x448
 8004048:	ea96 0103 	eors.w	r1, r6, r3
 800404c:	ea07 0203 	and.w	r2, r7, r3
 8004050:	4051      	eors	r1, r2
 8004052:	ea07 0208 	and.w	r2, r7, r8
 8004056:	4051      	eors	r1, r2
 8004058:	ea0c 0203 	and.w	r2, ip, r3
 800405c:	4051      	eors	r1, r2
 800405e:	f8c0 1478 	str.w	r1, [r0, #1144]	; 0x478
 8004062:	ea97 0104 	eors.w	r1, r7, r4
 8004066:	ea03 0204 	and.w	r2, r3, r4
 800406a:	4051      	eors	r1, r2
 800406c:	ea03 0209 	and.w	r2, r3, r9
 8004070:	4051      	eors	r1, r2
 8004072:	ea08 0204 	and.w	r2, r8, r4
 8004076:	4051      	eors	r1, r2
 8004078:	f8c0 14ac 	str.w	r1, [r0, #1196]	; 0x4ac
 800407c:	f8d0 1528 	ldr.w	r1, [r0, #1320]	; 0x528
 8004080:	ea93 0605 	eors.w	r6, r3, r5
 8004084:	ea04 0705 	and.w	r7, r4, r5
 8004088:	407e      	eors	r6, r7
 800408a:	ea04 070a 	and.w	r7, r4, sl
 800408e:	407e      	eors	r6, r7
 8004090:	ea09 0705 	and.w	r7, r9, r5
 8004094:	407e      	eors	r6, r7
 8004096:	684c      	ldr	r4, [r1, #4]
 8004098:	4066      	eors	r6, r4
 800409a:	f8c0 63ec 	str.w	r6, [r0, #1004]	; 0x3ec
 800409e:	e8bd 5f04 	ldmia.w	sp!, {r2, r8, r9, sl, fp, ip, lr}
 80040a2:	f8c0 052c 	str.w	r0, [r0, #1324]	; 0x52c
 80040a6:	f8c0 1530 	str.w	r1, [r0, #1328]	; 0x530
 80040aa:	f8c0 2534 	str.w	r2, [r0, #1332]	; 0x534
 80040ae:	f8c0 3538 	str.w	r3, [r0, #1336]	; 0x538
 80040b2:	f8c0 453c 	str.w	r4, [r0, #1340]	; 0x53c
 80040b6:	f8c0 5540 	str.w	r5, [r0, #1344]	; 0x540
 80040ba:	f8c0 6544 	str.w	r6, [r0, #1348]	; 0x544
 80040be:	f8c0 7548 	str.w	r7, [r0, #1352]	; 0x548
 80040c2:	f8c0 854c 	str.w	r8, [r0, #1356]	; 0x54c
 80040c6:	f8c0 9550 	str.w	r9, [r0, #1360]	; 0x550
 80040ca:	f8c0 a554 	str.w	sl, [r0, #1364]	; 0x554
 80040ce:	f8c0 b558 	str.w	fp, [r0, #1368]	; 0x558
 80040d2:	f8c0 c55c 	str.w	ip, [r0, #1372]	; 0x55c
 80040d6:	f8c0 e560 	str.w	lr, [r0, #1376]	; 0x560
 80040da:	e8bd 9ff0 	ldmia.w	sp!, {r4, r5, r6, r7, r8, r9, sl, fp, ip, pc}
 80040de:	bf00      	nop
 80040e0:	f3af 8000 	nop.w
 80040e4:	f3af 8000 	nop.w
 80040e8:	f3af 8000 	nop.w
 80040ec:	f3af 8000 	nop.w
 80040f0:	f3af 8000 	nop.w
 80040f4:	f3af 8000 	nop.w
 80040f8:	f3af 8000 	nop.w
 80040fc:	f3af 8000 	nop.w

08004100 <KeccakP1600_Permute1>:
 8004100:	e92d 5ff0 	stmdb	sp!, {r4, r5, r6, r7, r8, r9, sl, fp, ip, lr}
 8004104:	f8d0 1530 	ldr.w	r1, [r0, #1328]	; 0x530
 8004108:	f8d0 2534 	ldr.w	r2, [r0, #1332]	; 0x534
 800410c:	f8d0 3538 	ldr.w	r3, [r0, #1336]	; 0x538
 8004110:	f8d0 453c 	ldr.w	r4, [r0, #1340]	; 0x53c
 8004114:	f8d0 5540 	ldr.w	r5, [r0, #1344]	; 0x540
 8004118:	f8d0 6544 	ldr.w	r6, [r0, #1348]	; 0x544
 800411c:	f8d0 7548 	ldr.w	r7, [r0, #1352]	; 0x548
 8004120:	f8d0 854c 	ldr.w	r8, [r0, #1356]	; 0x54c
 8004124:	f8d0 9550 	ldr.w	r9, [r0, #1360]	; 0x550
 8004128:	f8d0 a554 	ldr.w	sl, [r0, #1364]	; 0x554
 800412c:	f8d0 b558 	ldr.w	fp, [r0, #1368]	; 0x558
 8004130:	f8d0 c55c 	ldr.w	ip, [r0, #1372]	; 0x55c
 8004134:	f8d0 e560 	ldr.w	lr, [r0, #1376]	; 0x560
 8004138:	f8d0 3318 	ldr.w	r3, [r0, #792]	; 0x318
 800413c:	f8d0 12a0 	ldr.w	r1, [r0, #672]	; 0x2a0
 8004140:	f8d0 22f0 	ldr.w	r2, [r0, #752]	; 0x2f0
 8004144:	f8d0 c27c 	ldr.w	ip, [r0, #636]	; 0x27c
 8004148:	404b      	eors	r3, r1
 800414a:	4053      	eors	r3, r2
 800414c:	ea93 030c 	eors.w	r3, r3, ip
 8004150:	f8d0 12cc 	ldr.w	r1, [r0, #716]	; 0x2cc
 8004154:	404b      	eors	r3, r1
 8004156:	f8d0 728c 	ldr.w	r7, [r0, #652]	; 0x28c
 800415a:	f8d0 12d8 	ldr.w	r1, [r0, #728]	; 0x2d8
 800415e:	f8d0 2260 	ldr.w	r2, [r0, #608]	; 0x260
 8004162:	f8d0 c2b4 	ldr.w	ip, [r0, #692]	; 0x2b4
 8004166:	404f      	eors	r7, r1
 8004168:	4057      	eors	r7, r2
 800416a:	ea97 070c 	eors.w	r7, r7, ip
 800416e:	f8d0 1304 	ldr.w	r1, [r0, #772]	; 0x304
 8004172:	404f      	eors	r7, r1
 8004174:	ea83 76f7 	eor.w	r6, r3, r7, ror #31
 8004178:	f8c0 64b0 	str.w	r6, [r0, #1200]	; 0x4b0
 800417c:	f8d0 631c 	ldr.w	r6, [r0, #796]	; 0x31c
 8004180:	f8d0 12a4 	ldr.w	r1, [r0, #676]	; 0x2a4
 8004184:	f8d0 22f4 	ldr.w	r2, [r0, #756]	; 0x2f4
 8004188:	f8d0 c278 	ldr.w	ip, [r0, #632]	; 0x278
 800418c:	404e      	eors	r6, r1
 800418e:	4056      	eors	r6, r2
 8004190:	ea96 060c 	eors.w	r6, r6, ip
 8004194:	f8d0 12c8 	ldr.w	r1, [r0, #712]	; 0x2c8
 8004198:	404e      	eors	r6, r1
 800419a:	f8d0 e288 	ldr.w	lr, [r0, #648]	; 0x288
 800419e:	f8d0 12dc 	ldr.w	r1, [r0, #732]	; 0x2dc
 80041a2:	f8d0 2264 	ldr.w	r2, [r0, #612]	; 0x264
 80041a6:	f8d0 c2b0 	ldr.w	ip, [r0, #688]	; 0x2b0
 80041aa:	ea9e 0e01 	eors.w	lr, lr, r1
 80041ae:	ea9e 0e02 	eors.w	lr, lr, r2
 80041b2:	ea9e 0e0c 	eors.w	lr, lr, ip
 80041b6:	f8d0 1300 	ldr.w	r1, [r0, #768]	; 0x300
 80041ba:	ea9e 0e01 	eors.w	lr, lr, r1
 80041be:	ea96 080e 	eors.w	r8, r6, lr
 80041c2:	f8c0 84b4 	str.w	r8, [r0, #1204]	; 0x4b4
 80041c6:	f8d0 52bc 	ldr.w	r5, [r0, #700]	; 0x2bc
 80041ca:	f8d0 130c 	ldr.w	r1, [r0, #780]	; 0x30c
 80041ce:	f8d0 2290 	ldr.w	r2, [r0, #656]	; 0x290
 80041d2:	f8d0 c2e4 	ldr.w	ip, [r0, #740]	; 0x2e4
 80041d6:	404d      	eors	r5, r1
 80041d8:	4055      	eors	r5, r2
 80041da:	ea95 050c 	eors.w	r5, r5, ip
 80041de:	f8d0 1268 	ldr.w	r1, [r0, #616]	; 0x268
 80041e2:	404d      	eors	r5, r1
 80041e4:	ea85 79f6 	eor.w	r9, r5, r6, ror #31
 80041e8:	f8c0 94c8 	str.w	r9, [r0, #1224]	; 0x4c8
 80041ec:	f8d0 42b8 	ldr.w	r4, [r0, #696]	; 0x2b8
 80041f0:	f8d0 1308 	ldr.w	r1, [r0, #776]	; 0x308
 80041f4:	f8d0 2294 	ldr.w	r2, [r0, #660]	; 0x294
 80041f8:	f8d0 c2e0 	ldr.w	ip, [r0, #736]	; 0x2e0
 80041fc:	404c      	eors	r4, r1
 80041fe:	4054      	eors	r4, r2
 8004200:	ea94 040c 	eors.w	r4, r4, ip
 8004204:	f8d0 126c 	ldr.w	r1, [r0, #620]	; 0x26c
 8004208:	404c      	eors	r4, r1
 800420a:	4063      	eors	r3, r4
 800420c:	f8c0 34cc 	str.w	r3, [r0, #1228]	; 0x4cc
 8004210:	f8d0 3258 	ldr.w	r3, [r0, #600]	; 0x258
 8004214:	f8d0 12ac 	ldr.w	r1, [r0, #684]	; 0x2ac
 8004218:	f8d0 22f8 	ldr.w	r2, [r0, #760]	; 0x2f8
 800421c:	f8d0 c280 	ldr.w	ip, [r0, #640]	; 0x280
 8004220:	404b      	eors	r3, r1
 8004222:	4053      	eors	r3, r2
 8004224:	ea93 030c 	eors.w	r3, r3, ip
 8004228:	f8d0 12d4 	ldr.w	r1, [r0, #724]	; 0x2d4
 800422c:	404b      	eors	r3, r1
 800422e:	ea83 7af4 	eor.w	sl, r3, r4, ror #31
 8004232:	f8c0 a4b8 	str.w	sl, [r0, #1208]	; 0x4b8
 8004236:	f8d0 625c 	ldr.w	r6, [r0, #604]	; 0x25c
 800423a:	f8d0 12a8 	ldr.w	r1, [r0, #680]	; 0x2a8
 800423e:	f8d0 22fc 	ldr.w	r2, [r0, #764]	; 0x2fc
 8004242:	f8d0 c284 	ldr.w	ip, [r0, #644]	; 0x284
 8004246:	404e      	eors	r6, r1
 8004248:	4056      	eors	r6, r2
 800424a:	ea96 060c 	eors.w	r6, r6, ip
 800424e:	f8d0 12d0 	ldr.w	r1, [r0, #720]	; 0x2d0
 8004252:	404e      	eors	r6, r1
 8004254:	ea96 0b05 	eors.w	fp, r6, r5
 8004258:	f8c0 b4bc 	str.w	fp, [r0, #1212]	; 0x4bc
 800425c:	f8d0 42e8 	ldr.w	r4, [r0, #744]	; 0x2e8
 8004260:	f8d0 1274 	ldr.w	r1, [r0, #628]	; 0x274
 8004264:	f8d0 22c0 	ldr.w	r2, [r0, #704]	; 0x2c0
 8004268:	f8d0 c314 	ldr.w	ip, [r0, #788]	; 0x314
 800426c:	404c      	eors	r4, r1
 800426e:	4054      	eors	r4, r2
 8004270:	ea94 040c 	eors.w	r4, r4, ip
 8004274:	f8d0 1298 	ldr.w	r1, [r0, #664]	; 0x298
 8004278:	404c      	eors	r4, r1
 800427a:	ea8e 75f4 	eor.w	r5, lr, r4, ror #31
 800427e:	f8c0 54c0 	str.w	r5, [r0, #1216]	; 0x4c0
 8004282:	f8d0 52ec 	ldr.w	r5, [r0, #748]	; 0x2ec
 8004286:	f8d0 1270 	ldr.w	r1, [r0, #624]	; 0x270
 800428a:	f8d0 22c4 	ldr.w	r2, [r0, #708]	; 0x2c4
 800428e:	f8d0 c310 	ldr.w	ip, [r0, #784]	; 0x310
 8004292:	404d      	eors	r5, r1
 8004294:	4055      	eors	r5, r2
 8004296:	ea95 050c 	eors.w	r5, r5, ip
 800429a:	f8d0 129c 	ldr.w	r1, [r0, #668]	; 0x29c
 800429e:	404d      	eors	r5, r1
 80042a0:	ea97 0205 	eors.w	r2, r7, r5
 80042a4:	f8c0 24c4 	str.w	r2, [r0, #1220]	; 0x4c4
 80042a8:	ea85 7cf6 	eor.w	ip, r5, r6, ror #31
 80042ac:	f8c0 c4d0 	str.w	ip, [r0, #1232]	; 0x4d0
 80042b0:	ea94 0e03 	eors.w	lr, r4, r3
 80042b4:	f8c0 e4d4 	str.w	lr, [r0, #1236]	; 0x4d4
 80042b8:	f8d0 34a8 	ldr.w	r3, [r0, #1192]	; 0x4a8
 80042bc:	f8d0 1430 	ldr.w	r1, [r0, #1072]	; 0x430
 80042c0:	f8d0 2480 	ldr.w	r2, [r0, #1152]	; 0x480
 80042c4:	f8d0 c40c 	ldr.w	ip, [r0, #1036]	; 0x40c
 80042c8:	404b      	eors	r3, r1
 80042ca:	4053      	eors	r3, r2
 80042cc:	ea93 030c 	eors.w	r3, r3, ip
 80042d0:	f8d0 145c 	ldr.w	r1, [r0, #1116]	; 0x45c
 80042d4:	404b      	eors	r3, r1
 80042d6:	f8d0 741c 	ldr.w	r7, [r0, #1052]	; 0x41c
 80042da:	f8d0 1468 	ldr.w	r1, [r0, #1128]	; 0x468
 80042de:	f8d0 23f0 	ldr.w	r2, [r0, #1008]	; 0x3f0
 80042e2:	f8d0 c444 	ldr.w	ip, [r0, #1092]	; 0x444
 80042e6:	404f      	eors	r7, r1
 80042e8:	4057      	eors	r7, r2
 80042ea:	ea97 070c 	eors.w	r7, r7, ip
 80042ee:	f8d0 1494 	ldr.w	r1, [r0, #1172]	; 0x494
 80042f2:	404f      	eors	r7, r1
 80042f4:	ea83 76f7 	eor.w	r6, r3, r7, ror #31
 80042f8:	f8c0 6500 	str.w	r6, [r0, #1280]	; 0x500
 80042fc:	f8d0 64ac 	ldr.w	r6, [r0, #1196]	; 0x4ac
 8004300:	f8d0 1434 	ldr.w	r1, [r0, #1076]	; 0x434
 8004304:	f8d0 2484 	ldr.w	r2, [r0, #1156]	; 0x484
 8004308:	f8d0 c408 	ldr.w	ip, [r0, #1032]	; 0x408
 800430c:	404e      	eors	r6, r1
 800430e:	4056      	eors	r6, r2
 8004310:	ea96 060c 	eors.w	r6, r6, ip
 8004314:	f8d0 1458 	ldr.w	r1, [r0, #1112]	; 0x458
 8004318:	404e      	eors	r6, r1
 800431a:	f8d0 e418 	ldr.w	lr, [r0, #1048]	; 0x418
 800431e:	f8d0 146c 	ldr.w	r1, [r0, #1132]	; 0x46c
 8004322:	f8d0 23f4 	ldr.w	r2, [r0, #1012]	; 0x3f4
 8004326:	f8d0 c440 	ldr.w	ip, [r0, #1088]	; 0x440
 800432a:	ea9e 0e01 	eors.w	lr, lr, r1
 800432e:	ea9e 0e02 	eors.w	lr, lr, r2
 8004332:	ea9e 0e0c 	eors.w	lr, lr, ip
 8004336:	f8d0 1490 	ldr.w	r1, [r0, #1168]	; 0x490
 800433a:	ea9e 0e01 	eors.w	lr, lr, r1
 800433e:	ea96 080e 	eors.w	r8, r6, lr
 8004342:	f8c0 8504 	str.w	r8, [r0, #1284]	; 0x504
 8004346:	f8d0 544c 	ldr.w	r5, [r0, #1100]	; 0x44c
 800434a:	f8d0 149c 	ldr.w	r1, [r0, #1180]	; 0x49c
 800434e:	f8d0 2420 	ldr.w	r2, [r0, #1056]	; 0x420
 8004352:	f8d0 c474 	ldr.w	ip, [r0, #1140]	; 0x474
 8004356:	404d      	eors	r5, r1
 8004358:	4055      	eors	r5, r2
 800435a:	ea95 050c 	eors.w	r5, r5, ip
 800435e:	f8d0 13f8 	ldr.w	r1, [r0, #1016]	; 0x3f8
 8004362:	404d      	eors	r5, r1
 8004364:	ea85 79f6 	eor.w	r9, r5, r6, ror #31
 8004368:	f8c0 9518 	str.w	r9, [r0, #1304]	; 0x518
 800436c:	f8d0 4448 	ldr.w	r4, [r0, #1096]	; 0x448
 8004370:	f8d0 1498 	ldr.w	r1, [r0, #1176]	; 0x498
 8004374:	f8d0 2424 	ldr.w	r2, [r0, #1060]	; 0x424
 8004378:	f8d0 c470 	ldr.w	ip, [r0, #1136]	; 0x470
 800437c:	404c      	eors	r4, r1
 800437e:	4054      	eors	r4, r2
 8004380:	ea94 040c 	eors.w	r4, r4, ip
 8004384:	f8d0 13fc 	ldr.w	r1, [r0, #1020]	; 0x3fc
 8004388:	404c      	eors	r4, r1
 800438a:	4063      	eors	r3, r4
 800438c:	f8c0 351c 	str.w	r3, [r0, #1308]	; 0x51c
 8004390:	f8d0 33e8 	ldr.w	r3, [r0, #1000]	; 0x3e8
 8004394:	f8d0 143c 	ldr.w	r1, [r0, #1084]	; 0x43c
 8004398:	f8d0 2488 	ldr.w	r2, [r0, #1160]	; 0x488
 800439c:	f8d0 c410 	ldr.w	ip, [r0, #1040]	; 0x410
 80043a0:	404b      	eors	r3, r1
 80043a2:	4053      	eors	r3, r2
 80043a4:	ea93 030c 	eors.w	r3, r3, ip
 80043a8:	f8d0 1464 	ldr.w	r1, [r0, #1124]	; 0x464
 80043ac:	404b      	eors	r3, r1
 80043ae:	ea83 7af4 	eor.w	sl, r3, r4, ror #31
 80043b2:	f8c0 a508 	str.w	sl, [r0, #1288]	; 0x508
 80043b6:	f8d0 63ec 	ldr.w	r6, [r0, #1004]	; 0x3ec
 80043ba:	f8d0 1438 	ldr.w	r1, [r0, #1080]	; 0x438
 80043be:	f8d0 248c 	ldr.w	r2, [r0, #1164]	; 0x48c
 80043c2:	f8d0 c414 	ldr.w	ip, [r0, #1044]	; 0x414
 80043c6:	404e      	eors	r6, r1
 80043c8:	4056      	eors	r6, r2
 80043ca:	ea96 060c 	eors.w	r6, r6, ip
 80043ce:	f8d0 1460 	ldr.w	r1, [r0, #1120]	; 0x460
 80043d2:	404e      	eors	r6, r1
 80043d4:	ea96 0b05 	eors.w	fp, r6, r5
 80043d8:	f8c0 b50c 	str.w	fp, [r0, #1292]	; 0x50c
 80043dc:	f8d0 4478 	ldr.w	r4, [r0, #1144]	; 0x478
 80043e0:	f8d0 1404 	ldr.w	r1, [r0, #1028]	; 0x404
 80043e4:	f8d0 2450 	ldr.w	r2, [r0, #1104]	; 0x450
 80043e8:	f8d0 c4a4 	ldr.w	ip, [r0, #1188]	; 0x4a4
 80043ec:	404c      	eors	r4, r1
 80043ee:	4054      	eors	r4, r2
 80043f0:	ea94 040c 	eors.w	r4, r4, ip
 80043f4:	f8d0 1428 	ldr.w	r1, [r0, #1064]	; 0x428
 80043f8:	404c      	eors	r4, r1
 80043fa:	ea8e 75f4 	eor.w	r5, lr, r4, ror #31
 80043fe:	f8c0 5510 	str.w	r5, [r0, #1296]	; 0x510
 8004402:	f8d0 547c 	ldr.w	r5, [r0, #1148]	; 0x47c
 8004406:	f8d0 1400 	ldr.w	r1, [r0, #1024]	; 0x400
 800440a:	f8d0 2454 	ldr.w	r2, [r0, #1108]	; 0x454
 800440e:	f8d0 c4a0 	ldr.w	ip, [r0, #1184]	; 0x4a0
 8004412:	404d      	eors	r5, r1
 8004414:	4055      	eors	r5, r2
 8004416:	ea95 050c 	eors.w	r5, r5, ip
 800441a:	f8d0 142c 	ldr.w	r1, [r0, #1068]	; 0x42c
 800441e:	404d      	eors	r5, r1
 8004420:	ea97 0205 	eors.w	r2, r7, r5
 8004424:	f8c0 2514 	str.w	r2, [r0, #1300]	; 0x514
 8004428:	ea85 7cf6 	eor.w	ip, r5, r6, ror #31
 800442c:	f8c0 c520 	str.w	ip, [r0, #1312]	; 0x520
 8004430:	ea94 0e03 	eors.w	lr, r4, r3
 8004434:	f8c0 e524 	str.w	lr, [r0, #1316]	; 0x524
 8004438:	f8d0 33e0 	ldr.w	r3, [r0, #992]	; 0x3e0
 800443c:	f8d0 1368 	ldr.w	r1, [r0, #872]	; 0x368
 8004440:	f8d0 23b8 	ldr.w	r2, [r0, #952]	; 0x3b8
 8004444:	f8d0 c344 	ldr.w	ip, [r0, #836]	; 0x344
 8004448:	404b      	eors	r3, r1
 800444a:	4053      	eors	r3, r2
 800444c:	ea93 030c 	eors.w	r3, r3, ip
 8004450:	f8d0 1394 	ldr.w	r1, [r0, #916]	; 0x394
 8004454:	404b      	eors	r3, r1
 8004456:	f8d0 7354 	ldr.w	r7, [r0, #852]	; 0x354
 800445a:	f8d0 13a0 	ldr.w	r1, [r0, #928]	; 0x3a0
 800445e:	f8d0 2328 	ldr.w	r2, [r0, #808]	; 0x328
 8004462:	f8d0 c37c 	ldr.w	ip, [r0, #892]	; 0x37c
 8004466:	404f      	eors	r7, r1
 8004468:	4057      	eors	r7, r2
 800446a:	ea97 070c 	eors.w	r7, r7, ip
 800446e:	f8d0 13cc 	ldr.w	r1, [r0, #972]	; 0x3cc
 8004472:	404f      	eors	r7, r1
 8004474:	ea83 76f7 	eor.w	r6, r3, r7, ror #31
 8004478:	f8c0 64d8 	str.w	r6, [r0, #1240]	; 0x4d8
 800447c:	f8d0 63e4 	ldr.w	r6, [r0, #996]	; 0x3e4
 8004480:	f8d0 136c 	ldr.w	r1, [r0, #876]	; 0x36c
 8004484:	f8d0 23bc 	ldr.w	r2, [r0, #956]	; 0x3bc
 8004488:	f8d0 c340 	ldr.w	ip, [r0, #832]	; 0x340
 800448c:	404e      	eors	r6, r1
 800448e:	4056      	eors	r6, r2
 8004490:	ea96 060c 	eors.w	r6, r6, ip
 8004494:	f8d0 1390 	ldr.w	r1, [r0, #912]	; 0x390
 8004498:	404e      	eors	r6, r1
 800449a:	f8d0 e350 	ldr.w	lr, [r0, #848]	; 0x350
 800449e:	f8d0 13a4 	ldr.w	r1, [r0, #932]	; 0x3a4
 80044a2:	f8d0 232c 	ldr.w	r2, [r0, #812]	; 0x32c
 80044a6:	f8d0 c378 	ldr.w	ip, [r0, #888]	; 0x378
 80044aa:	ea9e 0e01 	eors.w	lr, lr, r1
 80044ae:	ea9e 0e02 	eors.w	lr, lr, r2
 80044b2:	ea9e 0e0c 	eors.w	lr, lr, ip
 80044b6:	f8d0 13c8 	ldr.w	r1, [r0, #968]	; 0x3c8
 80044ba:	ea9e 0e01 	eors.w	lr, lr, r1
 80044be:	ea96 080e 	eors.w	r8, r6, lr
 80044c2:	f8c0 84dc 	str.w	r8, [r0, #1244]	; 0x4dc
 80044c6:	f8d0 5384 	ldr.w	r5, [r0, #900]	; 0x384
 80044ca:	f8d0 13d4 	ldr.w	r1, [r0, #980]	; 0x3d4
 80044ce:	f8d0 2358 	ldr.w	r2, [r0, #856]	; 0x358
 80044d2:	f8d0 c3ac 	ldr.w	ip, [r0, #940]	; 0x3ac
 80044d6:	404d      	eors	r5, r1
 80044d8:	4055      	eors	r5, r2
 80044da:	ea95 050c 	eors.w	r5, r5, ip
 80044de:	f8d0 1330 	ldr.w	r1, [r0, #816]	; 0x330
 80044e2:	404d      	eors	r5, r1
 80044e4:	ea85 79f6 	eor.w	r9, r5, r6, ror #31
 80044e8:	f8c0 94f0 	str.w	r9, [r0, #1264]	; 0x4f0
 80044ec:	f8d0 4380 	ldr.w	r4, [r0, #896]	; 0x380
 80044f0:	f8d0 13d0 	ldr.w	r1, [r0, #976]	; 0x3d0
 80044f4:	f8d0 235c 	ldr.w	r2, [r0, #860]	; 0x35c
 80044f8:	f8d0 c3a8 	ldr.w	ip, [r0, #936]	; 0x3a8
 80044fc:	404c      	eors	r4, r1
 80044fe:	4054      	eors	r4, r2
 8004500:	ea94 040c 	eors.w	r4, r4, ip
 8004504:	f8d0 1334 	ldr.w	r1, [r0, #820]	; 0x334
 8004508:	404c      	eors	r4, r1
 800450a:	4063      	eors	r3, r4
 800450c:	f8c0 34f4 	str.w	r3, [r0, #1268]	; 0x4f4
 8004510:	f8d0 3320 	ldr.w	r3, [r0, #800]	; 0x320
 8004514:	f8d0 1374 	ldr.w	r1, [r0, #884]	; 0x374
 8004518:	f8d0 23c0 	ldr.w	r2, [r0, #960]	; 0x3c0
 800451c:	f8d0 c348 	ldr.w	ip, [r0, #840]	; 0x348
 8004520:	404b      	eors	r3, r1
 8004522:	4053      	eors	r3, r2
 8004524:	ea93 030c 	eors.w	r3, r3, ip
 8004528:	f8d0 139c 	ldr.w	r1, [r0, #924]	; 0x39c
 800452c:	404b      	eors	r3, r1
 800452e:	ea83 7af4 	eor.w	sl, r3, r4, ror #31
 8004532:	f8c0 a4e0 	str.w	sl, [r0, #1248]	; 0x4e0
 8004536:	f8d0 6324 	ldr.w	r6, [r0, #804]	; 0x324
 800453a:	f8d0 1370 	ldr.w	r1, [r0, #880]	; 0x370
 800453e:	f8d0 23c4 	ldr.w	r2, [r0, #964]	; 0x3c4
 8004542:	f8d0 c34c 	ldr.w	ip, [r0, #844]	; 0x34c
 8004546:	404e      	eors	r6, r1
 8004548:	4056      	eors	r6, r2
 800454a:	ea96 060c 	eors.w	r6, r6, ip
 800454e:	f8d0 1398 	ldr.w	r1, [r0, #920]	; 0x398
 8004552:	404e      	eors	r6, r1
 8004554:	ea96 0b05 	eors.w	fp, r6, r5
 8004558:	f8c0 b4e4 	str.w	fp, [r0, #1252]	; 0x4e4
 800455c:	f8d0 43b0 	ldr.w	r4, [r0, #944]	; 0x3b0
 8004560:	f8d0 133c 	ldr.w	r1, [r0, #828]	; 0x33c
 8004564:	f8d0 2388 	ldr.w	r2, [r0, #904]	; 0x388
 8004568:	f8d0 c3dc 	ldr.w	ip, [r0, #988]	; 0x3dc
 800456c:	404c      	eors	r4, r1
 800456e:	4054      	eors	r4, r2
 8004570:	ea94 040c 	eors.w	r4, r4, ip
 8004574:	f8d0 1360 	ldr.w	r1, [r0, #864]	; 0x360
 8004578:	404c      	eors	r4, r1
 800457a:	ea8e 75f4 	eor.w	r5, lr, r4, ror #31
 800457e:	f8c0 54e8 	str.w	r5, [r0, #1256]	; 0x4e8
 8004582:	f8d0 53b4 	ldr.w	r5, [r0, #948]	; 0x3b4
 8004586:	f8d0 1338 	ldr.w	r1, [r0, #824]	; 0x338
 800458a:	f8d0 238c 	ldr.w	r2, [r0, #908]	; 0x38c
 800458e:	f8d0 c3d8 	ldr.w	ip, [r0, #984]	; 0x3d8
 8004592:	404d      	eors	r5, r1
 8004594:	4055      	eors	r5, r2
 8004596:	ea95 050c 	eors.w	r5, r5, ip
 800459a:	f8d0 1364 	ldr.w	r1, [r0, #868]	; 0x364
 800459e:	404d      	eors	r5, r1
 80045a0:	ea97 0205 	eors.w	r2, r7, r5
 80045a4:	f8c0 24ec 	str.w	r2, [r0, #1260]	; 0x4ec
 80045a8:	ea85 7cf6 	eor.w	ip, r5, r6, ror #31
 80045ac:	f8c0 c4f8 	str.w	ip, [r0, #1272]	; 0x4f8
 80045b0:	ea94 0e03 	eors.w	lr, r4, r3
 80045b4:	f8c0 e4fc 	str.w	lr, [r0, #1276]	; 0x4fc
 80045b8:	e92d 5f04 	stmdb	sp!, {r2, r8, r9, sl, fp, ip, lr}
 80045bc:	f8d0 53c4 	ldr.w	r5, [r0, #964]	; 0x3c4
 80045c0:	f8d0 637c 	ldr.w	r6, [r0, #892]	; 0x37c
 80045c4:	f8d0 7334 	ldr.w	r7, [r0, #820]	; 0x334
 80045c8:	f8d0 33b4 	ldr.w	r3, [r0, #948]	; 0x3b4
 80045cc:	f8d0 4368 	ldr.w	r4, [r0, #872]	; 0x368
 80045d0:	ea95 0508 	eors.w	r5, r5, r8
 80045d4:	ea96 060b 	eors.w	r6, r6, fp
 80045d8:	4057      	eors	r7, r2
 80045da:	ea93 0309 	eors.w	r3, r3, r9
 80045de:	ea94 040c 	eors.w	r4, r4, ip
 80045e2:	ea5f 75b5 	movs.w	r5, r5, ror #30
 80045e6:	ea5f 2676 	movs.w	r6, r6, ror #9
 80045ea:	ea5f 0777 	movs.w	r7, r7, ror #1
 80045ee:	ea5f 43b3 	movs.w	r3, r3, ror #18
 80045f2:	ea5f 54b4 	movs.w	r4, r4, ror #22
 80045f6:	f8c0 53c4 	str.w	r5, [r0, #964]	; 0x3c4
 80045fa:	f8c0 637c 	str.w	r6, [r0, #892]	; 0x37c
 80045fe:	f8c0 7334 	str.w	r7, [r0, #820]	; 0x334
 8004602:	f8c0 33b4 	str.w	r3, [r0, #948]	; 0x3b4
 8004606:	f8c0 4368 	str.w	r4, [r0, #872]	; 0x368
 800460a:	f8d0 a48c 	ldr.w	sl, [r0, #1164]	; 0x48c
 800460e:	f8d0 1504 	ldr.w	r1, [r0, #1284]	; 0x504
 8004612:	f8d0 b444 	ldr.w	fp, [r0, #1092]	; 0x444
 8004616:	f8d0 250c 	ldr.w	r2, [r0, #1292]	; 0x50c
 800461a:	f8d0 c3fc 	ldr.w	ip, [r0, #1020]	; 0x3fc
 800461e:	f8d0 e514 	ldr.w	lr, [r0, #1300]	; 0x514
 8004622:	ea9a 0a01 	eors.w	sl, sl, r1
 8004626:	ea9b 0b02 	eors.w	fp, fp, r2
 800462a:	ea9c 0c0e 	eors.w	ip, ip, lr
 800462e:	f8d0 847c 	ldr.w	r8, [r0, #1148]	; 0x47c
 8004632:	f8d0 1518 	ldr.w	r1, [r0, #1304]	; 0x518
 8004636:	f8d0 9430 	ldr.w	r9, [r0, #1072]	; 0x430
 800463a:	f8d0 e520 	ldr.w	lr, [r0, #1312]	; 0x520
 800463e:	ea98 0801 	eors.w	r8, r8, r1
 8004642:	ea99 090e 	eors.w	r9, r9, lr
 8004646:	ea5f 7aba 	movs.w	sl, sl, ror #30
 800464a:	ea5f 2b7b 	movs.w	fp, fp, ror #9
 800464e:	ea5f 0c7c 	movs.w	ip, ip, ror #1
 8004652:	ea5f 48b8 	movs.w	r8, r8, ror #18
 8004656:	ea5f 59b9 	movs.w	r9, r9, ror #22
 800465a:	ea93 0105 	eors.w	r1, r3, r5
 800465e:	ea04 0205 	and.w	r2, r4, r5
 8004662:	4051      	eors	r1, r2
 8004664:	ea04 020a 	and.w	r2, r4, sl
 8004668:	4051      	eors	r1, r2
 800466a:	ea09 0205 	and.w	r2, r9, r5
 800466e:	4051      	eors	r1, r2
 8004670:	f8c0 10a4 	str.w	r1, [r0, #164]	; 0xa4
 8004674:	ea94 0106 	eors.w	r1, r4, r6
 8004678:	ea05 0206 	and.w	r2, r5, r6
 800467c:	4051      	eors	r1, r2
 800467e:	ea05 020b 	and.w	r2, r5, fp
 8004682:	4051      	eors	r1, r2
 8004684:	ea0a 0206 	and.w	r2, sl, r6
 8004688:	4051      	eors	r1, r2
 800468a:	65c1      	str	r1, [r0, #92]	; 0x5c
 800468c:	ea95 0107 	eors.w	r1, r5, r7
 8004690:	ea06 0207 	and.w	r2, r6, r7
 8004694:	4051      	eors	r1, r2
 8004696:	ea06 020c 	and.w	r2, r6, ip
 800469a:	4051      	eors	r1, r2
 800469c:	ea0b 0207 	and.w	r2, fp, r7
 80046a0:	4051      	eors	r1, r2
 80046a2:	6141      	str	r1, [r0, #20]
 80046a4:	ea96 0103 	eors.w	r1, r6, r3
 80046a8:	ea07 0203 	and.w	r2, r7, r3
 80046ac:	4051      	eors	r1, r2
 80046ae:	ea07 0208 	and.w	r2, r7, r8
 80046b2:	4051      	eors	r1, r2
 80046b4:	ea0c 0203 	and.w	r2, ip, r3
 80046b8:	4051      	eors	r1, r2
 80046ba:	f8c0 1094 	str.w	r1, [r0, #148]	; 0x94
 80046be:	ea97 0104 	eors.w	r1, r7, r4
 80046c2:	ea03 0204 	and.w	r2, r3, r4
 80046c6:	4051      	eors	r1, r2
 80046c8:	ea03 0209 	and.w	r2, r3, r9
 80046cc:	4051      	eors	r1, r2
 80046ce:	ea08 0204 	and.w	r2, r8, r4
 80046d2:	4051      	eors	r1, r2
 80046d4:	6481      	str	r1, [r0, #72]	; 0x48
 80046d6:	f8d0 52fc 	ldr.w	r5, [r0, #764]	; 0x2fc
 80046da:	f8d0 14b4 	ldr.w	r1, [r0, #1204]	; 0x4b4
 80046de:	f8d0 62b4 	ldr.w	r6, [r0, #692]	; 0x2b4
 80046e2:	f8d0 24bc 	ldr.w	r2, [r0, #1212]	; 0x4bc
 80046e6:	f8d0 726c 	ldr.w	r7, [r0, #620]	; 0x26c
 80046ea:	f8d0 e4c4 	ldr.w	lr, [r0, #1220]	; 0x4c4
 80046ee:	404d      	eors	r5, r1
 80046f0:	4056      	eors	r6, r2
 80046f2:	ea97 070e 	eors.w	r7, r7, lr
 80046f6:	f8d0 32ec 	ldr.w	r3, [r0, #748]	; 0x2ec
 80046fa:	f8d0 14c8 	ldr.w	r1, [r0, #1224]	; 0x4c8
 80046fe:	f8d0 42a0 	ldr.w	r4, [r0, #672]	; 0x2a0
 8004702:	f8d0 e4d0 	ldr.w	lr, [r0, #1232]	; 0x4d0
 8004706:	404b      	eors	r3, r1
 8004708:	ea94 040e 	eors.w	r4, r4, lr
 800470c:	ea5f 75b5 	movs.w	r5, r5, ror #30
 8004710:	ea5f 2676 	movs.w	r6, r6, ror #9
 8004714:	ea5f 0777 	movs.w	r7, r7, ror #1
 8004718:	ea5f 43b3 	movs.w	r3, r3, ror #18
 800471c:	ea5f 54b4 	movs.w	r4, r4, ror #22
 8004720:	ea98 010a 	eors.w	r1, r8, sl
 8004724:	ea09 020a 	and.w	r2, r9, sl
 8004728:	4051      	eors	r1, r2
 800472a:	ea09 0205 	and.w	r2, r9, r5
 800472e:	4051      	eors	r1, r2
 8004730:	ea04 020a 	and.w	r2, r4, sl
 8004734:	4051      	eors	r1, r2
 8004736:	f8c0 116c 	str.w	r1, [r0, #364]	; 0x16c
 800473a:	ea99 010b 	eors.w	r1, r9, fp
 800473e:	ea0a 020b 	and.w	r2, sl, fp
 8004742:	4051      	eors	r1, r2
 8004744:	ea0a 0206 	and.w	r2, sl, r6
 8004748:	4051      	eors	r1, r2
 800474a:	ea05 020b 	and.w	r2, r5, fp
 800474e:	4051      	eors	r1, r2
 8004750:	f8c0 1124 	str.w	r1, [r0, #292]	; 0x124
 8004754:	ea9a 010c 	eors.w	r1, sl, ip
 8004758:	ea0b 020c 	and.w	r2, fp, ip
 800475c:	4051      	eors	r1, r2
 800475e:	ea0b 0207 	and.w	r2, fp, r7
 8004762:	4051      	eors	r1, r2
 8004764:	ea06 020c 	and.w	r2, r6, ip
 8004768:	4051      	eors	r1, r2
 800476a:	f8c0 10dc 	str.w	r1, [r0, #220]	; 0xdc
 800476e:	ea9b 0108 	eors.w	r1, fp, r8
 8004772:	ea0c 0208 	and.w	r2, ip, r8
 8004776:	4051      	eors	r1, r2
 8004778:	ea0c 0203 	and.w	r2, ip, r3
 800477c:	4051      	eors	r1, r2
 800477e:	ea07 0208 	and.w	r2, r7, r8
 8004782:	4051      	eors	r1, r2
 8004784:	f8c0 115c 	str.w	r1, [r0, #348]	; 0x15c
 8004788:	ea9c 0109 	eors.w	r1, ip, r9
 800478c:	ea08 0209 	and.w	r2, r8, r9
 8004790:	4051      	eors	r1, r2
 8004792:	ea08 0204 	and.w	r2, r8, r4
 8004796:	4051      	eors	r1, r2
 8004798:	ea03 0209 	and.w	r2, r3, r9
 800479c:	4051      	eors	r1, r2
 800479e:	f8c0 1110 	str.w	r1, [r0, #272]	; 0x110
 80047a2:	f8d0 a3c4 	ldr.w	sl, [r0, #964]	; 0x3c4
 80047a6:	f8d0 b37c 	ldr.w	fp, [r0, #892]	; 0x37c
 80047aa:	f8d0 c334 	ldr.w	ip, [r0, #820]	; 0x334
 80047ae:	f8d0 83b4 	ldr.w	r8, [r0, #948]	; 0x3b4
 80047b2:	f8d0 9368 	ldr.w	r9, [r0, #872]	; 0x368
 80047b6:	ea93 0105 	eors.w	r1, r3, r5
 80047ba:	ea04 0205 	and.w	r2, r4, r5
 80047be:	4051      	eors	r1, r2
 80047c0:	ea04 020a 	and.w	r2, r4, sl
 80047c4:	4051      	eors	r1, r2
 80047c6:	ea09 0205 	and.w	r2, r9, r5
 80047ca:	4051      	eors	r1, r2
 80047cc:	f8c0 1234 	str.w	r1, [r0, #564]	; 0x234
 80047d0:	ea94 0106 	eors.w	r1, r4, r6
 80047d4:	ea05 0206 	and.w	r2, r5, r6
 80047d8:	4051      	eors	r1, r2
 80047da:	ea05 020b 	and.w	r2, r5, fp
 80047de:	4051      	eors	r1, r2
 80047e0:	ea0a 0206 	and.w	r2, sl, r6
 80047e4:	4051      	eors	r1, r2
 80047e6:	f8c0 11ec 	str.w	r1, [r0, #492]	; 0x1ec
 80047ea:	ea95 0107 	eors.w	r1, r5, r7
 80047ee:	ea06 0207 	and.w	r2, r6, r7
 80047f2:	4051      	eors	r1, r2
 80047f4:	ea06 020c 	and.w	r2, r6, ip
 80047f8:	4051      	eors	r1, r2
 80047fa:	ea0b 0207 	and.w	r2, fp, r7
 80047fe:	4051      	eors	r1, r2
 8004800:	f8c0 11a4 	str.w	r1, [r0, #420]	; 0x1a4
 8004804:	ea96 0103 	eors.w	r1, r6, r3
 8004808:	ea07 0203 	and.w	r2, r7, r3
 800480c:	4051      	eors	r1, r2
 800480e:	ea07 0208 	and.w	r2, r7, r8
 8004812:	4051      	eors	r1, r2
 8004814:	ea0c 0203 	and.w	r2, ip, r3
 8004818:	4051      	eors	r1, r2
 800481a:	f8c0 1224 	str.w	r1, [r0, #548]	; 0x224
 800481e:	ea97 0104 	eors.w	r1, r7, r4
 8004822:	ea03 0204 	and.w	r2, r3, r4
 8004826:	4051      	eors	r1, r2
 8004828:	ea03 0209 	and.w	r2, r3, r9
 800482c:	4051      	eors	r1, r2
 800482e:	ea08 0204 	and.w	r2, r8, r4
 8004832:	4051      	eors	r1, r2
 8004834:	f8c0 11d8 	str.w	r1, [r0, #472]	; 0x1d8
 8004838:	e8bd 5f04 	ldmia.w	sp!, {r2, r8, r9, sl, fp, ip, lr}
 800483c:	e92d 5f04 	stmdb	sp!, {r2, r8, r9, sl, fp, ip, lr}
 8004840:	f8d0 7398 	ldr.w	r7, [r0, #920]	; 0x398
 8004844:	f8d0 3350 	ldr.w	r3, [r0, #848]	; 0x350
 8004848:	f8d0 43d0 	ldr.w	r4, [r0, #976]	; 0x3d0
 800484c:	f8d0 538c 	ldr.w	r5, [r0, #908]	; 0x38c
 8004850:	f8d0 6340 	ldr.w	r6, [r0, #832]	; 0x340
 8004854:	ea97 0708 	eors.w	r7, r7, r8
 8004858:	ea93 030a 	eors.w	r3, r3, sl
 800485c:	4054      	eors	r4, r2
 800485e:	ea95 0509 	eors.w	r5, r5, r9
 8004862:	ea96 060e 	eors.w	r6, r6, lr
 8004866:	ea5f 57f7 	movs.w	r7, r7, ror #23
 800486a:	ea5f 7474 	movs.w	r4, r4, ror #29
 800486e:	ea5f 5535 	movs.w	r5, r5, ror #20
 8004872:	ea5f 7636 	movs.w	r6, r6, ror #28
 8004876:	f8c0 7398 	str.w	r7, [r0, #920]	; 0x398
 800487a:	f8c0 3350 	str.w	r3, [r0, #848]	; 0x350
 800487e:	f8c0 43d0 	str.w	r4, [r0, #976]	; 0x3d0
 8004882:	f8c0 538c 	str.w	r5, [r0, #908]	; 0x38c
 8004886:	f8c0 6340 	str.w	r6, [r0, #832]	; 0x340
 800488a:	f8d0 c460 	ldr.w	ip, [r0, #1120]	; 0x460
 800488e:	f8d0 1504 	ldr.w	r1, [r0, #1284]	; 0x504
 8004892:	f8d0 8418 	ldr.w	r8, [r0, #1048]	; 0x418
 8004896:	f8d0 2508 	ldr.w	r2, [r0, #1288]	; 0x508
 800489a:	f8d0 9498 	ldr.w	r9, [r0, #1176]	; 0x498
 800489e:	f8d0 e514 	ldr.w	lr, [r0, #1300]	; 0x514
 80048a2:	ea9c 0c01 	eors.w	ip, ip, r1
 80048a6:	ea98 0802 	eors.w	r8, r8, r2
 80048aa:	ea99 090e 	eors.w	r9, r9, lr
 80048ae:	f8d0 a454 	ldr.w	sl, [r0, #1108]	; 0x454
 80048b2:	f8d0 1518 	ldr.w	r1, [r0, #1304]	; 0x518
 80048b6:	f8d0 b408 	ldr.w	fp, [r0, #1032]	; 0x408
 80048ba:	f8d0 e524 	ldr.w	lr, [r0, #1316]	; 0x524
 80048be:	ea9a 0a01 	eors.w	sl, sl, r1
 80048c2:	ea9b 0b0e 	eors.w	fp, fp, lr
 80048c6:	ea5f 5cfc 	movs.w	ip, ip, ror #23
 80048ca:	ea5f 7979 	movs.w	r9, r9, ror #29
 80048ce:	ea5f 5a3a 	movs.w	sl, sl, ror #20
 80048d2:	ea5f 7b3b 	movs.w	fp, fp, ror #28
 80048d6:	ea93 0105 	eors.w	r1, r3, r5
 80048da:	ea04 0205 	and.w	r2, r4, r5
 80048de:	4051      	eors	r1, r2
 80048e0:	ea04 020a 	and.w	r2, r4, sl
 80048e4:	4051      	eors	r1, r2
 80048e6:	ea09 0205 	and.w	r2, r9, r5
 80048ea:	4051      	eors	r1, r2
 80048ec:	6781      	str	r1, [r0, #120]	; 0x78
 80048ee:	ea94 0106 	eors.w	r1, r4, r6
 80048f2:	ea05 0206 	and.w	r2, r5, r6
 80048f6:	4051      	eors	r1, r2
 80048f8:	ea05 020b 	and.w	r2, r5, fp
 80048fc:	4051      	eors	r1, r2
 80048fe:	ea0a 0206 	and.w	r2, sl, r6
 8004902:	4051      	eors	r1, r2
 8004904:	6301      	str	r1, [r0, #48]	; 0x30
 8004906:	ea95 0107 	eors.w	r1, r5, r7
 800490a:	ea06 0207 	and.w	r2, r6, r7
 800490e:	4051      	eors	r1, r2
 8004910:	ea06 020c 	and.w	r2, r6, ip
 8004914:	4051      	eors	r1, r2
 8004916:	ea0b 0207 	and.w	r2, fp, r7
 800491a:	4051      	eors	r1, r2
 800491c:	f8c0 10b0 	str.w	r1, [r0, #176]	; 0xb0
 8004920:	ea96 0103 	eors.w	r1, r6, r3
 8004924:	ea07 0203 	and.w	r2, r7, r3
 8004928:	4051      	eors	r1, r2
 800492a:	ea07 0208 	and.w	r2, r7, r8
 800492e:	4051      	eors	r1, r2
 8004930:	ea0c 0203 	and.w	r2, ip, r3
 8004934:	4051      	eors	r1, r2
 8004936:	66c1      	str	r1, [r0, #108]	; 0x6c
 8004938:	ea97 0104 	eors.w	r1, r7, r4
 800493c:	ea03 0204 	and.w	r2, r3, r4
 8004940:	4051      	eors	r1, r2
 8004942:	ea03 0209 	and.w	r2, r3, r9
 8004946:	4051      	eors	r1, r2
 8004948:	ea08 0204 	and.w	r2, r8, r4
 800494c:	4051      	eors	r1, r2
 800494e:	6201      	str	r1, [r0, #32]
 8004950:	f8d0 72d0 	ldr.w	r7, [r0, #720]	; 0x2d0
 8004954:	f8d0 14b4 	ldr.w	r1, [r0, #1204]	; 0x4b4
 8004958:	f8d0 3288 	ldr.w	r3, [r0, #648]	; 0x288
 800495c:	f8d0 24b8 	ldr.w	r2, [r0, #1208]	; 0x4b8
 8004960:	f8d0 4308 	ldr.w	r4, [r0, #776]	; 0x308
 8004964:	f8d0 e4c4 	ldr.w	lr, [r0, #1220]	; 0x4c4
 8004968:	404f      	eors	r7, r1
 800496a:	4053      	eors	r3, r2
 800496c:	ea94 040e 	eors.w	r4, r4, lr
 8004970:	f8d0 52c4 	ldr.w	r5, [r0, #708]	; 0x2c4
 8004974:	f8d0 14c8 	ldr.w	r1, [r0, #1224]	; 0x4c8
 8004978:	f8d0 6278 	ldr.w	r6, [r0, #632]	; 0x278
 800497c:	f8d0 e4d4 	ldr.w	lr, [r0, #1236]	; 0x4d4
 8004980:	404d      	eors	r5, r1
 8004982:	ea96 060e 	eors.w	r6, r6, lr
 8004986:	ea5f 57f7 	movs.w	r7, r7, ror #23
 800498a:	ea5f 7474 	movs.w	r4, r4, ror #29
 800498e:	ea5f 5535 	movs.w	r5, r5, ror #20
 8004992:	ea5f 7636 	movs.w	r6, r6, ror #28
 8004996:	ea98 010a 	eors.w	r1, r8, sl
 800499a:	ea09 020a 	and.w	r2, r9, sl
 800499e:	4051      	eors	r1, r2
 80049a0:	ea09 0205 	and.w	r2, r9, r5
 80049a4:	4051      	eors	r1, r2
 80049a6:	ea04 020a 	and.w	r2, r4, sl
 80049aa:	4051      	eors	r1, r2
 80049ac:	f8c0 1140 	str.w	r1, [r0, #320]	; 0x140
 80049b0:	ea99 010b 	eors.w	r1, r9, fp
 80049b4:	ea0a 020b 	and.w	r2, sl, fp
 80049b8:	4051      	eors	r1, r2
 80049ba:	ea0a 0206 	and.w	r2, sl, r6
 80049be:	4051      	eors	r1, r2
 80049c0:	ea05 020b 	and.w	r2, r5, fp
 80049c4:	4051      	eors	r1, r2
 80049c6:	f8c0 10f8 	str.w	r1, [r0, #248]	; 0xf8
 80049ca:	ea9a 010c 	eors.w	r1, sl, ip
 80049ce:	ea0b 020c 	and.w	r2, fp, ip
 80049d2:	4051      	eors	r1, r2
 80049d4:	ea0b 0207 	and.w	r2, fp, r7
 80049d8:	4051      	eors	r1, r2
 80049da:	ea06 020c 	and.w	r2, r6, ip
 80049de:	4051      	eors	r1, r2
 80049e0:	f8c0 1178 	str.w	r1, [r0, #376]	; 0x178
 80049e4:	ea9b 0108 	eors.w	r1, fp, r8
 80049e8:	ea0c 0208 	and.w	r2, ip, r8
 80049ec:	4051      	eors	r1, r2
 80049ee:	ea0c 0203 	and.w	r2, ip, r3
 80049f2:	4051      	eors	r1, r2
 80049f4:	ea07 0208 	and.w	r2, r7, r8
 80049f8:	4051      	eors	r1, r2
 80049fa:	f8c0 1134 	str.w	r1, [r0, #308]	; 0x134
 80049fe:	ea9c 0109 	eors.w	r1, ip, r9
 8004a02:	ea08 0209 	and.w	r2, r8, r9
 8004a06:	4051      	eors	r1, r2
 8004a08:	ea08 0204 	and.w	r2, r8, r4
 8004a0c:	4051      	eors	r1, r2
 8004a0e:	ea03 0209 	and.w	r2, r3, r9
 8004a12:	4051      	eors	r1, r2
 8004a14:	f8c0 10e8 	str.w	r1, [r0, #232]	; 0xe8
 8004a18:	f8d0 c398 	ldr.w	ip, [r0, #920]	; 0x398
 8004a1c:	f8d0 8350 	ldr.w	r8, [r0, #848]	; 0x350
 8004a20:	f8d0 93d0 	ldr.w	r9, [r0, #976]	; 0x3d0
 8004a24:	f8d0 a38c 	ldr.w	sl, [r0, #908]	; 0x38c
 8004a28:	f8d0 b340 	ldr.w	fp, [r0, #832]	; 0x340
 8004a2c:	ea93 0105 	eors.w	r1, r3, r5
 8004a30:	ea04 0205 	and.w	r2, r4, r5
 8004a34:	4051      	eors	r1, r2
 8004a36:	ea04 020a 	and.w	r2, r4, sl
 8004a3a:	4051      	eors	r1, r2
 8004a3c:	ea09 0205 	and.w	r2, r9, r5
 8004a40:	4051      	eors	r1, r2
 8004a42:	f8c0 1208 	str.w	r1, [r0, #520]	; 0x208
 8004a46:	ea94 0106 	eors.w	r1, r4, r6
 8004a4a:	ea05 0206 	and.w	r2, r5, r6
 8004a4e:	4051      	eors	r1, r2
 8004a50:	ea05 020b 	and.w	r2, r5, fp
 8004a54:	4051      	eors	r1, r2
 8004a56:	ea0a 0206 	and.w	r2, sl, r6
 8004a5a:	4051      	eors	r1, r2
 8004a5c:	f8c0 11c0 	str.w	r1, [r0, #448]	; 0x1c0
 8004a60:	ea95 0107 	eors.w	r1, r5, r7
 8004a64:	ea06 0207 	and.w	r2, r6, r7
 8004a68:	4051      	eors	r1, r2
 8004a6a:	ea06 020c 	and.w	r2, r6, ip
 8004a6e:	4051      	eors	r1, r2
 8004a70:	ea0b 0207 	and.w	r2, fp, r7
 8004a74:	4051      	eors	r1, r2
 8004a76:	f8c0 1240 	str.w	r1, [r0, #576]	; 0x240
 8004a7a:	ea96 0103 	eors.w	r1, r6, r3
 8004a7e:	ea07 0203 	and.w	r2, r7, r3
 8004a82:	4051      	eors	r1, r2
 8004a84:	ea07 0208 	and.w	r2, r7, r8
 8004a88:	4051      	eors	r1, r2
 8004a8a:	ea0c 0203 	and.w	r2, ip, r3
 8004a8e:	4051      	eors	r1, r2
 8004a90:	f8c0 11fc 	str.w	r1, [r0, #508]	; 0x1fc
 8004a94:	ea97 0104 	eors.w	r1, r7, r4
 8004a98:	ea03 0204 	and.w	r2, r3, r4
 8004a9c:	4051      	eors	r1, r2
 8004a9e:	ea03 0209 	and.w	r2, r3, r9
 8004aa2:	4051      	eors	r1, r2
 8004aa4:	ea08 0204 	and.w	r2, r8, r4
 8004aa8:	4051      	eors	r1, r2
 8004aaa:	f8c0 11b0 	str.w	r1, [r0, #432]	; 0x1b0
 8004aae:	e8bd 5f04 	ldmia.w	sp!, {r2, r8, r9, sl, fp, ip, lr}
 8004ab2:	f8d0 84d8 	ldr.w	r8, [r0, #1240]	; 0x4d8
 8004ab6:	e92d 5f04 	stmdb	sp!, {r2, r8, r9, sl, fp, ip, lr}
 8004aba:	f8d0 4374 	ldr.w	r4, [r0, #884]	; 0x374
 8004abe:	f8d0 532c 	ldr.w	r5, [r0, #812]	; 0x32c
 8004ac2:	f8d0 63a8 	ldr.w	r6, [r0, #936]	; 0x3a8
 8004ac6:	f8d0 7364 	ldr.w	r7, [r0, #868]	; 0x364
 8004aca:	f8d0 33e4 	ldr.w	r3, [r0, #996]	; 0x3e4
 8004ace:	ea94 0408 	eors.w	r4, r4, r8
 8004ad2:	ea95 050a 	eors.w	r5, r5, sl
 8004ad6:	4056      	eors	r6, r2
 8004ad8:	ea97 0709 	eors.w	r7, r7, r9
 8004adc:	ea93 030e 	eors.w	r3, r3, lr
 8004ae0:	ea5f 34b4 	movs.w	r4, r4, ror #14
 8004ae4:	ea5f 65f5 	movs.w	r5, r5, ror #27
 8004ae8:	ea5f 6636 	movs.w	r6, r6, ror #24
 8004aec:	ea5f 1737 	movs.w	r7, r7, ror #4
 8004af0:	ea5f 43b3 	movs.w	r3, r3, ror #18
 8004af4:	f8c0 4374 	str.w	r4, [r0, #884]	; 0x374
 8004af8:	f8c0 532c 	str.w	r5, [r0, #812]	; 0x32c
 8004afc:	f8c0 63a8 	str.w	r6, [r0, #936]	; 0x3a8
 8004b00:	f8c0 7364 	str.w	r7, [r0, #868]	; 0x364
 8004b04:	f8c0 33e4 	str.w	r3, [r0, #996]	; 0x3e4
 8004b08:	f8d0 943c 	ldr.w	r9, [r0, #1084]	; 0x43c
 8004b0c:	f8d0 1500 	ldr.w	r1, [r0, #1280]	; 0x500
 8004b10:	f8d0 a3f4 	ldr.w	sl, [r0, #1012]	; 0x3f4
 8004b14:	f8d0 2508 	ldr.w	r2, [r0, #1288]	; 0x508
 8004b18:	f8d0 b470 	ldr.w	fp, [r0, #1136]	; 0x470
 8004b1c:	f8d0 e514 	ldr.w	lr, [r0, #1300]	; 0x514
 8004b20:	ea99 0901 	eors.w	r9, r9, r1
 8004b24:	ea9a 0a02 	eors.w	sl, sl, r2
 8004b28:	ea9b 0b0e 	eors.w	fp, fp, lr
 8004b2c:	f8d0 c42c 	ldr.w	ip, [r0, #1068]	; 0x42c
 8004b30:	f8d0 1518 	ldr.w	r1, [r0, #1304]	; 0x518
 8004b34:	f8d0 84ac 	ldr.w	r8, [r0, #1196]	; 0x4ac
 8004b38:	f8d0 e524 	ldr.w	lr, [r0, #1316]	; 0x524
 8004b3c:	ea9c 0c01 	eors.w	ip, ip, r1
 8004b40:	ea98 080e 	eors.w	r8, r8, lr
 8004b44:	ea5f 39b9 	movs.w	r9, r9, ror #14
 8004b48:	ea5f 6afa 	movs.w	sl, sl, ror #27
 8004b4c:	ea5f 6b3b 	movs.w	fp, fp, ror #24
 8004b50:	ea5f 1c3c 	movs.w	ip, ip, ror #4
 8004b54:	ea5f 48b8 	movs.w	r8, r8, ror #18
 8004b58:	ea93 0105 	eors.w	r1, r3, r5
 8004b5c:	ea04 0205 	and.w	r2, r4, r5
 8004b60:	4051      	eors	r1, r2
 8004b62:	ea04 020a 	and.w	r2, r4, sl
 8004b66:	4051      	eors	r1, r2
 8004b68:	ea09 0205 	and.w	r2, r9, r5
 8004b6c:	4051      	eors	r1, r2
 8004b6e:	6541      	str	r1, [r0, #84]	; 0x54
 8004b70:	ea94 0106 	eors.w	r1, r4, r6
 8004b74:	ea05 0206 	and.w	r2, r5, r6
 8004b78:	4051      	eors	r1, r2
 8004b7a:	ea05 020b 	and.w	r2, r5, fp
 8004b7e:	4051      	eors	r1, r2
 8004b80:	ea0a 0206 	and.w	r2, sl, r6
 8004b84:	4051      	eors	r1, r2
 8004b86:	60c1      	str	r1, [r0, #12]
 8004b88:	ea95 0107 	eors.w	r1, r5, r7
 8004b8c:	ea06 0207 	and.w	r2, r6, r7
 8004b90:	4051      	eors	r1, r2
 8004b92:	ea06 020c 	and.w	r2, r6, ip
 8004b96:	4051      	eors	r1, r2
 8004b98:	ea0b 0207 	and.w	r2, fp, r7
 8004b9c:	4051      	eors	r1, r2
 8004b9e:	f8c0 1088 	str.w	r1, [r0, #136]	; 0x88
 8004ba2:	ea96 0103 	eors.w	r1, r6, r3
 8004ba6:	ea07 0203 	and.w	r2, r7, r3
 8004baa:	4051      	eors	r1, r2
 8004bac:	ea07 0208 	and.w	r2, r7, r8
 8004bb0:	4051      	eors	r1, r2
 8004bb2:	ea0c 0203 	and.w	r2, ip, r3
 8004bb6:	4051      	eors	r1, r2
 8004bb8:	6441      	str	r1, [r0, #68]	; 0x44
 8004bba:	ea97 0104 	eors.w	r1, r7, r4
 8004bbe:	ea03 0204 	and.w	r2, r3, r4
 8004bc2:	4051      	eors	r1, r2
 8004bc4:	ea03 0209 	and.w	r2, r3, r9
 8004bc8:	4051      	eors	r1, r2
 8004bca:	ea08 0204 	and.w	r2, r8, r4
 8004bce:	4051      	eors	r1, r2
 8004bd0:	f8c0 10c4 	str.w	r1, [r0, #196]	; 0xc4
 8004bd4:	f8d0 42ac 	ldr.w	r4, [r0, #684]	; 0x2ac
 8004bd8:	f8d0 14b0 	ldr.w	r1, [r0, #1200]	; 0x4b0
 8004bdc:	f8d0 5264 	ldr.w	r5, [r0, #612]	; 0x264
 8004be0:	f8d0 24b8 	ldr.w	r2, [r0, #1208]	; 0x4b8
 8004be4:	f8d0 62e0 	ldr.w	r6, [r0, #736]	; 0x2e0
 8004be8:	f8d0 e4c4 	ldr.w	lr, [r0, #1220]	; 0x4c4
 8004bec:	404c      	eors	r4, r1
 8004bee:	4055      	eors	r5, r2
 8004bf0:	ea96 060e 	eors.w	r6, r6, lr
 8004bf4:	f8d0 729c 	ldr.w	r7, [r0, #668]	; 0x29c
 8004bf8:	f8d0 14c8 	ldr.w	r1, [r0, #1224]	; 0x4c8
 8004bfc:	f8d0 331c 	ldr.w	r3, [r0, #796]	; 0x31c
 8004c00:	f8d0 e4d4 	ldr.w	lr, [r0, #1236]	; 0x4d4
 8004c04:	404f      	eors	r7, r1
 8004c06:	ea93 030e 	eors.w	r3, r3, lr
 8004c0a:	ea5f 34b4 	movs.w	r4, r4, ror #14
 8004c0e:	ea5f 65f5 	movs.w	r5, r5, ror #27
 8004c12:	ea5f 6636 	movs.w	r6, r6, ror #24
 8004c16:	ea5f 1737 	movs.w	r7, r7, ror #4
 8004c1a:	ea5f 43b3 	movs.w	r3, r3, ror #18
 8004c1e:	ea98 010a 	eors.w	r1, r8, sl
 8004c22:	ea09 020a 	and.w	r2, r9, sl
 8004c26:	4051      	eors	r1, r2
 8004c28:	ea09 0205 	and.w	r2, r9, r5
 8004c2c:	4051      	eors	r1, r2
 8004c2e:	ea04 020a 	and.w	r2, r4, sl
 8004c32:	4051      	eors	r1, r2
 8004c34:	f8c0 111c 	str.w	r1, [r0, #284]	; 0x11c
 8004c38:	ea99 010b 	eors.w	r1, r9, fp
 8004c3c:	ea0a 020b 	and.w	r2, sl, fp
 8004c40:	4051      	eors	r1, r2
 8004c42:	ea0a 0206 	and.w	r2, sl, r6
 8004c46:	4051      	eors	r1, r2
 8004c48:	ea05 020b 	and.w	r2, r5, fp
 8004c4c:	4051      	eors	r1, r2
 8004c4e:	f8c0 10d4 	str.w	r1, [r0, #212]	; 0xd4
 8004c52:	ea9a 010c 	eors.w	r1, sl, ip
 8004c56:	ea0b 020c 	and.w	r2, fp, ip
 8004c5a:	4051      	eors	r1, r2
 8004c5c:	ea0b 0207 	and.w	r2, fp, r7
 8004c60:	4051      	eors	r1, r2
 8004c62:	ea06 020c 	and.w	r2, r6, ip
 8004c66:	4051      	eors	r1, r2
 8004c68:	f8c0 1150 	str.w	r1, [r0, #336]	; 0x150
 8004c6c:	ea9b 0108 	eors.w	r1, fp, r8
 8004c70:	ea0c 0208 	and.w	r2, ip, r8
 8004c74:	4051      	eors	r1, r2
 8004c76:	ea0c 0203 	and.w	r2, ip, r3
 8004c7a:	4051      	eors	r1, r2
 8004c7c:	ea07 0208 	and.w	r2, r7, r8
 8004c80:	4051      	eors	r1, r2
 8004c82:	f8c0 110c 	str.w	r1, [r0, #268]	; 0x10c
 8004c86:	ea9c 0109 	eors.w	r1, ip, r9
 8004c8a:	ea08 0209 	and.w	r2, r8, r9
 8004c8e:	4051      	eors	r1, r2
 8004c90:	ea08 0204 	and.w	r2, r8, r4
 8004c94:	4051      	eors	r1, r2
 8004c96:	ea03 0209 	and.w	r2, r3, r9
 8004c9a:	4051      	eors	r1, r2
 8004c9c:	f8c0 118c 	str.w	r1, [r0, #396]	; 0x18c
 8004ca0:	f8d0 9374 	ldr.w	r9, [r0, #884]	; 0x374
 8004ca4:	f8d0 a32c 	ldr.w	sl, [r0, #812]	; 0x32c
 8004ca8:	f8d0 b3a8 	ldr.w	fp, [r0, #936]	; 0x3a8
 8004cac:	f8d0 c364 	ldr.w	ip, [r0, #868]	; 0x364
 8004cb0:	f8d0 83e4 	ldr.w	r8, [r0, #996]	; 0x3e4
 8004cb4:	ea93 0105 	eors.w	r1, r3, r5
 8004cb8:	ea04 0205 	and.w	r2, r4, r5
 8004cbc:	4051      	eors	r1, r2
 8004cbe:	ea04 020a 	and.w	r2, r4, sl
 8004cc2:	4051      	eors	r1, r2
 8004cc4:	ea09 0205 	and.w	r2, r9, r5
 8004cc8:	4051      	eors	r1, r2
 8004cca:	f8c0 11e4 	str.w	r1, [r0, #484]	; 0x1e4
 8004cce:	ea94 0106 	eors.w	r1, r4, r6
 8004cd2:	ea05 0206 	and.w	r2, r5, r6
 8004cd6:	4051      	eors	r1, r2
 8004cd8:	ea05 020b 	and.w	r2, r5, fp
 8004cdc:	4051      	eors	r1, r2
 8004cde:	ea0a 0206 	and.w	r2, sl, r6
 8004ce2:	4051      	eors	r1, r2
 8004ce4:	f8c0 119c 	str.w	r1, [r0, #412]	; 0x19c
 8004ce8:	ea95 0107 	eors.w	r1, r5, r7
 8004cec:	ea06 0207 	and.w	r2, r6, r7
 8004cf0:	4051      	eors	r1, r2
 8004cf2:	ea06 020c 	and.w	r2, r6, ip
 8004cf6:	4051      	eors	r1, r2
 8004cf8:	ea0b 0207 	and.w	r2, fp, r7
 8004cfc:	4051      	eors	r1, r2
 8004cfe:	f8c0 1218 	str.w	r1, [r0, #536]	; 0x218
 8004d02:	ea96 0103 	eors.w	r1, r6, r3
 8004d06:	ea07 0203 	and.w	r2, r7, r3
 8004d0a:	4051      	eors	r1, r2
 8004d0c:	ea07 0208 	and.w	r2, r7, r8
 8004d10:	4051      	eors	r1, r2
 8004d12:	ea0c 0203 	and.w	r2, ip, r3
 8004d16:	4051      	eors	r1, r2
 8004d18:	f8c0 11d4 	str.w	r1, [r0, #468]	; 0x1d4
 8004d1c:	ea97 0104 	eors.w	r1, r7, r4
 8004d20:	ea03 0204 	and.w	r2, r3, r4
 8004d24:	4051      	eors	r1, r2
 8004d26:	ea03 0209 	and.w	r2, r3, r9
 8004d2a:	4051      	eors	r1, r2
 8004d2c:	ea08 0204 	and.w	r2, r8, r4
 8004d30:	4051      	eors	r1, r2
 8004d32:	f8c0 1254 	str.w	r1, [r0, #596]	; 0x254
 8004d36:	e8bd 5f04 	ldmia.w	sp!, {r2, r8, r9, sl, fp, ip, lr}
 8004d3a:	e92d 5f04 	stmdb	sp!, {r2, r8, r9, sl, fp, ip, lr}
 8004d3e:	f8d0 6348 	ldr.w	r6, [r0, #840]	; 0x348
 8004d42:	f8d0 73cc 	ldr.w	r7, [r0, #972]	; 0x3cc
 8004d46:	f8d0 3380 	ldr.w	r3, [r0, #896]	; 0x380
 8004d4a:	f8d0 4338 	ldr.w	r4, [r0, #824]	; 0x338
 8004d4e:	f8d0 53b8 	ldr.w	r5, [r0, #952]	; 0x3b8
 8004d52:	ea96 0608 	eors.w	r6, r6, r8
 8004d56:	ea97 070b 	eors.w	r7, r7, fp
 8004d5a:	4053      	eors	r3, r2
 8004d5c:	ea94 0409 	eors.w	r4, r4, r9
 8004d60:	ea95 050c 	eors.w	r5, r5, ip
 8004d64:	ea5f 3636 	movs.w	r6, r6, ror #12
 8004d68:	ea5f 77f7 	movs.w	r7, r7, ror #31
 8004d6c:	ea5f 0373 	movs.w	r3, r3, ror #1
 8004d70:	ea5f 1474 	movs.w	r4, r4, ror #5
 8004d74:	ea5f 3575 	movs.w	r5, r5, ror #13
 8004d78:	f8c0 6348 	str.w	r6, [r0, #840]	; 0x348
 8004d7c:	f8c0 73cc 	str.w	r7, [r0, #972]	; 0x3cc
 8004d80:	f8c0 3380 	str.w	r3, [r0, #896]	; 0x380
 8004d84:	f8c0 4338 	str.w	r4, [r0, #824]	; 0x338
 8004d88:	f8c0 53b8 	str.w	r5, [r0, #952]	; 0x3b8
 8004d8c:	f8d0 b410 	ldr.w	fp, [r0, #1040]	; 0x410
 8004d90:	f8d0 1500 	ldr.w	r1, [r0, #1280]	; 0x500
 8004d94:	f8d0 c494 	ldr.w	ip, [r0, #1172]	; 0x494
 8004d98:	f8d0 250c 	ldr.w	r2, [r0, #1292]	; 0x50c
 8004d9c:	f8d0 8448 	ldr.w	r8, [r0, #1096]	; 0x448
 8004da0:	f8d0 e514 	ldr.w	lr, [r0, #1300]	; 0x514
 8004da4:	ea9b 0b01 	eors.w	fp, fp, r1
 8004da8:	ea9c 0c02 	eors.w	ip, ip, r2
 8004dac:	ea98 080e 	eors.w	r8, r8, lr
 8004db0:	f8d0 9400 	ldr.w	r9, [r0, #1024]	; 0x400
 8004db4:	f8d0 1518 	ldr.w	r1, [r0, #1304]	; 0x518
 8004db8:	f8d0 a480 	ldr.w	sl, [r0, #1152]	; 0x480
 8004dbc:	f8d0 e520 	ldr.w	lr, [r0, #1312]	; 0x520
 8004dc0:	ea99 0901 	eors.w	r9, r9, r1
 8004dc4:	ea9a 0a0e 	eors.w	sl, sl, lr
 8004dc8:	ea5f 3b3b 	movs.w	fp, fp, ror #12
 8004dcc:	ea5f 7cfc 	movs.w	ip, ip, ror #31
 8004dd0:	ea5f 0878 	movs.w	r8, r8, ror #1
 8004dd4:	ea5f 1979 	movs.w	r9, r9, ror #5
 8004dd8:	ea5f 3a7a 	movs.w	sl, sl, ror #13
 8004ddc:	ea93 0105 	eors.w	r1, r3, r5
 8004de0:	ea04 0205 	and.w	r2, r4, r5
 8004de4:	4051      	eors	r1, r2
 8004de6:	ea04 020a 	and.w	r2, r4, sl
 8004dea:	4051      	eors	r1, r2
 8004dec:	ea09 0205 	and.w	r2, r9, r5
 8004df0:	4051      	eors	r1, r2
 8004df2:	6281      	str	r1, [r0, #40]	; 0x28
 8004df4:	ea94 0106 	eors.w	r1, r4, r6
 8004df8:	ea05 0206 	and.w	r2, r5, r6
 8004dfc:	4051      	eors	r1, r2
 8004dfe:	ea05 020b 	and.w	r2, r5, fp
 8004e02:	4051      	eors	r1, r2
 8004e04:	ea0a 0206 	and.w	r2, sl, r6
 8004e08:	4051      	eors	r1, r2
 8004e0a:	f8c0 10ac 	str.w	r1, [r0, #172]	; 0xac
 8004e0e:	ea95 0107 	eors.w	r1, r5, r7
 8004e12:	ea06 0207 	and.w	r2, r6, r7
 8004e16:	4051      	eors	r1, r2
 8004e18:	ea06 020c 	and.w	r2, r6, ip
 8004e1c:	4051      	eors	r1, r2
 8004e1e:	ea0b 0207 	and.w	r2, fp, r7
 8004e22:	4051      	eors	r1, r2
 8004e24:	6601      	str	r1, [r0, #96]	; 0x60
 8004e26:	ea96 0103 	eors.w	r1, r6, r3
 8004e2a:	ea07 0203 	and.w	r2, r7, r3
 8004e2e:	4051      	eors	r1, r2
 8004e30:	ea07 0208 	and.w	r2, r7, r8
 8004e34:	4051      	eors	r1, r2
 8004e36:	ea0c 0203 	and.w	r2, ip, r3
 8004e3a:	4051      	eors	r1, r2
 8004e3c:	6181      	str	r1, [r0, #24]
 8004e3e:	ea97 0104 	eors.w	r1, r7, r4
 8004e42:	ea03 0204 	and.w	r2, r3, r4
 8004e46:	4051      	eors	r1, r2
 8004e48:	ea03 0209 	and.w	r2, r3, r9
 8004e4c:	4051      	eors	r1, r2
 8004e4e:	ea08 0204 	and.w	r2, r8, r4
 8004e52:	4051      	eors	r1, r2
 8004e54:	f8c0 1098 	str.w	r1, [r0, #152]	; 0x98
 8004e58:	f8d0 6280 	ldr.w	r6, [r0, #640]	; 0x280
 8004e5c:	f8d0 14b0 	ldr.w	r1, [r0, #1200]	; 0x4b0
 8004e60:	f8d0 7304 	ldr.w	r7, [r0, #772]	; 0x304
 8004e64:	f8d0 24bc 	ldr.w	r2, [r0, #1212]	; 0x4bc
 8004e68:	f8d0 32b8 	ldr.w	r3, [r0, #696]	; 0x2b8
 8004e6c:	f8d0 e4c4 	ldr.w	lr, [r0, #1220]	; 0x4c4
 8004e70:	404e      	eors	r6, r1
 8004e72:	4057      	eors	r7, r2
 8004e74:	ea93 030e 	eors.w	r3, r3, lr
 8004e78:	f8d0 4270 	ldr.w	r4, [r0, #624]	; 0x270
 8004e7c:	f8d0 14c8 	ldr.w	r1, [r0, #1224]	; 0x4c8
 8004e80:	f8d0 52f0 	ldr.w	r5, [r0, #752]	; 0x2f0
 8004e84:	f8d0 e4d0 	ldr.w	lr, [r0, #1232]	; 0x4d0
 8004e88:	404c      	eors	r4, r1
 8004e8a:	ea95 050e 	eors.w	r5, r5, lr
 8004e8e:	ea5f 3636 	movs.w	r6, r6, ror #12
 8004e92:	ea5f 77f7 	movs.w	r7, r7, ror #31
 8004e96:	ea5f 0373 	movs.w	r3, r3, ror #1
 8004e9a:	ea5f 1474 	movs.w	r4, r4, ror #5
 8004e9e:	ea5f 3575 	movs.w	r5, r5, ror #13
 8004ea2:	ea98 010a 	eors.w	r1, r8, sl
 8004ea6:	ea09 020a 	and.w	r2, r9, sl
 8004eaa:	4051      	eors	r1, r2
 8004eac:	ea09 0205 	and.w	r2, r9, r5
 8004eb0:	4051      	eors	r1, r2
 8004eb2:	ea04 020a 	and.w	r2, r4, sl
 8004eb6:	4051      	eors	r1, r2
 8004eb8:	f8c0 10f0 	str.w	r1, [r0, #240]	; 0xf0
 8004ebc:	ea99 010b 	eors.w	r1, r9, fp
 8004ec0:	ea0a 020b 	and.w	r2, sl, fp
 8004ec4:	4051      	eors	r1, r2
 8004ec6:	ea0a 0206 	and.w	r2, sl, r6
 8004eca:	4051      	eors	r1, r2
 8004ecc:	ea05 020b 	and.w	r2, r5, fp
 8004ed0:	4051      	eors	r1, r2
 8004ed2:	f8c0 1174 	str.w	r1, [r0, #372]	; 0x174
 8004ed6:	ea9a 010c 	eors.w	r1, sl, ip
 8004eda:	ea0b 020c 	and.w	r2, fp, ip
 8004ede:	4051      	eors	r1, r2
 8004ee0:	ea0b 0207 	and.w	r2, fp, r7
 8004ee4:	4051      	eors	r1, r2
 8004ee6:	ea06 020c 	and.w	r2, r6, ip
 8004eea:	4051      	eors	r1, r2
 8004eec:	f8c0 1128 	str.w	r1, [r0, #296]	; 0x128
 8004ef0:	ea9b 0108 	eors.w	r1, fp, r8
 8004ef4:	ea0c 0208 	and.w	r2, ip, r8
 8004ef8:	4051      	eors	r1, r2
 8004efa:	ea0c 0203 	and.w	r2, ip, r3
 8004efe:	4051      	eors	r1, r2
 8004f00:	ea07 0208 	and.w	r2, r7, r8
 8004f04:	4051      	eors	r1, r2
 8004f06:	f8c0 10e0 	str.w	r1, [r0, #224]	; 0xe0
 8004f0a:	ea9c 0109 	eors.w	r1, ip, r9
 8004f0e:	ea08 0209 	and.w	r2, r8, r9
 8004f12:	4051      	eors	r1, r2
 8004f14:	ea08 0204 	and.w	r2, r8, r4
 8004f18:	4051      	eors	r1, r2
 8004f1a:	ea03 0209 	and.w	r2, r3, r9
 8004f1e:	4051      	eors	r1, r2
 8004f20:	f8c0 1160 	str.w	r1, [r0, #352]	; 0x160
 8004f24:	f8d0 b348 	ldr.w	fp, [r0, #840]	; 0x348
 8004f28:	f8d0 c3cc 	ldr.w	ip, [r0, #972]	; 0x3cc
 8004f2c:	f8d0 8380 	ldr.w	r8, [r0, #896]	; 0x380
 8004f30:	f8d0 9338 	ldr.w	r9, [r0, #824]	; 0x338
 8004f34:	f8d0 a3b8 	ldr.w	sl, [r0, #952]	; 0x3b8
 8004f38:	ea93 0105 	eors.w	r1, r3, r5
 8004f3c:	ea04 0205 	and.w	r2, r4, r5
 8004f40:	4051      	eors	r1, r2
 8004f42:	ea04 020a 	and.w	r2, r4, sl
 8004f46:	4051      	eors	r1, r2
 8004f48:	ea09 0205 	and.w	r2, r9, r5
 8004f4c:	4051      	eors	r1, r2
 8004f4e:	f8c0 11b8 	str.w	r1, [r0, #440]	; 0x1b8
 8004f52:	ea94 0106 	eors.w	r1, r4, r6
 8004f56:	ea05 0206 	and.w	r2, r5, r6
 8004f5a:	4051      	eors	r1, r2
 8004f5c:	ea05 020b 	and.w	r2, r5, fp
 8004f60:	4051      	eors	r1, r2
 8004f62:	ea0a 0206 	and.w	r2, sl, r6
 8004f66:	4051      	eors	r1, r2
 8004f68:	f8c0 123c 	str.w	r1, [r0, #572]	; 0x23c
 8004f6c:	ea95 0107 	eors.w	r1, r5, r7
 8004f70:	ea06 0207 	and.w	r2, r6, r7
 8004f74:	4051      	eors	r1, r2
 8004f76:	ea06 020c 	and.w	r2, r6, ip
 8004f7a:	4051      	eors	r1, r2
 8004f7c:	ea0b 0207 	and.w	r2, fp, r7
 8004f80:	4051      	eors	r1, r2
 8004f82:	f8c0 11f0 	str.w	r1, [r0, #496]	; 0x1f0
 8004f86:	ea96 0103 	eors.w	r1, r6, r3
 8004f8a:	ea07 0203 	and.w	r2, r7, r3
 8004f8e:	4051      	eors	r1, r2
 8004f90:	ea07 0208 	and.w	r2, r7, r8
 8004f94:	4051      	eors	r1, r2
 8004f96:	ea0c 0203 	and.w	r2, ip, r3
 8004f9a:	4051      	eors	r1, r2
 8004f9c:	f8c0 11a8 	str.w	r1, [r0, #424]	; 0x1a8
 8004fa0:	ea97 0104 	eors.w	r1, r7, r4
 8004fa4:	ea03 0204 	and.w	r2, r3, r4
 8004fa8:	4051      	eors	r1, r2
 8004faa:	ea03 0209 	and.w	r2, r3, r9
 8004fae:	4051      	eors	r1, r2
 8004fb0:	ea08 0204 	and.w	r2, r8, r4
 8004fb4:	4051      	eors	r1, r2
 8004fb6:	f8c0 1228 	str.w	r1, [r0, #552]	; 0x228
 8004fba:	e8bd 5f04 	ldmia.w	sp!, {r2, r8, r9, sl, fp, ip, lr}
 8004fbe:	f8d0 94f4 	ldr.w	r9, [r0, #1268]	; 0x4f4
 8004fc2:	e92d 5f04 	stmdb	sp!, {r2, r8, r9, sl, fp, ip, lr}
 8004fc6:	f8d0 3320 	ldr.w	r3, [r0, #800]	; 0x320
 8004fca:	f8d0 43a4 	ldr.w	r4, [r0, #932]	; 0x3a4
 8004fce:	f8d0 535c 	ldr.w	r5, [r0, #860]	; 0x35c
 8004fd2:	f8d0 63dc 	ldr.w	r6, [r0, #988]	; 0x3dc
 8004fd6:	f8d0 7394 	ldr.w	r7, [r0, #916]	; 0x394
 8004fda:	ea93 0308 	eors.w	r3, r3, r8
 8004fde:	ea94 040a 	eors.w	r4, r4, sl
 8004fe2:	4055      	eors	r5, r2
 8004fe4:	ea96 0609 	eors.w	r6, r6, r9
 8004fe8:	ea97 070c 	eors.w	r7, r7, ip
 8004fec:	ea5f 24b4 	movs.w	r4, r4, ror #10
 8004ff0:	ea5f 25b5 	movs.w	r5, r5, ror #10
 8004ff4:	ea5f 5676 	movs.w	r6, r6, ror #21
 8004ff8:	ea5f 6777 	movs.w	r7, r7, ror #25
 8004ffc:	f8c0 3320 	str.w	r3, [r0, #800]	; 0x320
 8005000:	f8c0 43a4 	str.w	r4, [r0, #932]	; 0x3a4
 8005004:	f8c0 535c 	str.w	r5, [r0, #860]	; 0x35c
 8005008:	f8c0 63dc 	str.w	r6, [r0, #988]	; 0x3dc
 800500c:	f8c0 7394 	str.w	r7, [r0, #916]	; 0x394
 8005010:	f8d0 83e8 	ldr.w	r8, [r0, #1000]	; 0x3e8
 8005014:	f8d0 1500 	ldr.w	r1, [r0, #1280]	; 0x500
 8005018:	f8d0 946c 	ldr.w	r9, [r0, #1132]	; 0x46c
 800501c:	f8d0 2508 	ldr.w	r2, [r0, #1288]	; 0x508
 8005020:	f8d0 a424 	ldr.w	sl, [r0, #1060]	; 0x424
 8005024:	f8d0 e514 	ldr.w	lr, [r0, #1300]	; 0x514
 8005028:	ea98 0801 	eors.w	r8, r8, r1
 800502c:	ea99 0902 	eors.w	r9, r9, r2
 8005030:	ea9a 0a0e 	eors.w	sl, sl, lr
 8005034:	f8d0 b4a4 	ldr.w	fp, [r0, #1188]	; 0x4a4
 8005038:	f8d0 151c 	ldr.w	r1, [r0, #1308]	; 0x51c
 800503c:	f8d0 c45c 	ldr.w	ip, [r0, #1116]	; 0x45c
 8005040:	f8d0 e520 	ldr.w	lr, [r0, #1312]	; 0x520
 8005044:	ea9b 0b01 	eors.w	fp, fp, r1
 8005048:	ea9c 0c0e 	eors.w	ip, ip, lr
 800504c:	ea5f 29b9 	movs.w	r9, r9, ror #10
 8005050:	ea5f 2aba 	movs.w	sl, sl, ror #10
 8005054:	ea5f 5b7b 	movs.w	fp, fp, ror #21
 8005058:	ea5f 6c7c 	movs.w	ip, ip, ror #25
 800505c:	ea93 0105 	eors.w	r1, r3, r5
 8005060:	ea04 0205 	and.w	r2, r4, r5
 8005064:	4051      	eors	r1, r2
 8005066:	ea04 020a 	and.w	r2, r4, sl
 800506a:	4051      	eors	r1, r2
 800506c:	ea09 0205 	and.w	r2, r9, r5
 8005070:	4051      	eors	r1, r2
 8005072:	6001      	str	r1, [r0, #0]
 8005074:	ea94 0106 	eors.w	r1, r4, r6
 8005078:	ea05 0206 	and.w	r2, r5, r6
 800507c:	4051      	eors	r1, r2
 800507e:	ea05 020b 	and.w	r2, r5, fp
 8005082:	4051      	eors	r1, r2
 8005084:	ea0a 0206 	and.w	r2, sl, r6
 8005088:	4051      	eors	r1, r2
 800508a:	f8c0 1084 	str.w	r1, [r0, #132]	; 0x84
 800508e:	ea95 0107 	eors.w	r1, r5, r7
 8005092:	ea06 0207 	and.w	r2, r6, r7
 8005096:	4051      	eors	r1, r2
 8005098:	ea06 020c 	and.w	r2, r6, ip
 800509c:	4051      	eors	r1, r2
 800509e:	ea0b 0207 	and.w	r2, fp, r7
 80050a2:	4051      	eors	r1, r2
 80050a4:	63c1      	str	r1, [r0, #60]	; 0x3c
 80050a6:	ea96 0103 	eors.w	r1, r6, r3
 80050aa:	ea07 0203 	and.w	r2, r7, r3
 80050ae:	4051      	eors	r1, r2
 80050b0:	ea07 0208 	and.w	r2, r7, r8
 80050b4:	4051      	eors	r1, r2
 80050b6:	ea0c 0203 	and.w	r2, ip, r3
 80050ba:	4051      	eors	r1, r2
 80050bc:	f8c0 10bc 	str.w	r1, [r0, #188]	; 0xbc
 80050c0:	ea97 0104 	eors.w	r1, r7, r4
 80050c4:	ea03 0204 	and.w	r2, r3, r4
 80050c8:	4051      	eors	r1, r2
 80050ca:	ea03 0209 	and.w	r2, r3, r9
 80050ce:	4051      	eors	r1, r2
 80050d0:	ea08 0204 	and.w	r2, r8, r4
 80050d4:	4051      	eors	r1, r2
 80050d6:	6741      	str	r1, [r0, #116]	; 0x74
 80050d8:	f8d0 3258 	ldr.w	r3, [r0, #600]	; 0x258
 80050dc:	f8d0 14b0 	ldr.w	r1, [r0, #1200]	; 0x4b0
 80050e0:	f8d0 42dc 	ldr.w	r4, [r0, #732]	; 0x2dc
 80050e4:	f8d0 24b8 	ldr.w	r2, [r0, #1208]	; 0x4b8
 80050e8:	f8d0 5294 	ldr.w	r5, [r0, #660]	; 0x294
 80050ec:	f8d0 e4c4 	ldr.w	lr, [r0, #1220]	; 0x4c4
 80050f0:	404b      	eors	r3, r1
 80050f2:	4054      	eors	r4, r2
 80050f4:	ea95 050e 	eors.w	r5, r5, lr
 80050f8:	f8d0 6314 	ldr.w	r6, [r0, #788]	; 0x314
 80050fc:	f8d0 14cc 	ldr.w	r1, [r0, #1228]	; 0x4cc
 8005100:	f8d0 72cc 	ldr.w	r7, [r0, #716]	; 0x2cc
 8005104:	f8d0 e4d0 	ldr.w	lr, [r0, #1232]	; 0x4d0
 8005108:	404e      	eors	r6, r1
 800510a:	ea97 070e 	eors.w	r7, r7, lr
 800510e:	ea5f 24b4 	movs.w	r4, r4, ror #10
 8005112:	ea5f 25b5 	movs.w	r5, r5, ror #10
 8005116:	ea5f 5676 	movs.w	r6, r6, ror #21
 800511a:	ea5f 6777 	movs.w	r7, r7, ror #25
 800511e:	ea98 010a 	eors.w	r1, r8, sl
 8005122:	ea09 020a 	and.w	r2, r9, sl
 8005126:	4051      	eors	r1, r2
 8005128:	ea09 0205 	and.w	r2, r9, r5
 800512c:	4051      	eors	r1, r2
 800512e:	ea04 020a 	and.w	r2, r4, sl
 8005132:	4051      	eors	r1, r2
 8005134:	f8c0 10c8 	str.w	r1, [r0, #200]	; 0xc8
 8005138:	ea99 010b 	eors.w	r1, r9, fp
 800513c:	ea0a 020b 	and.w	r2, sl, fp
 8005140:	4051      	eors	r1, r2
 8005142:	ea0a 0206 	and.w	r2, sl, r6
 8005146:	4051      	eors	r1, r2
 8005148:	ea05 020b 	and.w	r2, r5, fp
 800514c:	4051      	eors	r1, r2
 800514e:	f8c0 114c 	str.w	r1, [r0, #332]	; 0x14c
 8005152:	ea9a 010c 	eors.w	r1, sl, ip
 8005156:	ea0b 020c 	and.w	r2, fp, ip
 800515a:	4051      	eors	r1, r2
 800515c:	ea0b 0207 	and.w	r2, fp, r7
 8005160:	4051      	eors	r1, r2
 8005162:	ea06 020c 	and.w	r2, r6, ip
 8005166:	4051      	eors	r1, r2
 8005168:	f8c0 1104 	str.w	r1, [r0, #260]	; 0x104
 800516c:	ea9b 0108 	eors.w	r1, fp, r8
 8005170:	ea0c 0208 	and.w	r2, ip, r8
 8005174:	4051      	eors	r1, r2
 8005176:	ea0c 0203 	and.w	r2, ip, r3
 800517a:	4051      	eors	r1, r2
 800517c:	ea07 0208 	and.w	r2, r7, r8
 8005180:	4051      	eors	r1, r2
 8005182:	f8c0 1184 	str.w	r1, [r0, #388]	; 0x184
 8005186:	ea9c 0109 	eors.w	r1, ip, r9
 800518a:	ea08 0209 	and.w	r2, r8, r9
 800518e:	4051      	eors	r1, r2
 8005190:	ea08 0204 	and.w	r2, r8, r4
 8005194:	4051      	eors	r1, r2
 8005196:	ea03 0209 	and.w	r2, r3, r9
 800519a:	4051      	eors	r1, r2
 800519c:	f8c0 113c 	str.w	r1, [r0, #316]	; 0x13c
 80051a0:	f8d0 8320 	ldr.w	r8, [r0, #800]	; 0x320
 80051a4:	f8d0 93a4 	ldr.w	r9, [r0, #932]	; 0x3a4
 80051a8:	f8d0 a35c 	ldr.w	sl, [r0, #860]	; 0x35c
 80051ac:	f8d0 b3dc 	ldr.w	fp, [r0, #988]	; 0x3dc
 80051b0:	f8d0 c394 	ldr.w	ip, [r0, #916]	; 0x394
 80051b4:	ea94 0106 	eors.w	r1, r4, r6
 80051b8:	ea05 0206 	and.w	r2, r5, r6
 80051bc:	4051      	eors	r1, r2
 80051be:	ea05 020b 	and.w	r2, r5, fp
 80051c2:	4051      	eors	r1, r2
 80051c4:	ea0a 0206 	and.w	r2, sl, r6
 80051c8:	4051      	eors	r1, r2
 80051ca:	f8c0 1214 	str.w	r1, [r0, #532]	; 0x214
 80051ce:	ea95 0107 	eors.w	r1, r5, r7
 80051d2:	ea06 0207 	and.w	r2, r6, r7
 80051d6:	4051      	eors	r1, r2
 80051d8:	ea06 020c 	and.w	r2, r6, ip
 80051dc:	4051      	eors	r1, r2
 80051de:	ea0b 0207 	and.w	r2, fp, r7
 80051e2:	4051      	eors	r1, r2
 80051e4:	f8c0 11cc 	str.w	r1, [r0, #460]	; 0x1cc
 80051e8:	ea96 0103 	eors.w	r1, r6, r3
 80051ec:	ea07 0203 	and.w	r2, r7, r3
 80051f0:	4051      	eors	r1, r2
 80051f2:	ea07 0208 	and.w	r2, r7, r8
 80051f6:	4051      	eors	r1, r2
 80051f8:	ea0c 0203 	and.w	r2, ip, r3
 80051fc:	4051      	eors	r1, r2
 80051fe:	f8c0 124c 	str.w	r1, [r0, #588]	; 0x24c
 8005202:	ea97 0104 	eors.w	r1, r7, r4
 8005206:	ea03 0204 	and.w	r2, r3, r4
 800520a:	4051      	eors	r1, r2
 800520c:	ea03 0209 	and.w	r2, r3, r9
 8005210:	4051      	eors	r1, r2
 8005212:	ea08 0204 	and.w	r2, r8, r4
 8005216:	4051      	eors	r1, r2
 8005218:	f8c0 1204 	str.w	r1, [r0, #516]	; 0x204
 800521c:	f8d0 1528 	ldr.w	r1, [r0, #1320]	; 0x528
 8005220:	ea93 0605 	eors.w	r6, r3, r5
 8005224:	ea04 0705 	and.w	r7, r4, r5
 8005228:	407e      	eors	r6, r7
 800522a:	ea04 070a 	and.w	r7, r4, sl
 800522e:	407e      	eors	r6, r7
 8005230:	ea09 0705 	and.w	r7, r9, r5
 8005234:	407e      	eors	r6, r7
 8005236:	688c      	ldr	r4, [r1, #8]
 8005238:	4066      	eors	r6, r4
 800523a:	f8c0 6190 	str.w	r6, [r0, #400]	; 0x190
 800523e:	e8bd 5f04 	ldmia.w	sp!, {r2, r8, r9, sl, fp, ip, lr}
 8005242:	f8d0 24e8 	ldr.w	r2, [r0, #1256]	; 0x4e8
 8005246:	e92d 5f04 	stmdb	sp!, {r2, r8, r9, sl, fp, ip, lr}
 800524a:	f8d0 53c0 	ldr.w	r5, [r0, #960]	; 0x3c0
 800524e:	f8d0 6378 	ldr.w	r6, [r0, #888]	; 0x378
 8005252:	f8d0 7330 	ldr.w	r7, [r0, #816]	; 0x330
 8005256:	f8d0 33b0 	ldr.w	r3, [r0, #944]	; 0x3b0
 800525a:	f8d0 436c 	ldr.w	r4, [r0, #876]	; 0x36c
 800525e:	ea95 0508 	eors.w	r5, r5, r8
 8005262:	ea96 060a 	eors.w	r6, r6, sl
 8005266:	4057      	eors	r7, r2
 8005268:	ea93 0309 	eors.w	r3, r3, r9
 800526c:	ea94 040e 	eors.w	r4, r4, lr
 8005270:	ea5f 75f5 	movs.w	r5, r5, ror #31
 8005274:	ea5f 26b6 	movs.w	r6, r6, ror #10
 8005278:	ea5f 07b7 	movs.w	r7, r7, ror #2
 800527c:	ea5f 43b3 	movs.w	r3, r3, ror #18
 8005280:	ea5f 54b4 	movs.w	r4, r4, ror #22
 8005284:	f8c0 53c0 	str.w	r5, [r0, #960]	; 0x3c0
 8005288:	f8c0 6378 	str.w	r6, [r0, #888]	; 0x378
 800528c:	f8c0 7330 	str.w	r7, [r0, #816]	; 0x330
 8005290:	f8c0 33b0 	str.w	r3, [r0, #944]	; 0x3b0
 8005294:	f8c0 436c 	str.w	r4, [r0, #876]	; 0x36c
 8005298:	f8d0 a488 	ldr.w	sl, [r0, #1160]	; 0x488
 800529c:	f8d0 1500 	ldr.w	r1, [r0, #1280]	; 0x500
 80052a0:	f8d0 b440 	ldr.w	fp, [r0, #1088]	; 0x440
 80052a4:	f8d0 2508 	ldr.w	r2, [r0, #1288]	; 0x508
 80052a8:	f8d0 c3f8 	ldr.w	ip, [r0, #1016]	; 0x3f8
 80052ac:	f8d0 e510 	ldr.w	lr, [r0, #1296]	; 0x510
 80052b0:	ea9a 0a01 	eors.w	sl, sl, r1
 80052b4:	ea9b 0b02 	eors.w	fp, fp, r2
 80052b8:	ea9c 0c0e 	eors.w	ip, ip, lr
 80052bc:	f8d0 8478 	ldr.w	r8, [r0, #1144]	; 0x478
 80052c0:	f8d0 151c 	ldr.w	r1, [r0, #1308]	; 0x51c
 80052c4:	f8d0 9434 	ldr.w	r9, [r0, #1076]	; 0x434
 80052c8:	f8d0 e524 	ldr.w	lr, [r0, #1316]	; 0x524
 80052cc:	ea98 0801 	eors.w	r8, r8, r1
 80052d0:	ea99 090e 	eors.w	r9, r9, lr
 80052d4:	ea5f 7afa 	movs.w	sl, sl, ror #31
 80052d8:	ea5f 2bbb 	movs.w	fp, fp, ror #10
 80052dc:	ea5f 0cbc 	movs.w	ip, ip, ror #2
 80052e0:	ea5f 48b8 	movs.w	r8, r8, ror #18
 80052e4:	ea5f 59b9 	movs.w	r9, r9, ror #22
 80052e8:	ea93 0105 	eors.w	r1, r3, r5
 80052ec:	ea04 0205 	and.w	r2, r4, r5
 80052f0:	4051      	eors	r1, r2
 80052f2:	ea04 020a 	and.w	r2, r4, sl
 80052f6:	4051      	eors	r1, r2
 80052f8:	ea09 0205 	and.w	r2, r9, r5
 80052fc:	4051      	eors	r1, r2
 80052fe:	f8c0 10a0 	str.w	r1, [r0, #160]	; 0xa0
 8005302:	ea94 0106 	eors.w	r1, r4, r6
 8005306:	ea05 0206 	and.w	r2, r5, r6
 800530a:	4051      	eors	r1, r2
 800530c:	ea05 020b 	and.w	r2, r5, fp
 8005310:	4051      	eors	r1, r2
 8005312:	ea0a 0206 	and.w	r2, sl, r6
 8005316:	4051      	eors	r1, r2
 8005318:	6581      	str	r1, [r0, #88]	; 0x58
 800531a:	ea95 0107 	eors.w	r1, r5, r7
 800531e:	ea06 0207 	and.w	r2, r6, r7
 8005322:	4051      	eors	r1, r2
 8005324:	ea06 020c 	and.w	r2, r6, ip
 8005328:	4051      	eors	r1, r2
 800532a:	ea0b 0207 	and.w	r2, fp, r7
 800532e:	4051      	eors	r1, r2
 8005330:	6101      	str	r1, [r0, #16]
 8005332:	ea96 0103 	eors.w	r1, r6, r3
 8005336:	ea07 0203 	and.w	r2, r7, r3
 800533a:	4051      	eors	r1, r2
 800533c:	ea07 0208 	and.w	r2, r7, r8
 8005340:	4051      	eors	r1, r2
 8005342:	ea0c 0203 	and.w	r2, ip, r3
 8005346:	4051      	eors	r1, r2
 8005348:	f8c0 1090 	str.w	r1, [r0, #144]	; 0x90
 800534c:	ea97 0104 	eors.w	r1, r7, r4
 8005350:	ea03 0204 	and.w	r2, r3, r4
 8005354:	4051      	eors	r1, r2
 8005356:	ea03 0209 	and.w	r2, r3, r9
 800535a:	4051      	eors	r1, r2
 800535c:	ea08 0204 	and.w	r2, r8, r4
 8005360:	4051      	eors	r1, r2
 8005362:	64c1      	str	r1, [r0, #76]	; 0x4c
 8005364:	f8d0 52f8 	ldr.w	r5, [r0, #760]	; 0x2f8
 8005368:	f8d0 14b0 	ldr.w	r1, [r0, #1200]	; 0x4b0
 800536c:	f8d0 62b0 	ldr.w	r6, [r0, #688]	; 0x2b0
 8005370:	f8d0 24b8 	ldr.w	r2, [r0, #1208]	; 0x4b8
 8005374:	f8d0 7268 	ldr.w	r7, [r0, #616]	; 0x268
 8005378:	f8d0 e4c0 	ldr.w	lr, [r0, #1216]	; 0x4c0
 800537c:	404d      	eors	r5, r1
 800537e:	4056      	eors	r6, r2
 8005380:	ea97 070e 	eors.w	r7, r7, lr
 8005384:	f8d0 32e8 	ldr.w	r3, [r0, #744]	; 0x2e8
 8005388:	f8d0 14cc 	ldr.w	r1, [r0, #1228]	; 0x4cc
 800538c:	f8d0 42a4 	ldr.w	r4, [r0, #676]	; 0x2a4
 8005390:	f8d0 e4d4 	ldr.w	lr, [r0, #1236]	; 0x4d4
 8005394:	404b      	eors	r3, r1
 8005396:	ea94 040e 	eors.w	r4, r4, lr
 800539a:	ea5f 75f5 	movs.w	r5, r5, ror #31
 800539e:	ea5f 26b6 	movs.w	r6, r6, ror #10
 80053a2:	ea5f 07b7 	movs.w	r7, r7, ror #2
 80053a6:	ea5f 43b3 	movs.w	r3, r3, ror #18
 80053aa:	ea5f 54b4 	movs.w	r4, r4, ror #22
 80053ae:	ea98 010a 	eors.w	r1, r8, sl
 80053b2:	ea09 020a 	and.w	r2, r9, sl
 80053b6:	4051      	eors	r1, r2
 80053b8:	ea09 0205 	and.w	r2, r9, r5
 80053bc:	4051      	eors	r1, r2
 80053be:	ea04 020a 	and.w	r2, r4, sl
 80053c2:	4051      	eors	r1, r2
 80053c4:	f8c0 1168 	str.w	r1, [r0, #360]	; 0x168
 80053c8:	ea99 010b 	eors.w	r1, r9, fp
 80053cc:	ea0a 020b 	and.w	r2, sl, fp
 80053d0:	4051      	eors	r1, r2
 80053d2:	ea0a 0206 	and.w	r2, sl, r6
 80053d6:	4051      	eors	r1, r2
 80053d8:	ea05 020b 	and.w	r2, r5, fp
 80053dc:	4051      	eors	r1, r2
 80053de:	f8c0 1120 	str.w	r1, [r0, #288]	; 0x120
 80053e2:	ea9a 010c 	eors.w	r1, sl, ip
 80053e6:	ea0b 020c 	and.w	r2, fp, ip
 80053ea:	4051      	eors	r1, r2
 80053ec:	ea0b 0207 	and.w	r2, fp, r7
 80053f0:	4051      	eors	r1, r2
 80053f2:	ea06 020c 	and.w	r2, r6, ip
 80053f6:	4051      	eors	r1, r2
 80053f8:	f8c0 10d8 	str.w	r1, [r0, #216]	; 0xd8
 80053fc:	ea9b 0108 	eors.w	r1, fp, r8
 8005400:	ea0c 0208 	and.w	r2, ip, r8
 8005404:	4051      	eors	r1, r2
 8005406:	ea0c 0203 	and.w	r2, ip, r3
 800540a:	4051      	eors	r1, r2
 800540c:	ea07 0208 	and.w	r2, r7, r8
 8005410:	4051      	eors	r1, r2
 8005412:	f8c0 1158 	str.w	r1, [r0, #344]	; 0x158
 8005416:	ea9c 0109 	eors.w	r1, ip, r9
 800541a:	ea08 0209 	and.w	r2, r8, r9
 800541e:	4051      	eors	r1, r2
 8005420:	ea08 0204 	and.w	r2, r8, r4
 8005424:	4051      	eors	r1, r2
 8005426:	ea03 0209 	and.w	r2, r3, r9
 800542a:	4051      	eors	r1, r2
 800542c:	f8c0 1114 	str.w	r1, [r0, #276]	; 0x114
 8005430:	f8d0 a3c0 	ldr.w	sl, [r0, #960]	; 0x3c0
 8005434:	f8d0 b378 	ldr.w	fp, [r0, #888]	; 0x378
 8005438:	f8d0 c330 	ldr.w	ip, [r0, #816]	; 0x330
 800543c:	f8d0 83b0 	ldr.w	r8, [r0, #944]	; 0x3b0
 8005440:	f8d0 936c 	ldr.w	r9, [r0, #876]	; 0x36c
 8005444:	ea93 0105 	eors.w	r1, r3, r5
 8005448:	ea04 0205 	and.w	r2, r4, r5
 800544c:	4051      	eors	r1, r2
 800544e:	ea04 020a 	and.w	r2, r4, sl
 8005452:	4051      	eors	r1, r2
 8005454:	ea09 0205 	and.w	r2, r9, r5
 8005458:	4051      	eors	r1, r2
 800545a:	f8c0 1230 	str.w	r1, [r0, #560]	; 0x230
 800545e:	ea94 0106 	eors.w	r1, r4, r6
 8005462:	ea05 0206 	and.w	r2, r5, r6
 8005466:	4051      	eors	r1, r2
 8005468:	ea05 020b 	and.w	r2, r5, fp
 800546c:	4051      	eors	r1, r2
 800546e:	ea0a 0206 	and.w	r2, sl, r6
 8005472:	4051      	eors	r1, r2
 8005474:	f8c0 11e8 	str.w	r1, [r0, #488]	; 0x1e8
 8005478:	ea95 0107 	eors.w	r1, r5, r7
 800547c:	ea06 0207 	and.w	r2, r6, r7
 8005480:	4051      	eors	r1, r2
 8005482:	ea06 020c 	and.w	r2, r6, ip
 8005486:	4051      	eors	r1, r2
 8005488:	ea0b 0207 	and.w	r2, fp, r7
 800548c:	4051      	eors	r1, r2
 800548e:	f8c0 11a0 	str.w	r1, [r0, #416]	; 0x1a0
 8005492:	ea96 0103 	eors.w	r1, r6, r3
 8005496:	ea07 0203 	and.w	r2, r7, r3
 800549a:	4051      	eors	r1, r2
 800549c:	ea07 0208 	and.w	r2, r7, r8
 80054a0:	4051      	eors	r1, r2
 80054a2:	ea0c 0203 	and.w	r2, ip, r3
 80054a6:	4051      	eors	r1, r2
 80054a8:	f8c0 1220 	str.w	r1, [r0, #544]	; 0x220
 80054ac:	ea97 0104 	eors.w	r1, r7, r4
 80054b0:	ea03 0204 	and.w	r2, r3, r4
 80054b4:	4051      	eors	r1, r2
 80054b6:	ea03 0209 	and.w	r2, r3, r9
 80054ba:	4051      	eors	r1, r2
 80054bc:	ea08 0204 	and.w	r2, r8, r4
 80054c0:	4051      	eors	r1, r2
 80054c2:	f8c0 11dc 	str.w	r1, [r0, #476]	; 0x1dc
 80054c6:	e8bd 5f04 	ldmia.w	sp!, {r2, r8, r9, sl, fp, ip, lr}
 80054ca:	e92d 5f04 	stmdb	sp!, {r2, r8, r9, sl, fp, ip, lr}
 80054ce:	f8d0 739c 	ldr.w	r7, [r0, #924]	; 0x39c
 80054d2:	f8d0 3354 	ldr.w	r3, [r0, #852]	; 0x354
 80054d6:	f8d0 43d4 	ldr.w	r4, [r0, #980]	; 0x3d4
 80054da:	f8d0 5388 	ldr.w	r5, [r0, #904]	; 0x388
 80054de:	f8d0 6344 	ldr.w	r6, [r0, #836]	; 0x344
 80054e2:	ea97 0708 	eors.w	r7, r7, r8
 80054e6:	ea93 030b 	eors.w	r3, r3, fp
 80054ea:	4054      	eors	r4, r2
 80054ec:	ea95 0509 	eors.w	r5, r5, r9
 80054f0:	ea96 060c 	eors.w	r6, r6, ip
 80054f4:	ea5f 57f7 	movs.w	r7, r7, ror #23
 80054f8:	ea5f 73f3 	movs.w	r3, r3, ror #31
 80054fc:	ea5f 7474 	movs.w	r4, r4, ror #29
 8005500:	ea5f 45f5 	movs.w	r5, r5, ror #19
 8005504:	ea5f 7636 	movs.w	r6, r6, ror #28
 8005508:	f8c0 739c 	str.w	r7, [r0, #924]	; 0x39c
 800550c:	f8c0 3354 	str.w	r3, [r0, #852]	; 0x354
 8005510:	f8c0 43d4 	str.w	r4, [r0, #980]	; 0x3d4
 8005514:	f8c0 5388 	str.w	r5, [r0, #904]	; 0x388
 8005518:	f8c0 6344 	str.w	r6, [r0, #836]	; 0x344
 800551c:	f8d0 c464 	ldr.w	ip, [r0, #1124]	; 0x464
 8005520:	f8d0 1500 	ldr.w	r1, [r0, #1280]	; 0x500
 8005524:	f8d0 841c 	ldr.w	r8, [r0, #1052]	; 0x41c
 8005528:	f8d0 250c 	ldr.w	r2, [r0, #1292]	; 0x50c
 800552c:	f8d0 949c 	ldr.w	r9, [r0, #1180]	; 0x49c
 8005530:	f8d0 e510 	ldr.w	lr, [r0, #1296]	; 0x510
 8005534:	ea9c 0c01 	eors.w	ip, ip, r1
 8005538:	ea98 0802 	eors.w	r8, r8, r2
 800553c:	ea99 090e 	eors.w	r9, r9, lr
 8005540:	f8d0 a450 	ldr.w	sl, [r0, #1104]	; 0x450
 8005544:	f8d0 151c 	ldr.w	r1, [r0, #1308]	; 0x51c
 8005548:	f8d0 b40c 	ldr.w	fp, [r0, #1036]	; 0x40c
 800554c:	f8d0 e520 	ldr.w	lr, [r0, #1312]	; 0x520
 8005550:	ea9a 0a01 	eors.w	sl, sl, r1
 8005554:	ea9b 0b0e 	eors.w	fp, fp, lr
 8005558:	ea5f 5cfc 	movs.w	ip, ip, ror #23
 800555c:	ea5f 78f8 	movs.w	r8, r8, ror #31
 8005560:	ea5f 7979 	movs.w	r9, r9, ror #29
 8005564:	ea5f 4afa 	movs.w	sl, sl, ror #19
 8005568:	ea5f 7b3b 	movs.w	fp, fp, ror #28
 800556c:	ea93 0105 	eors.w	r1, r3, r5
 8005570:	ea04 0205 	and.w	r2, r4, r5
 8005574:	4051      	eors	r1, r2
 8005576:	ea04 020a 	and.w	r2, r4, sl
 800557a:	4051      	eors	r1, r2
 800557c:	ea09 0205 	and.w	r2, r9, r5
 8005580:	4051      	eors	r1, r2
 8005582:	67c1      	str	r1, [r0, #124]	; 0x7c
 8005584:	ea94 0106 	eors.w	r1, r4, r6
 8005588:	ea05 0206 	and.w	r2, r5, r6
 800558c:	4051      	eors	r1, r2
 800558e:	ea05 020b 	and.w	r2, r5, fp
 8005592:	4051      	eors	r1, r2
 8005594:	ea0a 0206 	and.w	r2, sl, r6
 8005598:	4051      	eors	r1, r2
 800559a:	6341      	str	r1, [r0, #52]	; 0x34
 800559c:	ea95 0107 	eors.w	r1, r5, r7
 80055a0:	ea06 0207 	and.w	r2, r6, r7
 80055a4:	4051      	eors	r1, r2
 80055a6:	ea06 020c 	and.w	r2, r6, ip
 80055aa:	4051      	eors	r1, r2
 80055ac:	ea0b 0207 	and.w	r2, fp, r7
 80055b0:	4051      	eors	r1, r2
 80055b2:	f8c0 10b4 	str.w	r1, [r0, #180]	; 0xb4
 80055b6:	ea96 0103 	eors.w	r1, r6, r3
 80055ba:	ea07 0203 	and.w	r2, r7, r3
 80055be:	4051      	eors	r1, r2
 80055c0:	ea07 0208 	and.w	r2, r7, r8
 80055c4:	4051      	eors	r1, r2
 80055c6:	ea0c 0203 	and.w	r2, ip, r3
 80055ca:	4051      	eors	r1, r2
 80055cc:	6681      	str	r1, [r0, #104]	; 0x68
 80055ce:	ea97 0104 	eors.w	r1, r7, r4
 80055d2:	ea03 0204 	and.w	r2, r3, r4
 80055d6:	4051      	eors	r1, r2
 80055d8:	ea03 0209 	and.w	r2, r3, r9
 80055dc:	4051      	eors	r1, r2
 80055de:	ea08 0204 	and.w	r2, r8, r4
 80055e2:	4051      	eors	r1, r2
 80055e4:	6241      	str	r1, [r0, #36]	; 0x24
 80055e6:	f8d0 72d4 	ldr.w	r7, [r0, #724]	; 0x2d4
 80055ea:	f8d0 14b0 	ldr.w	r1, [r0, #1200]	; 0x4b0
 80055ee:	f8d0 328c 	ldr.w	r3, [r0, #652]	; 0x28c
 80055f2:	f8d0 24bc 	ldr.w	r2, [r0, #1212]	; 0x4bc
 80055f6:	f8d0 430c 	ldr.w	r4, [r0, #780]	; 0x30c
 80055fa:	f8d0 e4c0 	ldr.w	lr, [r0, #1216]	; 0x4c0
 80055fe:	404f      	eors	r7, r1
 8005600:	4053      	eors	r3, r2
 8005602:	ea94 040e 	eors.w	r4, r4, lr
 8005606:	f8d0 52c0 	ldr.w	r5, [r0, #704]	; 0x2c0
 800560a:	f8d0 14cc 	ldr.w	r1, [r0, #1228]	; 0x4cc
 800560e:	f8d0 627c 	ldr.w	r6, [r0, #636]	; 0x27c
 8005612:	f8d0 e4d0 	ldr.w	lr, [r0, #1232]	; 0x4d0
 8005616:	404d      	eors	r5, r1
 8005618:	ea96 060e 	eors.w	r6, r6, lr
 800561c:	ea5f 57f7 	movs.w	r7, r7, ror #23
 8005620:	ea5f 73f3 	movs.w	r3, r3, ror #31
 8005624:	ea5f 7474 	movs.w	r4, r4, ror #29
 8005628:	ea5f 45f5 	movs.w	r5, r5, ror #19
 800562c:	ea5f 7636 	movs.w	r6, r6, ror #28
 8005630:	ea98 010a 	eors.w	r1, r8, sl
 8005634:	ea09 020a 	and.w	r2, r9, sl
 8005638:	4051      	eors	r1, r2
 800563a:	ea09 0205 	and.w	r2, r9, r5
 800563e:	4051      	eors	r1, r2
 8005640:	ea04 020a 	and.w	r2, r4, sl
 8005644:	4051      	eors	r1, r2
 8005646:	f8c0 1144 	str.w	r1, [r0, #324]	; 0x144
 800564a:	ea99 010b 	eors.w	r1, r9, fp
 800564e:	ea0a 020b 	and.w	r2, sl, fp
 8005652:	4051      	eors	r1, r2
 8005654:	ea0a 0206 	and.w	r2, sl, r6
 8005658:	4051      	eors	r1, r2
 800565a:	ea05 020b 	and.w	r2, r5, fp
 800565e:	4051      	eors	r1, r2
 8005660:	f8c0 10fc 	str.w	r1, [r0, #252]	; 0xfc
 8005664:	ea9a 010c 	eors.w	r1, sl, ip
 8005668:	ea0b 020c 	and.w	r2, fp, ip
 800566c:	4051      	eors	r1, r2
 800566e:	ea0b 0207 	and.w	r2, fp, r7
 8005672:	4051      	eors	r1, r2
 8005674:	ea06 020c 	and.w	r2, r6, ip
 8005678:	4051      	eors	r1, r2
 800567a:	f8c0 117c 	str.w	r1, [r0, #380]	; 0x17c
 800567e:	ea9b 0108 	eors.w	r1, fp, r8
 8005682:	ea0c 0208 	and.w	r2, ip, r8
 8005686:	4051      	eors	r1, r2
 8005688:	ea0c 0203 	and.w	r2, ip, r3
 800568c:	4051      	eors	r1, r2
 800568e:	ea07 0208 	and.w	r2, r7, r8
 8005692:	4051      	eors	r1, r2
 8005694:	f8c0 1130 	str.w	r1, [r0, #304]	; 0x130
 8005698:	ea9c 0109 	eors.w	r1, ip, r9
 800569c:	ea08 0209 	and.w	r2, r8, r9
 80056a0:	4051      	eors	r1, r2
 80056a2:	ea08 0204 	and.w	r2, r8, r4
 80056a6:	4051      	eors	r1, r2
 80056a8:	ea03 0209 	and.w	r2, r3, r9
 80056ac:	4051      	eors	r1, r2
 80056ae:	f8c0 10ec 	str.w	r1, [r0, #236]	; 0xec
 80056b2:	f8d0 c39c 	ldr.w	ip, [r0, #924]	; 0x39c
 80056b6:	f8d0 8354 	ldr.w	r8, [r0, #852]	; 0x354
 80056ba:	f8d0 93d4 	ldr.w	r9, [r0, #980]	; 0x3d4
 80056be:	f8d0 a388 	ldr.w	sl, [r0, #904]	; 0x388
 80056c2:	f8d0 b344 	ldr.w	fp, [r0, #836]	; 0x344
 80056c6:	ea93 0105 	eors.w	r1, r3, r5
 80056ca:	ea04 0205 	and.w	r2, r4, r5
 80056ce:	4051      	eors	r1, r2
 80056d0:	ea04 020a 	and.w	r2, r4, sl
 80056d4:	4051      	eors	r1, r2
 80056d6:	ea09 0205 	and.w	r2, r9, r5
 80056da:	4051      	eors	r1, r2
 80056dc:	f8c0 120c 	str.w	r1, [r0, #524]	; 0x20c
 80056e0:	ea94 0106 	eors.w	r1, r4, r6
 80056e4:	ea05 0206 	and.w	r2, r5, r6
 80056e8:	4051      	eors	r1, r2
 80056ea:	ea05 020b 	and.w	r2, r5, fp
 80056ee:	4051      	eors	r1, r2
 80056f0:	ea0a 0206 	and.w	r2, sl, r6
 80056f4:	4051      	eors	r1, r2
 80056f6:	f8c0 11c4 	str.w	r1, [r0, #452]	; 0x1c4
 80056fa:	ea95 0107 	eors.w	r1, r5, r7
 80056fe:	ea06 0207 	and.w	r2, r6, r7
 8005702:	4051      	eors	r1, r2
 8005704:	ea06 020c 	and.w	r2, r6, ip
 8005708:	4051      	eors	r1, r2
 800570a:	ea0b 0207 	and.w	r2, fp, r7
 800570e:	4051      	eors	r1, r2
 8005710:	f8c0 1244 	str.w	r1, [r0, #580]	; 0x244
 8005714:	ea96 0103 	eors.w	r1, r6, r3
 8005718:	ea07 0203 	and.w	r2, r7, r3
 800571c:	4051      	eors	r1, r2
 800571e:	ea07 0208 	and.w	r2, r7, r8
 8005722:	4051      	eors	r1, r2
 8005724:	ea0c 0203 	and.w	r2, ip, r3
 8005728:	4051      	eors	r1, r2
 800572a:	f8c0 11f8 	str.w	r1, [r0, #504]	; 0x1f8
 800572e:	ea97 0104 	eors.w	r1, r7, r4
 8005732:	ea03 0204 	and.w	r2, r3, r4
 8005736:	4051      	eors	r1, r2
 8005738:	ea03 0209 	and.w	r2, r3, r9
 800573c:	4051      	eors	r1, r2
 800573e:	ea08 0204 	and.w	r2, r8, r4
 8005742:	4051      	eors	r1, r2
 8005744:	f8c0 11b4 	str.w	r1, [r0, #436]	; 0x1b4
 8005748:	e8bd 5f04 	ldmia.w	sp!, {r2, r8, r9, sl, fp, ip, lr}
 800574c:	f8d0 84dc 	ldr.w	r8, [r0, #1244]	; 0x4dc
 8005750:	e92d 5f04 	stmdb	sp!, {r2, r8, r9, sl, fp, ip, lr}
 8005754:	f8d0 4370 	ldr.w	r4, [r0, #880]	; 0x370
 8005758:	f8d0 5328 	ldr.w	r5, [r0, #808]	; 0x328
 800575c:	f8d0 63ac 	ldr.w	r6, [r0, #940]	; 0x3ac
 8005760:	f8d0 7360 	ldr.w	r7, [r0, #864]	; 0x360
 8005764:	f8d0 33e0 	ldr.w	r3, [r0, #992]	; 0x3e0
 8005768:	ea94 0408 	eors.w	r4, r4, r8
 800576c:	ea95 050b 	eors.w	r5, r5, fp
 8005770:	4056      	eors	r6, r2
 8005772:	ea97 0709 	eors.w	r7, r7, r9
 8005776:	ea93 030c 	eors.w	r3, r3, ip
 800577a:	ea5f 34b4 	movs.w	r4, r4, ror #14
 800577e:	ea5f 65f5 	movs.w	r5, r5, ror #27
 8005782:	ea5f 6676 	movs.w	r6, r6, ror #25
 8005786:	ea5f 1737 	movs.w	r7, r7, ror #4
 800578a:	ea5f 43f3 	movs.w	r3, r3, ror #19
 800578e:	f8c0 4370 	str.w	r4, [r0, #880]	; 0x370
 8005792:	f8c0 5328 	str.w	r5, [r0, #808]	; 0x328
 8005796:	f8c0 63ac 	str.w	r6, [r0, #940]	; 0x3ac
 800579a:	f8c0 7360 	str.w	r7, [r0, #864]	; 0x360
 800579e:	f8c0 33e0 	str.w	r3, [r0, #992]	; 0x3e0
 80057a2:	f8d0 9438 	ldr.w	r9, [r0, #1080]	; 0x438
 80057a6:	f8d0 1504 	ldr.w	r1, [r0, #1284]	; 0x504
 80057aa:	f8d0 a3f0 	ldr.w	sl, [r0, #1008]	; 0x3f0
 80057ae:	f8d0 250c 	ldr.w	r2, [r0, #1292]	; 0x50c
 80057b2:	f8d0 b474 	ldr.w	fp, [r0, #1140]	; 0x474
 80057b6:	f8d0 e510 	ldr.w	lr, [r0, #1296]	; 0x510
 80057ba:	ea99 0901 	eors.w	r9, r9, r1
 80057be:	ea9a 0a02 	eors.w	sl, sl, r2
 80057c2:	ea9b 0b0e 	eors.w	fp, fp, lr
 80057c6:	f8d0 c428 	ldr.w	ip, [r0, #1064]	; 0x428
 80057ca:	f8d0 151c 	ldr.w	r1, [r0, #1308]	; 0x51c
 80057ce:	f8d0 84a8 	ldr.w	r8, [r0, #1192]	; 0x4a8
 80057d2:	f8d0 e520 	ldr.w	lr, [r0, #1312]	; 0x520
 80057d6:	ea9c 0c01 	eors.w	ip, ip, r1
 80057da:	ea98 080e 	eors.w	r8, r8, lr
 80057de:	ea5f 39b9 	movs.w	r9, r9, ror #14
 80057e2:	ea5f 6afa 	movs.w	sl, sl, ror #27
 80057e6:	ea5f 6b7b 	movs.w	fp, fp, ror #25
 80057ea:	ea5f 1c3c 	movs.w	ip, ip, ror #4
 80057ee:	ea5f 48f8 	movs.w	r8, r8, ror #19
 80057f2:	ea93 0105 	eors.w	r1, r3, r5
 80057f6:	ea04 0205 	and.w	r2, r4, r5
 80057fa:	4051      	eors	r1, r2
 80057fc:	ea04 020a 	and.w	r2, r4, sl
 8005800:	4051      	eors	r1, r2
 8005802:	ea09 0205 	and.w	r2, r9, r5
 8005806:	4051      	eors	r1, r2
 8005808:	6501      	str	r1, [r0, #80]	; 0x50
 800580a:	ea94 0106 	eors.w	r1, r4, r6
 800580e:	ea05 0206 	and.w	r2, r5, r6
 8005812:	4051      	eors	r1, r2
 8005814:	ea05 020b 	and.w	r2, r5, fp
 8005818:	4051      	eors	r1, r2
 800581a:	ea0a 0206 	and.w	r2, sl, r6
 800581e:	4051      	eors	r1, r2
 8005820:	6081      	str	r1, [r0, #8]
 8005822:	ea95 0107 	eors.w	r1, r5, r7
 8005826:	ea06 0207 	and.w	r2, r6, r7
 800582a:	4051      	eors	r1, r2
 800582c:	ea06 020c 	and.w	r2, r6, ip
 8005830:	4051      	eors	r1, r2
 8005832:	ea0b 0207 	and.w	r2, fp, r7
 8005836:	4051      	eors	r1, r2
 8005838:	f8c0 108c 	str.w	r1, [r0, #140]	; 0x8c
 800583c:	ea96 0103 	eors.w	r1, r6, r3
 8005840:	ea07 0203 	and.w	r2, r7, r3
 8005844:	4051      	eors	r1, r2
 8005846:	ea07 0208 	and.w	r2, r7, r8
 800584a:	4051      	eors	r1, r2
 800584c:	ea0c 0203 	and.w	r2, ip, r3
 8005850:	4051      	eors	r1, r2
 8005852:	6401      	str	r1, [r0, #64]	; 0x40
 8005854:	ea97 0104 	eors.w	r1, r7, r4
 8005858:	ea03 0204 	and.w	r2, r3, r4
 800585c:	4051      	eors	r1, r2
 800585e:	ea03 0209 	and.w	r2, r3, r9
 8005862:	4051      	eors	r1, r2
 8005864:	ea08 0204 	and.w	r2, r8, r4
 8005868:	4051      	eors	r1, r2
 800586a:	f8c0 10c0 	str.w	r1, [r0, #192]	; 0xc0
 800586e:	f8d0 42a8 	ldr.w	r4, [r0, #680]	; 0x2a8
 8005872:	f8d0 14b4 	ldr.w	r1, [r0, #1204]	; 0x4b4
 8005876:	f8d0 5260 	ldr.w	r5, [r0, #608]	; 0x260
 800587a:	f8d0 24bc 	ldr.w	r2, [r0, #1212]	; 0x4bc
 800587e:	f8d0 62e4 	ldr.w	r6, [r0, #740]	; 0x2e4
 8005882:	f8d0 e4c0 	ldr.w	lr, [r0, #1216]	; 0x4c0
 8005886:	404c      	eors	r4, r1
 8005888:	4055      	eors	r5, r2
 800588a:	ea96 060e 	eors.w	r6, r6, lr
 800588e:	f8d0 7298 	ldr.w	r7, [r0, #664]	; 0x298
 8005892:	f8d0 14cc 	ldr.w	r1, [r0, #1228]	; 0x4cc
 8005896:	f8d0 3318 	ldr.w	r3, [r0, #792]	; 0x318
 800589a:	f8d0 e4d0 	ldr.w	lr, [r0, #1232]	; 0x4d0
 800589e:	404f      	eors	r7, r1
 80058a0:	ea93 030e 	eors.w	r3, r3, lr
 80058a4:	ea5f 34b4 	movs.w	r4, r4, ror #14
 80058a8:	ea5f 65f5 	movs.w	r5, r5, ror #27
 80058ac:	ea5f 6676 	movs.w	r6, r6, ror #25
 80058b0:	ea5f 1737 	movs.w	r7, r7, ror #4
 80058b4:	ea5f 43f3 	movs.w	r3, r3, ror #19
 80058b8:	ea98 010a 	eors.w	r1, r8, sl
 80058bc:	ea09 020a 	and.w	r2, r9, sl
 80058c0:	4051      	eors	r1, r2
 80058c2:	ea09 0205 	and.w	r2, r9, r5
 80058c6:	4051      	eors	r1, r2
 80058c8:	ea04 020a 	and.w	r2, r4, sl
 80058cc:	4051      	eors	r1, r2
 80058ce:	f8c0 1118 	str.w	r1, [r0, #280]	; 0x118
 80058d2:	ea99 010b 	eors.w	r1, r9, fp
 80058d6:	ea0a 020b 	and.w	r2, sl, fp
 80058da:	4051      	eors	r1, r2
 80058dc:	ea0a 0206 	and.w	r2, sl, r6
 80058e0:	4051      	eors	r1, r2
 80058e2:	ea05 020b 	and.w	r2, r5, fp
 80058e6:	4051      	eors	r1, r2
 80058e8:	f8c0 10d0 	str.w	r1, [r0, #208]	; 0xd0
 80058ec:	ea9a 010c 	eors.w	r1, sl, ip
 80058f0:	ea0b 020c 	and.w	r2, fp, ip
 80058f4:	4051      	eors	r1, r2
 80058f6:	ea0b 0207 	and.w	r2, fp, r7
 80058fa:	4051      	eors	r1, r2
 80058fc:	ea06 020c 	and.w	r2, r6, ip
 8005900:	4051      	eors	r1, r2
 8005902:	f8c0 1154 	str.w	r1, [r0, #340]	; 0x154
 8005906:	ea9b 0108 	eors.w	r1, fp, r8
 800590a:	ea0c 0208 	and.w	r2, ip, r8
 800590e:	4051      	eors	r1, r2
 8005910:	ea0c 0203 	and.w	r2, ip, r3
 8005914:	4051      	eors	r1, r2
 8005916:	ea07 0208 	and.w	r2, r7, r8
 800591a:	4051      	eors	r1, r2
 800591c:	f8c0 1108 	str.w	r1, [r0, #264]	; 0x108
 8005920:	ea9c 0109 	eors.w	r1, ip, r9
 8005924:	ea08 0209 	and.w	r2, r8, r9
 8005928:	4051      	eors	r1, r2
 800592a:	ea08 0204 	and.w	r2, r8, r4
 800592e:	4051      	eors	r1, r2
 8005930:	ea03 0209 	and.w	r2, r3, r9
 8005934:	4051      	eors	r1, r2
 8005936:	f8c0 1188 	str.w	r1, [r0, #392]	; 0x188
 800593a:	f8d0 9370 	ldr.w	r9, [r0, #880]	; 0x370
 800593e:	f8d0 a328 	ldr.w	sl, [r0, #808]	; 0x328
 8005942:	f8d0 b3ac 	ldr.w	fp, [r0, #940]	; 0x3ac
 8005946:	f8d0 c360 	ldr.w	ip, [r0, #864]	; 0x360
 800594a:	f8d0 83e0 	ldr.w	r8, [r0, #992]	; 0x3e0
 800594e:	ea93 0105 	eors.w	r1, r3, r5
 8005952:	ea04 0205 	and.w	r2, r4, r5
 8005956:	4051      	eors	r1, r2
 8005958:	ea04 020a 	and.w	r2, r4, sl
 800595c:	4051      	eors	r1, r2
 800595e:	ea09 0205 	and.w	r2, r9, r5
 8005962:	4051      	eors	r1, r2
 8005964:	f8c0 11e0 	str.w	r1, [r0, #480]	; 0x1e0
 8005968:	ea94 0106 	eors.w	r1, r4, r6
 800596c:	ea05 0206 	and.w	r2, r5, r6
 8005970:	4051      	eors	r1, r2
 8005972:	ea05 020b 	and.w	r2, r5, fp
 8005976:	4051      	eors	r1, r2
 8005978:	ea0a 0206 	and.w	r2, sl, r6
 800597c:	4051      	eors	r1, r2
 800597e:	f8c0 1198 	str.w	r1, [r0, #408]	; 0x198
 8005982:	ea95 0107 	eors.w	r1, r5, r7
 8005986:	ea06 0207 	and.w	r2, r6, r7
 800598a:	4051      	eors	r1, r2
 800598c:	ea06 020c 	and.w	r2, r6, ip
 8005990:	4051      	eors	r1, r2
 8005992:	ea0b 0207 	and.w	r2, fp, r7
 8005996:	4051      	eors	r1, r2
 8005998:	f8c0 121c 	str.w	r1, [r0, #540]	; 0x21c
 800599c:	ea96 0103 	eors.w	r1, r6, r3
 80059a0:	ea07 0203 	and.w	r2, r7, r3
 80059a4:	4051      	eors	r1, r2
 80059a6:	ea07 0208 	and.w	r2, r7, r8
 80059aa:	4051      	eors	r1, r2
 80059ac:	ea0c 0203 	and.w	r2, ip, r3
 80059b0:	4051      	eors	r1, r2
 80059b2:	f8c0 11d0 	str.w	r1, [r0, #464]	; 0x1d0
 80059b6:	ea97 0104 	eors.w	r1, r7, r4
 80059ba:	ea03 0204 	and.w	r2, r3, r4
 80059be:	4051      	eors	r1, r2
 80059c0:	ea03 0209 	and.w	r2, r3, r9
 80059c4:	4051      	eors	r1, r2
 80059c6:	ea08 0204 	and.w	r2, r8, r4
 80059ca:	4051      	eors	r1, r2
 80059cc:	f8c0 1250 	str.w	r1, [r0, #592]	; 0x250
 80059d0:	e8bd 5f04 	ldmia.w	sp!, {r2, r8, r9, sl, fp, ip, lr}
 80059d4:	e92d 5f04 	stmdb	sp!, {r2, r8, r9, sl, fp, ip, lr}
 80059d8:	f8d0 634c 	ldr.w	r6, [r0, #844]	; 0x34c
 80059dc:	f8d0 73c8 	ldr.w	r7, [r0, #968]	; 0x3c8
 80059e0:	f8d0 3384 	ldr.w	r3, [r0, #900]	; 0x384
 80059e4:	f8d0 433c 	ldr.w	r4, [r0, #828]	; 0x33c
 80059e8:	f8d0 53bc 	ldr.w	r5, [r0, #956]	; 0x3bc
 80059ec:	ea96 0608 	eors.w	r6, r6, r8
 80059f0:	ea97 070a 	eors.w	r7, r7, sl
 80059f4:	4053      	eors	r3, r2
 80059f6:	ea94 0409 	eors.w	r4, r4, r9
 80059fa:	ea95 050e 	eors.w	r5, r5, lr
 80059fe:	ea5f 26f6 	movs.w	r6, r6, ror #11
 8005a02:	ea5f 77f7 	movs.w	r7, r7, ror #31
 8005a06:	ea5f 0373 	movs.w	r3, r3, ror #1
 8005a0a:	ea5f 1434 	movs.w	r4, r4, ror #4
 8005a0e:	ea5f 3535 	movs.w	r5, r5, ror #12
 8005a12:	f8c0 634c 	str.w	r6, [r0, #844]	; 0x34c
 8005a16:	f8c0 73c8 	str.w	r7, [r0, #968]	; 0x3c8
 8005a1a:	f8c0 3384 	str.w	r3, [r0, #900]	; 0x384
 8005a1e:	f8c0 433c 	str.w	r4, [r0, #828]	; 0x33c
 8005a22:	f8c0 53bc 	str.w	r5, [r0, #956]	; 0x3bc
 8005a26:	f8d0 b414 	ldr.w	fp, [r0, #1044]	; 0x414
 8005a2a:	f8d0 1504 	ldr.w	r1, [r0, #1284]	; 0x504
 8005a2e:	f8d0 c490 	ldr.w	ip, [r0, #1168]	; 0x490
 8005a32:	f8d0 2508 	ldr.w	r2, [r0, #1288]	; 0x508
 8005a36:	f8d0 844c 	ldr.w	r8, [r0, #1100]	; 0x44c
 8005a3a:	f8d0 e510 	ldr.w	lr, [r0, #1296]	; 0x510
 8005a3e:	ea9b 0b01 	eors.w	fp, fp, r1
 8005a42:	ea9c 0c02 	eors.w	ip, ip, r2
 8005a46:	ea98 080e 	eors.w	r8, r8, lr
 8005a4a:	f8d0 9404 	ldr.w	r9, [r0, #1028]	; 0x404
 8005a4e:	f8d0 151c 	ldr.w	r1, [r0, #1308]	; 0x51c
 8005a52:	f8d0 a484 	ldr.w	sl, [r0, #1156]	; 0x484
 8005a56:	f8d0 e524 	ldr.w	lr, [r0, #1316]	; 0x524
 8005a5a:	ea99 0901 	eors.w	r9, r9, r1
 8005a5e:	ea9a 0a0e 	eors.w	sl, sl, lr
 8005a62:	ea5f 2bfb 	movs.w	fp, fp, ror #11
 8005a66:	ea5f 7cfc 	movs.w	ip, ip, ror #31
 8005a6a:	ea5f 0878 	movs.w	r8, r8, ror #1
 8005a6e:	ea5f 1939 	movs.w	r9, r9, ror #4
 8005a72:	ea5f 3a3a 	movs.w	sl, sl, ror #12
 8005a76:	ea93 0105 	eors.w	r1, r3, r5
 8005a7a:	ea04 0205 	and.w	r2, r4, r5
 8005a7e:	4051      	eors	r1, r2
 8005a80:	ea04 020a 	and.w	r2, r4, sl
 8005a84:	4051      	eors	r1, r2
 8005a86:	ea09 0205 	and.w	r2, r9, r5
 8005a8a:	4051      	eors	r1, r2
 8005a8c:	62c1      	str	r1, [r0, #44]	; 0x2c
 8005a8e:	ea94 0106 	eors.w	r1, r4, r6
 8005a92:	ea05 0206 	and.w	r2, r5, r6
 8005a96:	4051      	eors	r1, r2
 8005a98:	ea05 020b 	and.w	r2, r5, fp
 8005a9c:	4051      	eors	r1, r2
 8005a9e:	ea0a 0206 	and.w	r2, sl, r6
 8005aa2:	4051      	eors	r1, r2
 8005aa4:	f8c0 10a8 	str.w	r1, [r0, #168]	; 0xa8
 8005aa8:	ea95 0107 	eors.w	r1, r5, r7
 8005aac:	ea06 0207 	and.w	r2, r6, r7
 8005ab0:	4051      	eors	r1, r2
 8005ab2:	ea06 020c 	and.w	r2, r6, ip
 8005ab6:	4051      	eors	r1, r2
 8005ab8:	ea0b 0207 	and.w	r2, fp, r7
 8005abc:	4051      	eors	r1, r2
 8005abe:	6641      	str	r1, [r0, #100]	; 0x64
 8005ac0:	ea96 0103 	eors.w	r1, r6, r3
 8005ac4:	ea07 0203 	and.w	r2, r7, r3
 8005ac8:	4051      	eors	r1, r2
 8005aca:	ea07 0208 	and.w	r2, r7, r8
 8005ace:	4051      	eors	r1, r2
 8005ad0:	ea0c 0203 	and.w	r2, ip, r3
 8005ad4:	4051      	eors	r1, r2
 8005ad6:	61c1      	str	r1, [r0, #28]
 8005ad8:	ea97 0104 	eors.w	r1, r7, r4
 8005adc:	ea03 0204 	and.w	r2, r3, r4
 8005ae0:	4051      	eors	r1, r2
 8005ae2:	ea03 0209 	and.w	r2, r3, r9
 8005ae6:	4051      	eors	r1, r2
 8005ae8:	ea08 0204 	and.w	r2, r8, r4
 8005aec:	4051      	eors	r1, r2
 8005aee:	f8c0 109c 	str.w	r1, [r0, #156]	; 0x9c
 8005af2:	f8d0 6284 	ldr.w	r6, [r0, #644]	; 0x284
 8005af6:	f8d0 14b4 	ldr.w	r1, [r0, #1204]	; 0x4b4
 8005afa:	f8d0 7300 	ldr.w	r7, [r0, #768]	; 0x300
 8005afe:	f8d0 24b8 	ldr.w	r2, [r0, #1208]	; 0x4b8
 8005b02:	f8d0 32bc 	ldr.w	r3, [r0, #700]	; 0x2bc
 8005b06:	f8d0 e4c0 	ldr.w	lr, [r0, #1216]	; 0x4c0
 8005b0a:	404e      	eors	r6, r1
 8005b0c:	4057      	eors	r7, r2
 8005b0e:	ea93 030e 	eors.w	r3, r3, lr
 8005b12:	f8d0 4274 	ldr.w	r4, [r0, #628]	; 0x274
 8005b16:	f8d0 14cc 	ldr.w	r1, [r0, #1228]	; 0x4cc
 8005b1a:	f8d0 52f4 	ldr.w	r5, [r0, #756]	; 0x2f4
 8005b1e:	f8d0 e4d4 	ldr.w	lr, [r0, #1236]	; 0x4d4
 8005b22:	404c      	eors	r4, r1
 8005b24:	ea95 050e 	eors.w	r5, r5, lr
 8005b28:	ea5f 26f6 	movs.w	r6, r6, ror #11
 8005b2c:	ea5f 77f7 	movs.w	r7, r7, ror #31
 8005b30:	ea5f 0373 	movs.w	r3, r3, ror #1
 8005b34:	ea5f 1434 	movs.w	r4, r4, ror #4
 8005b38:	ea5f 3535 	movs.w	r5, r5, ror #12
 8005b3c:	ea98 010a 	eors.w	r1, r8, sl
 8005b40:	ea09 020a 	and.w	r2, r9, sl
 8005b44:	4051      	eors	r1, r2
 8005b46:	ea09 0205 	and.w	r2, r9, r5
 8005b4a:	4051      	eors	r1, r2
 8005b4c:	ea04 020a 	and.w	r2, r4, sl
 8005b50:	4051      	eors	r1, r2
 8005b52:	f8c0 10f4 	str.w	r1, [r0, #244]	; 0xf4
 8005b56:	ea99 010b 	eors.w	r1, r9, fp
 8005b5a:	ea0a 020b 	and.w	r2, sl, fp
 8005b5e:	4051      	eors	r1, r2
 8005b60:	ea0a 0206 	and.w	r2, sl, r6
 8005b64:	4051      	eors	r1, r2
 8005b66:	ea05 020b 	and.w	r2, r5, fp
 8005b6a:	4051      	eors	r1, r2
 8005b6c:	f8c0 1170 	str.w	r1, [r0, #368]	; 0x170
 8005b70:	ea9a 010c 	eors.w	r1, sl, ip
 8005b74:	ea0b 020c 	and.w	r2, fp, ip
 8005b78:	4051      	eors	r1, r2
 8005b7a:	ea0b 0207 	and.w	r2, fp, r7
 8005b7e:	4051      	eors	r1, r2
 8005b80:	ea06 020c 	and.w	r2, r6, ip
 8005b84:	4051      	eors	r1, r2
 8005b86:	f8c0 112c 	str.w	r1, [r0, #300]	; 0x12c
 8005b8a:	ea9b 0108 	eors.w	r1, fp, r8
 8005b8e:	ea0c 0208 	and.w	r2, ip, r8
 8005b92:	4051      	eors	r1, r2
 8005b94:	ea0c 0203 	and.w	r2, ip, r3
 8005b98:	4051      	eors	r1, r2
 8005b9a:	ea07 0208 	and.w	r2, r7, r8
 8005b9e:	4051      	eors	r1, r2
 8005ba0:	f8c0 10e4 	str.w	r1, [r0, #228]	; 0xe4
 8005ba4:	ea9c 0109 	eors.w	r1, ip, r9
 8005ba8:	ea08 0209 	and.w	r2, r8, r9
 8005bac:	4051      	eors	r1, r2
 8005bae:	ea08 0204 	and.w	r2, r8, r4
 8005bb2:	4051      	eors	r1, r2
 8005bb4:	ea03 0209 	and.w	r2, r3, r9
 8005bb8:	4051      	eors	r1, r2
 8005bba:	f8c0 1164 	str.w	r1, [r0, #356]	; 0x164
 8005bbe:	f8d0 b34c 	ldr.w	fp, [r0, #844]	; 0x34c
 8005bc2:	f8d0 c3c8 	ldr.w	ip, [r0, #968]	; 0x3c8
 8005bc6:	f8d0 8384 	ldr.w	r8, [r0, #900]	; 0x384
 8005bca:	f8d0 933c 	ldr.w	r9, [r0, #828]	; 0x33c
 8005bce:	f8d0 a3bc 	ldr.w	sl, [r0, #956]	; 0x3bc
 8005bd2:	ea93 0105 	eors.w	r1, r3, r5
 8005bd6:	ea04 0205 	and.w	r2, r4, r5
 8005bda:	4051      	eors	r1, r2
 8005bdc:	ea04 020a 	and.w	r2, r4, sl
 8005be0:	4051      	eors	r1, r2
 8005be2:	ea09 0205 	and.w	r2, r9, r5
 8005be6:	4051      	eors	r1, r2
 8005be8:	f8c0 11bc 	str.w	r1, [r0, #444]	; 0x1bc
 8005bec:	ea94 0106 	eors.w	r1, r4, r6
 8005bf0:	ea05 0206 	and.w	r2, r5, r6
 8005bf4:	4051      	eors	r1, r2
 8005bf6:	ea05 020b 	and.w	r2, r5, fp
 8005bfa:	4051      	eors	r1, r2
 8005bfc:	ea0a 0206 	and.w	r2, sl, r6
 8005c00:	4051      	eors	r1, r2
 8005c02:	f8c0 1238 	str.w	r1, [r0, #568]	; 0x238
 8005c06:	ea95 0107 	eors.w	r1, r5, r7
 8005c0a:	ea06 0207 	and.w	r2, r6, r7
 8005c0e:	4051      	eors	r1, r2
 8005c10:	ea06 020c 	and.w	r2, r6, ip
 8005c14:	4051      	eors	r1, r2
 8005c16:	ea0b 0207 	and.w	r2, fp, r7
 8005c1a:	4051      	eors	r1, r2
 8005c1c:	f8c0 11f4 	str.w	r1, [r0, #500]	; 0x1f4
 8005c20:	ea96 0103 	eors.w	r1, r6, r3
 8005c24:	ea07 0203 	and.w	r2, r7, r3
 8005c28:	4051      	eors	r1, r2
 8005c2a:	ea07 0208 	and.w	r2, r7, r8
 8005c2e:	4051      	eors	r1, r2
 8005c30:	ea0c 0203 	and.w	r2, ip, r3
 8005c34:	4051      	eors	r1, r2
 8005c36:	f8c0 11ac 	str.w	r1, [r0, #428]	; 0x1ac
 8005c3a:	ea97 0104 	eors.w	r1, r7, r4
 8005c3e:	ea03 0204 	and.w	r2, r3, r4
 8005c42:	4051      	eors	r1, r2
 8005c44:	ea03 0209 	and.w	r2, r3, r9
 8005c48:	4051      	eors	r1, r2
 8005c4a:	ea08 0204 	and.w	r2, r8, r4
 8005c4e:	4051      	eors	r1, r2
 8005c50:	f8c0 122c 	str.w	r1, [r0, #556]	; 0x22c
 8005c54:	e8bd 5f04 	ldmia.w	sp!, {r2, r8, r9, sl, fp, ip, lr}
 8005c58:	f8d0 94f0 	ldr.w	r9, [r0, #1264]	; 0x4f0
 8005c5c:	e92d 5f04 	stmdb	sp!, {r2, r8, r9, sl, fp, ip, lr}
 8005c60:	f8d0 3324 	ldr.w	r3, [r0, #804]	; 0x324
 8005c64:	f8d0 43a0 	ldr.w	r4, [r0, #928]	; 0x3a0
 8005c68:	f8d0 5358 	ldr.w	r5, [r0, #856]	; 0x358
 8005c6c:	f8d0 63d8 	ldr.w	r6, [r0, #984]	; 0x3d8
 8005c70:	f8d0 7390 	ldr.w	r7, [r0, #912]	; 0x390
 8005c74:	ea93 0308 	eors.w	r3, r3, r8
 8005c78:	ea94 040b 	eors.w	r4, r4, fp
 8005c7c:	4055      	eors	r5, r2
 8005c7e:	ea96 0609 	eors.w	r6, r6, r9
 8005c82:	ea97 070e 	eors.w	r7, r7, lr
 8005c86:	ea5f 24b4 	movs.w	r4, r4, ror #10
 8005c8a:	ea5f 25f5 	movs.w	r5, r5, ror #11
 8005c8e:	ea5f 56b6 	movs.w	r6, r6, ror #22
 8005c92:	ea5f 6777 	movs.w	r7, r7, ror #25
 8005c96:	f8c0 3324 	str.w	r3, [r0, #804]	; 0x324
 8005c9a:	f8c0 43a0 	str.w	r4, [r0, #928]	; 0x3a0
 8005c9e:	f8c0 5358 	str.w	r5, [r0, #856]	; 0x358
 8005ca2:	f8c0 63d8 	str.w	r6, [r0, #984]	; 0x3d8
 8005ca6:	f8c0 7390 	str.w	r7, [r0, #912]	; 0x390
 8005caa:	f8d0 83ec 	ldr.w	r8, [r0, #1004]	; 0x3ec
 8005cae:	f8d0 1504 	ldr.w	r1, [r0, #1284]	; 0x504
 8005cb2:	f8d0 9468 	ldr.w	r9, [r0, #1128]	; 0x468
 8005cb6:	f8d0 250c 	ldr.w	r2, [r0, #1292]	; 0x50c
 8005cba:	f8d0 a420 	ldr.w	sl, [r0, #1056]	; 0x420
 8005cbe:	f8d0 e510 	ldr.w	lr, [r0, #1296]	; 0x510
 8005cc2:	ea98 0801 	eors.w	r8, r8, r1
 8005cc6:	ea99 0902 	eors.w	r9, r9, r2
 8005cca:	ea9a 0a0e 	eors.w	sl, sl, lr
 8005cce:	f8d0 b4a0 	ldr.w	fp, [r0, #1184]	; 0x4a0
 8005cd2:	f8d0 1518 	ldr.w	r1, [r0, #1304]	; 0x518
 8005cd6:	f8d0 c458 	ldr.w	ip, [r0, #1112]	; 0x458
 8005cda:	f8d0 e524 	ldr.w	lr, [r0, #1316]	; 0x524
 8005cde:	ea9b 0b01 	eors.w	fp, fp, r1
 8005ce2:	ea9c 0c0e 	eors.w	ip, ip, lr
 8005ce6:	ea5f 29b9 	movs.w	r9, r9, ror #10
 8005cea:	ea5f 2afa 	movs.w	sl, sl, ror #11
 8005cee:	ea5f 5bbb 	movs.w	fp, fp, ror #22
 8005cf2:	ea5f 6c7c 	movs.w	ip, ip, ror #25
 8005cf6:	ea93 0105 	eors.w	r1, r3, r5
 8005cfa:	ea04 0205 	and.w	r2, r4, r5
 8005cfe:	4051      	eors	r1, r2
 8005d00:	ea04 020a 	and.w	r2, r4, sl
 8005d04:	4051      	eors	r1, r2
 8005d06:	ea09 0205 	and.w	r2, r9, r5
 8005d0a:	4051      	eors	r1, r2
 8005d0c:	6041      	str	r1, [r0, #4]
 8005d0e:	ea94 0106 	eors.w	r1, r4, r6
 8005d12:	ea05 0206 	and.w	r2, r5, r6
 8005d16:	4051      	eors	r1, r2
 8005d18:	ea05 020b 	and.w	r2, r5, fp
 8005d1c:	4051      	eors	r1, r2
 8005d1e:	ea0a 0206 	and.w	r2, sl, r6
 8005d22:	4051      	eors	r1, r2
 8005d24:	f8c0 1080 	str.w	r1, [r0, #128]	; 0x80
 8005d28:	ea95 0107 	eors.w	r1, r5, r7
 8005d2c:	ea06 0207 	and.w	r2, r6, r7
 8005d30:	4051      	eors	r1, r2
 8005d32:	ea06 020c 	and.w	r2, r6, ip
 8005d36:	4051      	eors	r1, r2
 8005d38:	ea0b 0207 	and.w	r2, fp, r7
 8005d3c:	4051      	eors	r1, r2
 8005d3e:	6381      	str	r1, [r0, #56]	; 0x38
 8005d40:	ea96 0103 	eors.w	r1, r6, r3
 8005d44:	ea07 0203 	and.w	r2, r7, r3
 8005d48:	4051      	eors	r1, r2
 8005d4a:	ea07 0208 	and.w	r2, r7, r8
 8005d4e:	4051      	eors	r1, r2
 8005d50:	ea0c 0203 	and.w	r2, ip, r3
 8005d54:	4051      	eors	r1, r2
 8005d56:	f8c0 10b8 	str.w	r1, [r0, #184]	; 0xb8
 8005d5a:	ea97 0104 	eors.w	r1, r7, r4
 8005d5e:	ea03 0204 	and.w	r2, r3, r4
 8005d62:	4051      	eors	r1, r2
 8005d64:	ea03 0209 	and.w	r2, r3, r9
 8005d68:	4051      	eors	r1, r2
 8005d6a:	ea08 0204 	and.w	r2, r8, r4
 8005d6e:	4051      	eors	r1, r2
 8005d70:	6701      	str	r1, [r0, #112]	; 0x70
 8005d72:	f8d0 325c 	ldr.w	r3, [r0, #604]	; 0x25c
 8005d76:	f8d0 14b4 	ldr.w	r1, [r0, #1204]	; 0x4b4
 8005d7a:	f8d0 42d8 	ldr.w	r4, [r0, #728]	; 0x2d8
 8005d7e:	f8d0 24bc 	ldr.w	r2, [r0, #1212]	; 0x4bc
 8005d82:	f8d0 5290 	ldr.w	r5, [r0, #656]	; 0x290
 8005d86:	f8d0 e4c0 	ldr.w	lr, [r0, #1216]	; 0x4c0
 8005d8a:	404b      	eors	r3, r1
 8005d8c:	4054      	eors	r4, r2
 8005d8e:	ea95 050e 	eors.w	r5, r5, lr
 8005d92:	f8d0 6310 	ldr.w	r6, [r0, #784]	; 0x310
 8005d96:	f8d0 14c8 	ldr.w	r1, [r0, #1224]	; 0x4c8
 8005d9a:	f8d0 72c8 	ldr.w	r7, [r0, #712]	; 0x2c8
 8005d9e:	f8d0 e4d4 	ldr.w	lr, [r0, #1236]	; 0x4d4
 8005da2:	404e      	eors	r6, r1
 8005da4:	ea97 070e 	eors.w	r7, r7, lr
 8005da8:	ea5f 24b4 	movs.w	r4, r4, ror #10
 8005dac:	ea5f 25f5 	movs.w	r5, r5, ror #11
 8005db0:	ea5f 56b6 	movs.w	r6, r6, ror #22
 8005db4:	ea5f 6777 	movs.w	r7, r7, ror #25
 8005db8:	ea98 010a 	eors.w	r1, r8, sl
 8005dbc:	ea09 020a 	and.w	r2, r9, sl
 8005dc0:	4051      	eors	r1, r2
 8005dc2:	ea09 0205 	and.w	r2, r9, r5
 8005dc6:	4051      	eors	r1, r2
 8005dc8:	ea04 020a 	and.w	r2, r4, sl
 8005dcc:	4051      	eors	r1, r2
 8005dce:	f8c0 10cc 	str.w	r1, [r0, #204]	; 0xcc
 8005dd2:	ea99 010b 	eors.w	r1, r9, fp
 8005dd6:	ea0a 020b 	and.w	r2, sl, fp
 8005dda:	4051      	eors	r1, r2
 8005ddc:	ea0a 0206 	and.w	r2, sl, r6
 8005de0:	4051      	eors	r1, r2
 8005de2:	ea05 020b 	and.w	r2, r5, fp
 8005de6:	4051      	eors	r1, r2
 8005de8:	f8c0 1148 	str.w	r1, [r0, #328]	; 0x148
 8005dec:	ea9a 010c 	eors.w	r1, sl, ip
 8005df0:	ea0b 020c 	and.w	r2, fp, ip
 8005df4:	4051      	eors	r1, r2
 8005df6:	ea0b 0207 	and.w	r2, fp, r7
 8005dfa:	4051      	eors	r1, r2
 8005dfc:	ea06 020c 	and.w	r2, r6, ip
 8005e00:	4051      	eors	r1, r2
 8005e02:	f8c0 1100 	str.w	r1, [r0, #256]	; 0x100
 8005e06:	ea9b 0108 	eors.w	r1, fp, r8
 8005e0a:	ea0c 0208 	and.w	r2, ip, r8
 8005e0e:	4051      	eors	r1, r2
 8005e10:	ea0c 0203 	and.w	r2, ip, r3
 8005e14:	4051      	eors	r1, r2
 8005e16:	ea07 0208 	and.w	r2, r7, r8
 8005e1a:	4051      	eors	r1, r2
 8005e1c:	f8c0 1180 	str.w	r1, [r0, #384]	; 0x180
 8005e20:	ea9c 0109 	eors.w	r1, ip, r9
 8005e24:	ea08 0209 	and.w	r2, r8, r9
 8005e28:	4051      	eors	r1, r2
 8005e2a:	ea08 0204 	and.w	r2, r8, r4
 8005e2e:	4051      	eors	r1, r2
 8005e30:	ea03 0209 	and.w	r2, r3, r9
 8005e34:	4051      	eors	r1, r2
 8005e36:	f8c0 1138 	str.w	r1, [r0, #312]	; 0x138
 8005e3a:	f8d0 8324 	ldr.w	r8, [r0, #804]	; 0x324
 8005e3e:	f8d0 93a0 	ldr.w	r9, [r0, #928]	; 0x3a0
 8005e42:	f8d0 a358 	ldr.w	sl, [r0, #856]	; 0x358
 8005e46:	f8d0 b3d8 	ldr.w	fp, [r0, #984]	; 0x3d8
 8005e4a:	f8d0 c390 	ldr.w	ip, [r0, #912]	; 0x390
 8005e4e:	ea94 0106 	eors.w	r1, r4, r6
 8005e52:	ea05 0206 	and.w	r2, r5, r6
 8005e56:	4051      	eors	r1, r2
 8005e58:	ea05 020b 	and.w	r2, r5, fp
 8005e5c:	4051      	eors	r1, r2
 8005e5e:	ea0a 0206 	and.w	r2, sl, r6
 8005e62:	4051      	eors	r1, r2
 8005e64:	f8c0 1210 	str.w	r1, [r0, #528]	; 0x210
 8005e68:	ea95 0107 	eors.w	r1, r5, r7
 8005e6c:	ea06 0207 	and.w	r2, r6, r7
 8005e70:	4051      	eors	r1, r2
 8005e72:	ea06 020c 	and.w	r2, r6, ip
 8005e76:	4051      	eors	r1, r2
 8005e78:	ea0b 0207 	and.w	r2, fp, r7
 8005e7c:	4051      	eors	r1, r2
 8005e7e:	f8c0 11c8 	str.w	r1, [r0, #456]	; 0x1c8
 8005e82:	ea96 0103 	eors.w	r1, r6, r3
 8005e86:	ea07 0203 	and.w	r2, r7, r3
 8005e8a:	4051      	eors	r1, r2
 8005e8c:	ea07 0208 	and.w	r2, r7, r8
 8005e90:	4051      	eors	r1, r2
 8005e92:	ea0c 0203 	and.w	r2, ip, r3
 8005e96:	4051      	eors	r1, r2
 8005e98:	f8c0 1248 	str.w	r1, [r0, #584]	; 0x248
 8005e9c:	ea97 0104 	eors.w	r1, r7, r4
 8005ea0:	ea03 0204 	and.w	r2, r3, r4
 8005ea4:	4051      	eors	r1, r2
 8005ea6:	ea03 0209 	and.w	r2, r3, r9
 8005eaa:	4051      	eors	r1, r2
 8005eac:	ea08 0204 	and.w	r2, r8, r4
 8005eb0:	4051      	eors	r1, r2
 8005eb2:	f8c0 1200 	str.w	r1, [r0, #512]	; 0x200
 8005eb6:	f8d0 1528 	ldr.w	r1, [r0, #1320]	; 0x528
 8005eba:	ea93 0605 	eors.w	r6, r3, r5
 8005ebe:	ea04 0705 	and.w	r7, r4, r5
 8005ec2:	407e      	eors	r6, r7
 8005ec4:	ea04 070a 	and.w	r7, r4, sl
 8005ec8:	407e      	eors	r6, r7
 8005eca:	ea09 0705 	and.w	r7, r9, r5
 8005ece:	407e      	eors	r6, r7
 8005ed0:	68cc      	ldr	r4, [r1, #12]
 8005ed2:	4066      	eors	r6, r4
 8005ed4:	f8c0 6194 	str.w	r6, [r0, #404]	; 0x194
 8005ed8:	e8bd 5f04 	ldmia.w	sp!, {r2, r8, r9, sl, fp, ip, lr}
 8005edc:	f8c0 052c 	str.w	r0, [r0, #1324]	; 0x52c
 8005ee0:	f8c0 1530 	str.w	r1, [r0, #1328]	; 0x530
 8005ee4:	f8c0 2534 	str.w	r2, [r0, #1332]	; 0x534
 8005ee8:	f8c0 3538 	str.w	r3, [r0, #1336]	; 0x538
 8005eec:	f8c0 453c 	str.w	r4, [r0, #1340]	; 0x53c
 8005ef0:	f8c0 5540 	str.w	r5, [r0, #1344]	; 0x540
 8005ef4:	f8c0 6544 	str.w	r6, [r0, #1348]	; 0x544
 8005ef8:	f8c0 7548 	str.w	r7, [r0, #1352]	; 0x548
 8005efc:	f8c0 854c 	str.w	r8, [r0, #1356]	; 0x54c
 8005f00:	f8c0 9550 	str.w	r9, [r0, #1360]	; 0x550
 8005f04:	f8c0 a554 	str.w	sl, [r0, #1364]	; 0x554
 8005f08:	f8c0 b558 	str.w	fp, [r0, #1368]	; 0x558
 8005f0c:	f8c0 c55c 	str.w	ip, [r0, #1372]	; 0x55c
 8005f10:	f8c0 e560 	str.w	lr, [r0, #1376]	; 0x560
 8005f14:	e8bd 9ff0 	ldmia.w	sp!, {r4, r5, r6, r7, r8, r9, sl, fp, ip, pc}
 8005f18:	f3af 8000 	nop.w
 8005f1c:	f3af 8000 	nop.w
 8005f20:	f3af 8000 	nop.w
 8005f24:	f3af 8000 	nop.w
 8005f28:	f3af 8000 	nop.w
 8005f2c:	f3af 8000 	nop.w
 8005f30:	f3af 8000 	nop.w
 8005f34:	f3af 8000 	nop.w
 8005f38:	f3af 8000 	nop.w
 8005f3c:	f3af 8000 	nop.w
 8005f40:	0000      	movs	r0, r0
 8005f42:	0000      	movs	r0, r0
 8005f44:	0000      	movs	r0, r0
 8005f46:	0000      	movs	r0, r0
 8005f48:	0000      	movs	r0, r0
 8005f4a:	0000      	movs	r0, r0
 8005f4c:	0000      	movs	r0, r0
 8005f4e:	0000      	movs	r0, r0
 8005f50:	0000      	movs	r0, r0
 8005f52:	0000      	movs	r0, r0
 8005f54:	0000      	movs	r0, r0
 8005f56:	0000      	movs	r0, r0
 8005f58:	0000      	movs	r0, r0
 8005f5a:	0000      	movs	r0, r0
 8005f5c:	0000      	movs	r0, r0
 8005f5e:	0000      	movs	r0, r0
 8005f60:	0000      	movs	r0, r0
 8005f62:	0000      	movs	r0, r0
 8005f64:	0000      	movs	r0, r0
 8005f66:	0000      	movs	r0, r0
 8005f68:	0000      	movs	r0, r0
 8005f6a:	0000      	movs	r0, r0
 8005f6c:	0000      	movs	r0, r0
 8005f6e:	0000      	movs	r0, r0
 8005f70:	0000      	movs	r0, r0
 8005f72:	0000      	movs	r0, r0
 8005f74:	0000      	movs	r0, r0
 8005f76:	0000      	movs	r0, r0
 8005f78:	0000      	movs	r0, r0
 8005f7a:	0000      	movs	r0, r0
 8005f7c:	0000      	movs	r0, r0
 8005f7e:	0000      	movs	r0, r0
 8005f80:	0000      	movs	r0, r0
 8005f82:	0000      	movs	r0, r0
 8005f84:	0000      	movs	r0, r0
 8005f86:	0000      	movs	r0, r0
 8005f88:	0000      	movs	r0, r0
 8005f8a:	0000      	movs	r0, r0
 8005f8c:	0000      	movs	r0, r0
 8005f8e:	0000      	movs	r0, r0
 8005f90:	0000      	movs	r0, r0
 8005f92:	0000      	movs	r0, r0
 8005f94:	0000      	movs	r0, r0
 8005f96:	0000      	movs	r0, r0
 8005f98:	0000      	movs	r0, r0
 8005f9a:	0000      	movs	r0, r0
 8005f9c:	0000      	movs	r0, r0
 8005f9e:	0000      	movs	r0, r0
 8005fa0:	0000      	movs	r0, r0
 8005fa2:	0000      	movs	r0, r0
 8005fa4:	0000      	movs	r0, r0
 8005fa6:	0000      	movs	r0, r0
 8005fa8:	0000      	movs	r0, r0
 8005faa:	0000      	movs	r0, r0
 8005fac:	0000      	movs	r0, r0
 8005fae:	0000      	movs	r0, r0
 8005fb0:	0000      	movs	r0, r0
 8005fb2:	0000      	movs	r0, r0
 8005fb4:	0000      	movs	r0, r0
 8005fb6:	0000      	movs	r0, r0
 8005fb8:	0000      	movs	r0, r0
 8005fba:	0000      	movs	r0, r0
 8005fbc:	0000      	movs	r0, r0
 8005fbe:	0000      	movs	r0, r0
 8005fc0:	0000      	movs	r0, r0
 8005fc2:	0000      	movs	r0, r0
 8005fc4:	0000      	movs	r0, r0
 8005fc6:	0000      	movs	r0, r0
 8005fc8:	0000      	movs	r0, r0
 8005fca:	0000      	movs	r0, r0
 8005fcc:	0000      	movs	r0, r0
 8005fce:	0000      	movs	r0, r0
 8005fd0:	0000      	movs	r0, r0
 8005fd2:	0000      	movs	r0, r0
 8005fd4:	0000      	movs	r0, r0
 8005fd6:	0000      	movs	r0, r0
 8005fd8:	0000      	movs	r0, r0
 8005fda:	0000      	movs	r0, r0
 8005fdc:	0000      	movs	r0, r0
 8005fde:	0000      	movs	r0, r0
 8005fe0:	0000      	movs	r0, r0
 8005fe2:	0000      	movs	r0, r0
 8005fe4:	0000      	movs	r0, r0
 8005fe6:	0000      	movs	r0, r0
 8005fe8:	0000      	movs	r0, r0
 8005fea:	0000      	movs	r0, r0
 8005fec:	0000      	movs	r0, r0
 8005fee:	0000      	movs	r0, r0
 8005ff0:	0000      	movs	r0, r0
 8005ff2:	0000      	movs	r0, r0
 8005ff4:	0000      	movs	r0, r0
 8005ff6:	0000      	movs	r0, r0
 8005ff8:	0000      	movs	r0, r0
 8005ffa:	0000      	movs	r0, r0
 8005ffc:	0000      	movs	r0, r0
 8005ffe:	0000      	movs	r0, r0

08006000 <KeccakP1600_Permute2>:
 8006000:	e92d 5ff0 	stmdb	sp!, {r4, r5, r6, r7, r8, r9, sl, fp, ip, lr}
 8006004:	f8d0 1530 	ldr.w	r1, [r0, #1328]	; 0x530
 8006008:	f8d0 2534 	ldr.w	r2, [r0, #1332]	; 0x534
 800600c:	f8d0 3538 	ldr.w	r3, [r0, #1336]	; 0x538
 8006010:	f8d0 453c 	ldr.w	r4, [r0, #1340]	; 0x53c
 8006014:	f8d0 5540 	ldr.w	r5, [r0, #1344]	; 0x540
 8006018:	f8d0 6544 	ldr.w	r6, [r0, #1348]	; 0x544
 800601c:	f8d0 7548 	ldr.w	r7, [r0, #1352]	; 0x548
 8006020:	f8d0 854c 	ldr.w	r8, [r0, #1356]	; 0x54c
 8006024:	f8d0 9550 	ldr.w	r9, [r0, #1360]	; 0x550
 8006028:	f8d0 a554 	ldr.w	sl, [r0, #1364]	; 0x554
 800602c:	f8d0 b558 	ldr.w	fp, [r0, #1368]	; 0x558
 8006030:	f8d0 c55c 	ldr.w	ip, [r0, #1372]	; 0x55c
 8006034:	f8d0 e560 	ldr.w	lr, [r0, #1376]	; 0x560
 8006038:	6f43      	ldr	r3, [r0, #116]	; 0x74
 800603a:	6c81      	ldr	r1, [r0, #72]	; 0x48
 800603c:	6a42      	ldr	r2, [r0, #36]	; 0x24
 800603e:	f8d0 c0c4 	ldr.w	ip, [r0, #196]	; 0xc4
 8006042:	404b      	eors	r3, r1
 8006044:	4053      	eors	r3, r2
 8006046:	ea93 030c 	eors.w	r3, r3, ip
 800604a:	f8d0 109c 	ldr.w	r1, [r0, #156]	; 0x9c
 800604e:	404b      	eors	r3, r1
 8006050:	f8d0 7080 	ldr.w	r7, [r0, #128]	; 0x80
 8006054:	6d81      	ldr	r1, [r0, #88]	; 0x58
 8006056:	6b02      	ldr	r2, [r0, #48]	; 0x30
 8006058:	f8d0 c008 	ldr.w	ip, [r0, #8]
 800605c:	404f      	eors	r7, r1
 800605e:	4057      	eors	r7, r2
 8006060:	ea97 070c 	eors.w	r7, r7, ip
 8006064:	f8d0 10ac 	ldr.w	r1, [r0, #172]	; 0xac
 8006068:	404f      	eors	r7, r1
 800606a:	ea83 76f7 	eor.w	r6, r3, r7, ror #31
 800606e:	f8c0 64b0 	str.w	r6, [r0, #1200]	; 0x4b0
 8006072:	6f06      	ldr	r6, [r0, #112]	; 0x70
 8006074:	6cc1      	ldr	r1, [r0, #76]	; 0x4c
 8006076:	6a02      	ldr	r2, [r0, #32]
 8006078:	f8d0 c0c0 	ldr.w	ip, [r0, #192]	; 0xc0
 800607c:	404e      	eors	r6, r1
 800607e:	4056      	eors	r6, r2
 8006080:	ea96 060c 	eors.w	r6, r6, ip
 8006084:	f8d0 1098 	ldr.w	r1, [r0, #152]	; 0x98
 8006088:	404e      	eors	r6, r1
 800608a:	f8d0 e084 	ldr.w	lr, [r0, #132]	; 0x84
 800608e:	6dc1      	ldr	r1, [r0, #92]	; 0x5c
 8006090:	6b42      	ldr	r2, [r0, #52]	; 0x34
 8006092:	f8d0 c00c 	ldr.w	ip, [r0, #12]
 8006096:	ea9e 0e01 	eors.w	lr, lr, r1
 800609a:	ea9e 0e02 	eors.w	lr, lr, r2
 800609e:	ea9e 0e0c 	eors.w	lr, lr, ip
 80060a2:	f8d0 10a8 	ldr.w	r1, [r0, #168]	; 0xa8
 80060a6:	ea9e 0e01 	eors.w	lr, lr, r1
 80060aa:	ea96 080e 	eors.w	r8, r6, lr
 80060ae:	f8c0 84b4 	str.w	r8, [r0, #1204]	; 0x4b4
 80060b2:	6bc5      	ldr	r5, [r0, #60]	; 0x3c
 80060b4:	6941      	ldr	r1, [r0, #20]
 80060b6:	f8d0 20b4 	ldr.w	r2, [r0, #180]	; 0xb4
 80060ba:	f8d0 c088 	ldr.w	ip, [r0, #136]	; 0x88
 80060be:	404d      	eors	r5, r1
 80060c0:	4055      	eors	r5, r2
 80060c2:	ea95 050c 	eors.w	r5, r5, ip
 80060c6:	6e41      	ldr	r1, [r0, #100]	; 0x64
 80060c8:	404d      	eors	r5, r1
 80060ca:	ea85 79f6 	eor.w	r9, r5, r6, ror #31
 80060ce:	f8c0 94c8 	str.w	r9, [r0, #1224]	; 0x4c8
 80060d2:	6b84      	ldr	r4, [r0, #56]	; 0x38
 80060d4:	6901      	ldr	r1, [r0, #16]
 80060d6:	f8d0 20b0 	ldr.w	r2, [r0, #176]	; 0xb0
 80060da:	f8d0 c08c 	ldr.w	ip, [r0, #140]	; 0x8c
 80060de:	404c      	eors	r4, r1
 80060e0:	4054      	eors	r4, r2
 80060e2:	ea94 040c 	eors.w	r4, r4, ip
 80060e6:	6e01      	ldr	r1, [r0, #96]	; 0x60
 80060e8:	404c      	eors	r4, r1
 80060ea:	4063      	eors	r3, r4
 80060ec:	f8c0 34cc 	str.w	r3, [r0, #1228]	; 0x4cc
 80060f0:	6803      	ldr	r3, [r0, #0]
 80060f2:	f8d0 10a4 	ldr.w	r1, [r0, #164]	; 0xa4
 80060f6:	6fc2      	ldr	r2, [r0, #124]	; 0x7c
 80060f8:	f8d0 c054 	ldr.w	ip, [r0, #84]	; 0x54
 80060fc:	404b      	eors	r3, r1
 80060fe:	4053      	eors	r3, r2
 8006100:	ea93 030c 	eors.w	r3, r3, ip
 8006104:	6ac1      	ldr	r1, [r0, #44]	; 0x2c
 8006106:	404b      	eors	r3, r1
 8006108:	ea83 7af4 	eor.w	sl, r3, r4, ror #31
 800610c:	f8c0 a4b8 	str.w	sl, [r0, #1208]	; 0x4b8
 8006110:	6846      	ldr	r6, [r0, #4]
 8006112:	f8d0 10a0 	ldr.w	r1, [r0, #160]	; 0xa0
 8006116:	6f82      	ldr	r2, [r0, #120]	; 0x78
 8006118:	f8d0 c050 	ldr.w	ip, [r0, #80]	; 0x50
 800611c:	404e      	eors	r6, r1
 800611e:	4056      	eors	r6, r2
 8006120:	ea96 060c 	eors.w	r6, r6, ip
 8006124:	6a81      	ldr	r1, [r0, #40]	; 0x28
 8006126:	404e      	eors	r6, r1
 8006128:	ea96 0b05 	eors.w	fp, r6, r5
 800612c:	f8c0 b4bc 	str.w	fp, [r0, #1212]	; 0x4bc
 8006130:	f8d0 40b8 	ldr.w	r4, [r0, #184]	; 0xb8
 8006134:	f8d0 1090 	ldr.w	r1, [r0, #144]	; 0x90
 8006138:	6ec2      	ldr	r2, [r0, #108]	; 0x6c
 800613a:	f8d0 c040 	ldr.w	ip, [r0, #64]	; 0x40
 800613e:	404c      	eors	r4, r1
 8006140:	4054      	eors	r4, r2
 8006142:	ea94 040c 	eors.w	r4, r4, ip
 8006146:	6981      	ldr	r1, [r0, #24]
 8006148:	404c      	eors	r4, r1
 800614a:	ea8e 75f4 	eor.w	r5, lr, r4, ror #31
 800614e:	f8c0 54c0 	str.w	r5, [r0, #1216]	; 0x4c0
 8006152:	f8d0 50bc 	ldr.w	r5, [r0, #188]	; 0xbc
 8006156:	f8d0 1094 	ldr.w	r1, [r0, #148]	; 0x94
 800615a:	6e82      	ldr	r2, [r0, #104]	; 0x68
 800615c:	f8d0 c044 	ldr.w	ip, [r0, #68]	; 0x44
 8006160:	404d      	eors	r5, r1
 8006162:	4055      	eors	r5, r2
 8006164:	ea95 050c 	eors.w	r5, r5, ip
 8006168:	69c1      	ldr	r1, [r0, #28]
 800616a:	404d      	eors	r5, r1
 800616c:	ea97 0205 	eors.w	r2, r7, r5
 8006170:	f8c0 24c4 	str.w	r2, [r0, #1220]	; 0x4c4
 8006174:	ea85 7cf6 	eor.w	ip, r5, r6, ror #31
 8006178:	f8c0 c4d0 	str.w	ip, [r0, #1232]	; 0x4d0
 800617c:	ea94 0e03 	eors.w	lr, r4, r3
 8006180:	f8c0 e4d4 	str.w	lr, [r0, #1236]	; 0x4d4
 8006184:	f8d0 3204 	ldr.w	r3, [r0, #516]	; 0x204
 8006188:	f8d0 11d8 	ldr.w	r1, [r0, #472]	; 0x1d8
 800618c:	f8d0 21b4 	ldr.w	r2, [r0, #436]	; 0x1b4
 8006190:	f8d0 c254 	ldr.w	ip, [r0, #596]	; 0x254
 8006194:	404b      	eors	r3, r1
 8006196:	4053      	eors	r3, r2
 8006198:	ea93 030c 	eors.w	r3, r3, ip
 800619c:	f8d0 122c 	ldr.w	r1, [r0, #556]	; 0x22c
 80061a0:	404b      	eors	r3, r1
 80061a2:	f8d0 7210 	ldr.w	r7, [r0, #528]	; 0x210
 80061a6:	f8d0 11e8 	ldr.w	r1, [r0, #488]	; 0x1e8
 80061aa:	f8d0 21c0 	ldr.w	r2, [r0, #448]	; 0x1c0
 80061ae:	f8d0 c198 	ldr.w	ip, [r0, #408]	; 0x198
 80061b2:	404f      	eors	r7, r1
 80061b4:	4057      	eors	r7, r2
 80061b6:	ea97 070c 	eors.w	r7, r7, ip
 80061ba:	f8d0 123c 	ldr.w	r1, [r0, #572]	; 0x23c
 80061be:	404f      	eors	r7, r1
 80061c0:	ea83 76f7 	eor.w	r6, r3, r7, ror #31
 80061c4:	f8c0 6500 	str.w	r6, [r0, #1280]	; 0x500
 80061c8:	f8d0 6200 	ldr.w	r6, [r0, #512]	; 0x200
 80061cc:	f8d0 11dc 	ldr.w	r1, [r0, #476]	; 0x1dc
 80061d0:	f8d0 21b0 	ldr.w	r2, [r0, #432]	; 0x1b0
 80061d4:	f8d0 c250 	ldr.w	ip, [r0, #592]	; 0x250
 80061d8:	404e      	eors	r6, r1
 80061da:	4056      	eors	r6, r2
 80061dc:	ea96 060c 	eors.w	r6, r6, ip
 80061e0:	f8d0 1228 	ldr.w	r1, [r0, #552]	; 0x228
 80061e4:	404e      	eors	r6, r1
 80061e6:	f8d0 e214 	ldr.w	lr, [r0, #532]	; 0x214
 80061ea:	f8d0 11ec 	ldr.w	r1, [r0, #492]	; 0x1ec
 80061ee:	f8d0 21c4 	ldr.w	r2, [r0, #452]	; 0x1c4
 80061f2:	f8d0 c19c 	ldr.w	ip, [r0, #412]	; 0x19c
 80061f6:	ea9e 0e01 	eors.w	lr, lr, r1
 80061fa:	ea9e 0e02 	eors.w	lr, lr, r2
 80061fe:	ea9e 0e0c 	eors.w	lr, lr, ip
 8006202:	f8d0 1238 	ldr.w	r1, [r0, #568]	; 0x238
 8006206:	ea9e 0e01 	eors.w	lr, lr, r1
 800620a:	ea96 080e 	eors.w	r8, r6, lr
 800620e:	f8c0 8504 	str.w	r8, [r0, #1284]	; 0x504
 8006212:	f8d0 51cc 	ldr.w	r5, [r0, #460]	; 0x1cc
 8006216:	f8d0 11a4 	ldr.w	r1, [r0, #420]	; 0x1a4
 800621a:	f8d0 2244 	ldr.w	r2, [r0, #580]	; 0x244
 800621e:	f8d0 c218 	ldr.w	ip, [r0, #536]	; 0x218
 8006222:	404d      	eors	r5, r1
 8006224:	4055      	eors	r5, r2
 8006226:	ea95 050c 	eors.w	r5, r5, ip
 800622a:	f8d0 11f4 	ldr.w	r1, [r0, #500]	; 0x1f4
 800622e:	404d      	eors	r5, r1
 8006230:	ea85 79f6 	eor.w	r9, r5, r6, ror #31
 8006234:	f8c0 9518 	str.w	r9, [r0, #1304]	; 0x518
 8006238:	f8d0 41c8 	ldr.w	r4, [r0, #456]	; 0x1c8
 800623c:	f8d0 11a0 	ldr.w	r1, [r0, #416]	; 0x1a0
 8006240:	f8d0 2240 	ldr.w	r2, [r0, #576]	; 0x240
 8006244:	f8d0 c21c 	ldr.w	ip, [r0, #540]	; 0x21c
 8006248:	404c      	eors	r4, r1
 800624a:	4054      	eors	r4, r2
 800624c:	ea94 040c 	eors.w	r4, r4, ip
 8006250:	f8d0 11f0 	ldr.w	r1, [r0, #496]	; 0x1f0
 8006254:	404c      	eors	r4, r1
 8006256:	4063      	eors	r3, r4
 8006258:	f8c0 351c 	str.w	r3, [r0, #1308]	; 0x51c
 800625c:	f8d0 3190 	ldr.w	r3, [r0, #400]	; 0x190
 8006260:	f8d0 1234 	ldr.w	r1, [r0, #564]	; 0x234
 8006264:	f8d0 220c 	ldr.w	r2, [r0, #524]	; 0x20c
 8006268:	f8d0 c1e4 	ldr.w	ip, [r0, #484]	; 0x1e4
 800626c:	404b      	eors	r3, r1
 800626e:	4053      	eors	r3, r2
 8006270:	ea93 030c 	eors.w	r3, r3, ip
 8006274:	f8d0 11bc 	ldr.w	r1, [r0, #444]	; 0x1bc
 8006278:	404b      	eors	r3, r1
 800627a:	ea83 7af4 	eor.w	sl, r3, r4, ror #31
 800627e:	f8c0 a508 	str.w	sl, [r0, #1288]	; 0x508
 8006282:	f8d0 6194 	ldr.w	r6, [r0, #404]	; 0x194
 8006286:	f8d0 1230 	ldr.w	r1, [r0, #560]	; 0x230
 800628a:	f8d0 2208 	ldr.w	r2, [r0, #520]	; 0x208
 800628e:	f8d0 c1e0 	ldr.w	ip, [r0, #480]	; 0x1e0
 8006292:	404e      	eors	r6, r1
 8006294:	4056      	eors	r6, r2
 8006296:	ea96 060c 	eors.w	r6, r6, ip
 800629a:	f8d0 11b8 	ldr.w	r1, [r0, #440]	; 0x1b8
 800629e:	404e      	eors	r6, r1
 80062a0:	ea96 0b05 	eors.w	fp, r6, r5
 80062a4:	f8c0 b50c 	str.w	fp, [r0, #1292]	; 0x50c
 80062a8:	f8d0 4248 	ldr.w	r4, [r0, #584]	; 0x248
 80062ac:	f8d0 1220 	ldr.w	r1, [r0, #544]	; 0x220
 80062b0:	f8d0 21fc 	ldr.w	r2, [r0, #508]	; 0x1fc
 80062b4:	f8d0 c1d0 	ldr.w	ip, [r0, #464]	; 0x1d0
 80062b8:	404c      	eors	r4, r1
 80062ba:	4054      	eors	r4, r2
 80062bc:	ea94 040c 	eors.w	r4, r4, ip
 80062c0:	f8d0 11a8 	ldr.w	r1, [r0, #424]	; 0x1a8
 80062c4:	404c      	eors	r4, r1
 80062c6:	ea8e 75f4 	eor.w	r5, lr, r4, ror #31
 80062ca:	f8c0 5510 	str.w	r5, [r0, #1296]	; 0x510
 80062ce:	f8d0 524c 	ldr.w	r5, [r0, #588]	; 0x24c
 80062d2:	f8d0 1224 	ldr.w	r1, [r0, #548]	; 0x224
 80062d6:	f8d0 21f8 	ldr.w	r2, [r0, #504]	; 0x1f8
 80062da:	f8d0 c1d4 	ldr.w	ip, [r0, #468]	; 0x1d4
 80062de:	404d      	eors	r5, r1
 80062e0:	4055      	eors	r5, r2
 80062e2:	ea95 050c 	eors.w	r5, r5, ip
 80062e6:	f8d0 11ac 	ldr.w	r1, [r0, #428]	; 0x1ac
 80062ea:	404d      	eors	r5, r1
 80062ec:	ea97 0205 	eors.w	r2, r7, r5
 80062f0:	f8c0 2514 	str.w	r2, [r0, #1300]	; 0x514
 80062f4:	ea85 7cf6 	eor.w	ip, r5, r6, ror #31
 80062f8:	f8c0 c520 	str.w	ip, [r0, #1312]	; 0x520
 80062fc:	ea94 0e03 	eors.w	lr, r4, r3
 8006300:	f8c0 e524 	str.w	lr, [r0, #1316]	; 0x524
 8006304:	f8d0 313c 	ldr.w	r3, [r0, #316]	; 0x13c
 8006308:	f8d0 1110 	ldr.w	r1, [r0, #272]	; 0x110
 800630c:	f8d0 20ec 	ldr.w	r2, [r0, #236]	; 0xec
 8006310:	f8d0 c18c 	ldr.w	ip, [r0, #396]	; 0x18c
 8006314:	404b      	eors	r3, r1
 8006316:	4053      	eors	r3, r2
 8006318:	ea93 030c 	eors.w	r3, r3, ip
 800631c:	f8d0 1164 	ldr.w	r1, [r0, #356]	; 0x164
 8006320:	404b      	eors	r3, r1
 8006322:	f8d0 7148 	ldr.w	r7, [r0, #328]	; 0x148
 8006326:	f8d0 1120 	ldr.w	r1, [r0, #288]	; 0x120
 800632a:	f8d0 20f8 	ldr.w	r2, [r0, #248]	; 0xf8
 800632e:	f8d0 c0d0 	ldr.w	ip, [r0, #208]	; 0xd0
 8006332:	404f      	eors	r7, r1
 8006334:	4057      	eors	r7, r2
 8006336:	ea97 070c 	eors.w	r7, r7, ip
 800633a:	f8d0 1174 	ldr.w	r1, [r0, #372]	; 0x174
 800633e:	404f      	eors	r7, r1
 8006340:	ea83 76f7 	eor.w	r6, r3, r7, ror #31
 8006344:	f8c0 64d8 	str.w	r6, [r0, #1240]	; 0x4d8
 8006348:	f8d0 6138 	ldr.w	r6, [r0, #312]	; 0x138
 800634c:	f8d0 1114 	ldr.w	r1, [r0, #276]	; 0x114
 8006350:	f8d0 20e8 	ldr.w	r2, [r0, #232]	; 0xe8
 8006354:	f8d0 c188 	ldr.w	ip, [r0, #392]	; 0x188
 8006358:	404e      	eors	r6, r1
 800635a:	4056      	eors	r6, r2
 800635c:	ea96 060c 	eors.w	r6, r6, ip
 8006360:	f8d0 1160 	ldr.w	r1, [r0, #352]	; 0x160
 8006364:	404e      	eors	r6, r1
 8006366:	f8d0 e14c 	ldr.w	lr, [r0, #332]	; 0x14c
 800636a:	f8d0 1124 	ldr.w	r1, [r0, #292]	; 0x124
 800636e:	f8d0 20fc 	ldr.w	r2, [r0, #252]	; 0xfc
 8006372:	f8d0 c0d4 	ldr.w	ip, [r0, #212]	; 0xd4
 8006376:	ea9e 0e01 	eors.w	lr, lr, r1
 800637a:	ea9e 0e02 	eors.w	lr, lr, r2
 800637e:	ea9e 0e0c 	eors.w	lr, lr, ip
 8006382:	f8d0 1170 	ldr.w	r1, [r0, #368]	; 0x170
 8006386:	ea9e 0e01 	eors.w	lr, lr, r1
 800638a:	ea96 080e 	eors.w	r8, r6, lr
 800638e:	f8c0 84dc 	str.w	r8, [r0, #1244]	; 0x4dc
 8006392:	f8d0 5104 	ldr.w	r5, [r0, #260]	; 0x104
 8006396:	f8d0 10dc 	ldr.w	r1, [r0, #220]	; 0xdc
 800639a:	f8d0 217c 	ldr.w	r2, [r0, #380]	; 0x17c
 800639e:	f8d0 c150 	ldr.w	ip, [r0, #336]	; 0x150
 80063a2:	404d      	eors	r5, r1
 80063a4:	4055      	eors	r5, r2
 80063a6:	ea95 050c 	eors.w	r5, r5, ip
 80063aa:	f8d0 112c 	ldr.w	r1, [r0, #300]	; 0x12c
 80063ae:	404d      	eors	r5, r1
 80063b0:	ea85 79f6 	eor.w	r9, r5, r6, ror #31
 80063b4:	f8c0 94f0 	str.w	r9, [r0, #1264]	; 0x4f0
 80063b8:	f8d0 4100 	ldr.w	r4, [r0, #256]	; 0x100
 80063bc:	f8d0 10d8 	ldr.w	r1, [r0, #216]	; 0xd8
 80063c0:	f8d0 2178 	ldr.w	r2, [r0, #376]	; 0x178
 80063c4:	f8d0 c154 	ldr.w	ip, [r0, #340]	; 0x154
 80063c8:	404c      	eors	r4, r1
 80063ca:	4054      	eors	r4, r2
 80063cc:	ea94 040c 	eors.w	r4, r4, ip
 80063d0:	f8d0 1128 	ldr.w	r1, [r0, #296]	; 0x128
 80063d4:	404c      	eors	r4, r1
 80063d6:	4063      	eors	r3, r4
 80063d8:	f8c0 34f4 	str.w	r3, [r0, #1268]	; 0x4f4
 80063dc:	f8d0 30c8 	ldr.w	r3, [r0, #200]	; 0xc8
 80063e0:	f8d0 116c 	ldr.w	r1, [r0, #364]	; 0x16c
 80063e4:	f8d0 2144 	ldr.w	r2, [r0, #324]	; 0x144
 80063e8:	f8d0 c11c 	ldr.w	ip, [r0, #284]	; 0x11c
 80063ec:	404b      	eors	r3, r1
 80063ee:	4053      	eors	r3, r2
 80063f0:	ea93 030c 	eors.w	r3, r3, ip
 80063f4:	f8d0 10f4 	ldr.w	r1, [r0, #244]	; 0xf4
 80063f8:	404b      	eors	r3, r1
 80063fa:	ea83 7af4 	eor.w	sl, r3, r4, ror #31
 80063fe:	f8c0 a4e0 	str.w	sl, [r0, #1248]	; 0x4e0
 8006402:	f8d0 60cc 	ldr.w	r6, [r0, #204]	; 0xcc
 8006406:	f8d0 1168 	ldr.w	r1, [r0, #360]	; 0x168
 800640a:	f8d0 2140 	ldr.w	r2, [r0, #320]	; 0x140
 800640e:	f8d0 c118 	ldr.w	ip, [r0, #280]	; 0x118
 8006412:	404e      	eors	r6, r1
 8006414:	4056      	eors	r6, r2
 8006416:	ea96 060c 	eors.w	r6, r6, ip
 800641a:	f8d0 10f0 	ldr.w	r1, [r0, #240]	; 0xf0
 800641e:	404e      	eors	r6, r1
 8006420:	ea96 0b05 	eors.w	fp, r6, r5
 8006424:	f8c0 b4e4 	str.w	fp, [r0, #1252]	; 0x4e4
 8006428:	f8d0 4180 	ldr.w	r4, [r0, #384]	; 0x180
 800642c:	f8d0 1158 	ldr.w	r1, [r0, #344]	; 0x158
 8006430:	f8d0 2134 	ldr.w	r2, [r0, #308]	; 0x134
 8006434:	f8d0 c108 	ldr.w	ip, [r0, #264]	; 0x108
 8006438:	404c      	eors	r4, r1
 800643a:	4054      	eors	r4, r2
 800643c:	ea94 040c 	eors.w	r4, r4, ip
 8006440:	f8d0 10e0 	ldr.w	r1, [r0, #224]	; 0xe0
 8006444:	404c      	eors	r4, r1
 8006446:	ea8e 75f4 	eor.w	r5, lr, r4, ror #31
 800644a:	f8c0 54e8 	str.w	r5, [r0, #1256]	; 0x4e8
 800644e:	f8d0 5184 	ldr.w	r5, [r0, #388]	; 0x184
 8006452:	f8d0 115c 	ldr.w	r1, [r0, #348]	; 0x15c
 8006456:	f8d0 2130 	ldr.w	r2, [r0, #304]	; 0x130
 800645a:	f8d0 c10c 	ldr.w	ip, [r0, #268]	; 0x10c
 800645e:	404d      	eors	r5, r1
 8006460:	4055      	eors	r5, r2
 8006462:	ea95 050c 	eors.w	r5, r5, ip
 8006466:	f8d0 10e4 	ldr.w	r1, [r0, #228]	; 0xe4
 800646a:	404d      	eors	r5, r1
 800646c:	ea97 0205 	eors.w	r2, r7, r5
 8006470:	f8c0 24ec 	str.w	r2, [r0, #1260]	; 0x4ec
 8006474:	ea85 7cf6 	eor.w	ip, r5, r6, ror #31
 8006478:	f8c0 c4f8 	str.w	ip, [r0, #1272]	; 0x4f8
 800647c:	ea94 0e03 	eors.w	lr, r4, r3
 8006480:	f8c0 e4fc 	str.w	lr, [r0, #1276]	; 0x4fc
 8006484:	e92d 5f04 	stmdb	sp!, {r2, r8, r9, sl, fp, ip, lr}
 8006488:	f8d0 5140 	ldr.w	r5, [r0, #320]	; 0x140
 800648c:	f8d0 60d0 	ldr.w	r6, [r0, #208]	; 0xd0
 8006490:	f8d0 7128 	ldr.w	r7, [r0, #296]	; 0x128
 8006494:	f8d0 3184 	ldr.w	r3, [r0, #388]	; 0x184
 8006498:	f8d0 4110 	ldr.w	r4, [r0, #272]	; 0x110
 800649c:	ea95 0508 	eors.w	r5, r5, r8
 80064a0:	ea96 060b 	eors.w	r6, r6, fp
 80064a4:	4057      	eors	r7, r2
 80064a6:	ea93 0309 	eors.w	r3, r3, r9
 80064aa:	ea94 040c 	eors.w	r4, r4, ip
 80064ae:	ea5f 75b5 	movs.w	r5, r5, ror #30
 80064b2:	ea5f 2676 	movs.w	r6, r6, ror #9
 80064b6:	ea5f 0777 	movs.w	r7, r7, ror #1
 80064ba:	ea5f 43b3 	movs.w	r3, r3, ror #18
 80064be:	ea5f 54b4 	movs.w	r4, r4, ror #22
 80064c2:	f8c0 5140 	str.w	r5, [r0, #320]	; 0x140
 80064c6:	f8c0 60d0 	str.w	r6, [r0, #208]	; 0xd0
 80064ca:	f8c0 7128 	str.w	r7, [r0, #296]	; 0x128
 80064ce:	f8c0 3184 	str.w	r3, [r0, #388]	; 0x184
 80064d2:	f8c0 4110 	str.w	r4, [r0, #272]	; 0x110
 80064d6:	f8d0 a208 	ldr.w	sl, [r0, #520]	; 0x208
 80064da:	f8d0 1504 	ldr.w	r1, [r0, #1284]	; 0x504
 80064de:	f8d0 b198 	ldr.w	fp, [r0, #408]	; 0x198
 80064e2:	f8d0 250c 	ldr.w	r2, [r0, #1292]	; 0x50c
 80064e6:	f8d0 c1f0 	ldr.w	ip, [r0, #496]	; 0x1f0
 80064ea:	f8d0 e514 	ldr.w	lr, [r0, #1300]	; 0x514
 80064ee:	ea9a 0a01 	eors.w	sl, sl, r1
 80064f2:	ea9b 0b02 	eors.w	fp, fp, r2
 80064f6:	ea9c 0c0e 	eors.w	ip, ip, lr
 80064fa:	f8d0 824c 	ldr.w	r8, [r0, #588]	; 0x24c
 80064fe:	f8d0 1518 	ldr.w	r1, [r0, #1304]	; 0x518
 8006502:	f8d0 91d8 	ldr.w	r9, [r0, #472]	; 0x1d8
 8006506:	f8d0 e520 	ldr.w	lr, [r0, #1312]	; 0x520
 800650a:	ea98 0801 	eors.w	r8, r8, r1
 800650e:	ea99 090e 	eors.w	r9, r9, lr
 8006512:	ea5f 7aba 	movs.w	sl, sl, ror #30
 8006516:	ea5f 2b7b 	movs.w	fp, fp, ror #9
 800651a:	ea5f 0c7c 	movs.w	ip, ip, ror #1
 800651e:	ea5f 48b8 	movs.w	r8, r8, ror #18
 8006522:	ea5f 59b9 	movs.w	r9, r9, ror #22
 8006526:	ea93 0105 	eors.w	r1, r3, r5
 800652a:	ea04 0205 	and.w	r2, r4, r5
 800652e:	4051      	eors	r1, r2
 8006530:	ea04 020a 	and.w	r2, r4, sl
 8006534:	4051      	eors	r1, r2
 8006536:	ea09 0205 	and.w	r2, r9, r5
 800653a:	4051      	eors	r1, r2
 800653c:	f8c0 12d0 	str.w	r1, [r0, #720]	; 0x2d0
 8006540:	ea94 0106 	eors.w	r1, r4, r6
 8006544:	ea05 0206 	and.w	r2, r5, r6
 8006548:	4051      	eors	r1, r2
 800654a:	ea05 020b 	and.w	r2, r5, fp
 800654e:	4051      	eors	r1, r2
 8006550:	ea0a 0206 	and.w	r2, sl, r6
 8006554:	4051      	eors	r1, r2
 8006556:	f8c0 1260 	str.w	r1, [r0, #608]	; 0x260
 800655a:	ea95 0107 	eors.w	r1, r5, r7
 800655e:	ea06 0207 	and.w	r2, r6, r7
 8006562:	4051      	eors	r1, r2
 8006564:	ea06 020c 	and.w	r2, r6, ip
 8006568:	4051      	eors	r1, r2
 800656a:	ea0b 0207 	and.w	r2, fp, r7
 800656e:	4051      	eors	r1, r2
 8006570:	f8c0 12b8 	str.w	r1, [r0, #696]	; 0x2b8
 8006574:	ea96 0103 	eors.w	r1, r6, r3
 8006578:	ea07 0203 	and.w	r2, r7, r3
 800657c:	4051      	eors	r1, r2
 800657e:	ea07 0208 	and.w	r2, r7, r8
 8006582:	4051      	eors	r1, r2
 8006584:	ea0c 0203 	and.w	r2, ip, r3
 8006588:	4051      	eors	r1, r2
 800658a:	f8c0 1314 	str.w	r1, [r0, #788]	; 0x314
 800658e:	ea97 0104 	eors.w	r1, r7, r4
 8006592:	ea03 0204 	and.w	r2, r3, r4
 8006596:	4051      	eors	r1, r2
 8006598:	ea03 0209 	and.w	r2, r3, r9
 800659c:	4051      	eors	r1, r2
 800659e:	ea08 0204 	and.w	r2, r8, r4
 80065a2:	4051      	eors	r1, r2
 80065a4:	f8c0 12a0 	str.w	r1, [r0, #672]	; 0x2a0
 80065a8:	6f85      	ldr	r5, [r0, #120]	; 0x78
 80065aa:	f8d0 14b4 	ldr.w	r1, [r0, #1204]	; 0x4b4
 80065ae:	6886      	ldr	r6, [r0, #8]
 80065b0:	f8d0 24bc 	ldr.w	r2, [r0, #1212]	; 0x4bc
 80065b4:	6e07      	ldr	r7, [r0, #96]	; 0x60
 80065b6:	f8d0 e4c4 	ldr.w	lr, [r0, #1220]	; 0x4c4
 80065ba:	404d      	eors	r5, r1
 80065bc:	4056      	eors	r6, r2
 80065be:	ea97 070e 	eors.w	r7, r7, lr
 80065c2:	f8d0 30bc 	ldr.w	r3, [r0, #188]	; 0xbc
 80065c6:	f8d0 14c8 	ldr.w	r1, [r0, #1224]	; 0x4c8
 80065ca:	6c84      	ldr	r4, [r0, #72]	; 0x48
 80065cc:	f8d0 e4d0 	ldr.w	lr, [r0, #1232]	; 0x4d0
 80065d0:	404b      	eors	r3, r1
 80065d2:	ea94 040e 	eors.w	r4, r4, lr
 80065d6:	ea5f 75b5 	movs.w	r5, r5, ror #30
 80065da:	ea5f 2676 	movs.w	r6, r6, ror #9
 80065de:	ea5f 0777 	movs.w	r7, r7, ror #1
 80065e2:	ea5f 43b3 	movs.w	r3, r3, ror #18
 80065e6:	ea5f 54b4 	movs.w	r4, r4, ror #22
 80065ea:	ea98 010a 	eors.w	r1, r8, sl
 80065ee:	ea09 020a 	and.w	r2, r9, sl
 80065f2:	4051      	eors	r1, r2
 80065f4:	ea09 0205 	and.w	r2, r9, r5
 80065f8:	4051      	eors	r1, r2
 80065fa:	ea04 020a 	and.w	r2, r4, sl
 80065fe:	4051      	eors	r1, r2
 8006600:	f8c0 1398 	str.w	r1, [r0, #920]	; 0x398
 8006604:	ea99 010b 	eors.w	r1, r9, fp
 8006608:	ea0a 020b 	and.w	r2, sl, fp
 800660c:	4051      	eors	r1, r2
 800660e:	ea0a 0206 	and.w	r2, sl, r6
 8006612:	4051      	eors	r1, r2
 8006614:	ea05 020b 	and.w	r2, r5, fp
 8006618:	4051      	eors	r1, r2
 800661a:	f8c0 1328 	str.w	r1, [r0, #808]	; 0x328
 800661e:	ea9a 010c 	eors.w	r1, sl, ip
 8006622:	ea0b 020c 	and.w	r2, fp, ip
 8006626:	4051      	eors	r1, r2
 8006628:	ea0b 0207 	and.w	r2, fp, r7
 800662c:	4051      	eors	r1, r2
 800662e:	ea06 020c 	and.w	r2, r6, ip
 8006632:	4051      	eors	r1, r2
 8006634:	f8c0 1380 	str.w	r1, [r0, #896]	; 0x380
 8006638:	ea9b 0108 	eors.w	r1, fp, r8
 800663c:	ea0c 0208 	and.w	r2, ip, r8
 8006640:	4051      	eors	r1, r2
 8006642:	ea0c 0203 	and.w	r2, ip, r3
 8006646:	4051      	eors	r1, r2
 8006648:	ea07 0208 	and.w	r2, r7, r8
 800664c:	4051      	eors	r1, r2
 800664e:	f8c0 13dc 	str.w	r1, [r0, #988]	; 0x3dc
 8006652:	ea9c 0109 	eors.w	r1, ip, r9
 8006656:	ea08 0209 	and.w	r2, r8, r9
 800665a:	4051      	eors	r1, r2
 800665c:	ea08 0204 	and.w	r2, r8, r4
 8006660:	4051      	eors	r1, r2
 8006662:	ea03 0209 	and.w	r2, r3, r9
 8006666:	4051      	eors	r1, r2
 8006668:	f8c0 1368 	str.w	r1, [r0, #872]	; 0x368
 800666c:	f8d0 a140 	ldr.w	sl, [r0, #320]	; 0x140
 8006670:	f8d0 b0d0 	ldr.w	fp, [r0, #208]	; 0xd0
 8006674:	f8d0 c128 	ldr.w	ip, [r0, #296]	; 0x128
 8006678:	f8d0 8184 	ldr.w	r8, [r0, #388]	; 0x184
 800667c:	f8d0 9110 	ldr.w	r9, [r0, #272]	; 0x110
 8006680:	ea93 0105 	eors.w	r1, r3, r5
 8006684:	ea04 0205 	and.w	r2, r4, r5
 8006688:	4051      	eors	r1, r2
 800668a:	ea04 020a 	and.w	r2, r4, sl
 800668e:	4051      	eors	r1, r2
 8006690:	ea09 0205 	and.w	r2, r9, r5
 8006694:	4051      	eors	r1, r2
 8006696:	f8c0 1460 	str.w	r1, [r0, #1120]	; 0x460
 800669a:	ea94 0106 	eors.w	r1, r4, r6
 800669e:	ea05 0206 	and.w	r2, r5, r6
 80066a2:	4051      	eors	r1, r2
 80066a4:	ea05 020b 	and.w	r2, r5, fp
 80066a8:	4051      	eors	r1, r2
 80066aa:	ea0a 0206 	and.w	r2, sl, r6
 80066ae:	4051      	eors	r1, r2
 80066b0:	f8c0 13f0 	str.w	r1, [r0, #1008]	; 0x3f0
 80066b4:	ea95 0107 	eors.w	r1, r5, r7
 80066b8:	ea06 0207 	and.w	r2, r6, r7
 80066bc:	4051      	eors	r1, r2
 80066be:	ea06 020c 	and.w	r2, r6, ip
 80066c2:	4051      	eors	r1, r2
 80066c4:	ea0b 0207 	and.w	r2, fp, r7
 80066c8:	4051      	eors	r1, r2
 80066ca:	f8c0 1448 	str.w	r1, [r0, #1096]	; 0x448
 80066ce:	ea96 0103 	eors.w	r1, r6, r3
 80066d2:	ea07 0203 	and.w	r2, r7, r3
 80066d6:	4051      	eors	r1, r2
 80066d8:	ea07 0208 	and.w	r2, r7, r8
 80066dc:	4051      	eors	r1, r2
 80066de:	ea0c 0203 	and.w	r2, ip, r3
 80066e2:	4051      	eors	r1, r2
 80066e4:	f8c0 14a4 	str.w	r1, [r0, #1188]	; 0x4a4
 80066e8:	ea97 0104 	eors.w	r1, r7, r4
 80066ec:	ea03 0204 	and.w	r2, r3, r4
 80066f0:	4051      	eors	r1, r2
 80066f2:	ea03 0209 	and.w	r2, r3, r9
 80066f6:	4051      	eors	r1, r2
 80066f8:	ea08 0204 	and.w	r2, r8, r4
 80066fc:	4051      	eors	r1, r2
 80066fe:	f8c0 1430 	str.w	r1, [r0, #1072]	; 0x430
 8006702:	e8bd 5f04 	ldmia.w	sp!, {r2, r8, r9, sl, fp, ip, lr}
 8006706:	e92d 5f04 	stmdb	sp!, {r2, r8, r9, sl, fp, ip, lr}
 800670a:	f8d0 70f0 	ldr.w	r7, [r0, #240]	; 0xf0
 800670e:	f8d0 314c 	ldr.w	r3, [r0, #332]	; 0x14c
 8006712:	f8d0 40d8 	ldr.w	r4, [r0, #216]	; 0xd8
 8006716:	f8d0 5130 	ldr.w	r5, [r0, #304]	; 0x130
 800671a:	f8d0 6188 	ldr.w	r6, [r0, #392]	; 0x188
 800671e:	ea97 0708 	eors.w	r7, r7, r8
 8006722:	ea93 030a 	eors.w	r3, r3, sl
 8006726:	4054      	eors	r4, r2
 8006728:	ea95 0509 	eors.w	r5, r5, r9
 800672c:	ea96 060e 	eors.w	r6, r6, lr
 8006730:	ea5f 57f7 	movs.w	r7, r7, ror #23
 8006734:	ea5f 7474 	movs.w	r4, r4, ror #29
 8006738:	ea5f 5535 	movs.w	r5, r5, ror #20
 800673c:	ea5f 7636 	movs.w	r6, r6, ror #28
 8006740:	f8c0 70f0 	str.w	r7, [r0, #240]	; 0xf0
 8006744:	f8c0 314c 	str.w	r3, [r0, #332]	; 0x14c
 8006748:	f8c0 40d8 	str.w	r4, [r0, #216]	; 0xd8
 800674c:	f8c0 5130 	str.w	r5, [r0, #304]	; 0x130
 8006750:	f8c0 6188 	str.w	r6, [r0, #392]	; 0x188
 8006754:	f8d0 c1b8 	ldr.w	ip, [r0, #440]	; 0x1b8
 8006758:	f8d0 1504 	ldr.w	r1, [r0, #1284]	; 0x504
 800675c:	f8d0 8214 	ldr.w	r8, [r0, #532]	; 0x214
 8006760:	f8d0 2508 	ldr.w	r2, [r0, #1288]	; 0x508
 8006764:	f8d0 91a0 	ldr.w	r9, [r0, #416]	; 0x1a0
 8006768:	f8d0 e514 	ldr.w	lr, [r0, #1300]	; 0x514
 800676c:	ea9c 0c01 	eors.w	ip, ip, r1
 8006770:	ea98 0802 	eors.w	r8, r8, r2
 8006774:	ea99 090e 	eors.w	r9, r9, lr
 8006778:	f8d0 a1f8 	ldr.w	sl, [r0, #504]	; 0x1f8
 800677c:	f8d0 1518 	ldr.w	r1, [r0, #1304]	; 0x518
 8006780:	f8d0 b250 	ldr.w	fp, [r0, #592]	; 0x250
 8006784:	f8d0 e524 	ldr.w	lr, [r0, #1316]	; 0x524
 8006788:	ea9a 0a01 	eors.w	sl, sl, r1
 800678c:	ea9b 0b0e 	eors.w	fp, fp, lr
 8006790:	ea5f 5cfc 	movs.w	ip, ip, ror #23
 8006794:	ea5f 7979 	movs.w	r9, r9, ror #29
 8006798:	ea5f 5a3a 	movs.w	sl, sl, ror #20
 800679c:	ea5f 7b3b 	movs.w	fp, fp, ror #28
 80067a0:	ea93 0105 	eors.w	r1, r3, r5
 80067a4:	ea04 0205 	and.w	r2, r4, r5
 80067a8:	4051      	eors	r1, r2
 80067aa:	ea04 020a 	and.w	r2, r4, sl
 80067ae:	4051      	eors	r1, r2
 80067b0:	ea09 0205 	and.w	r2, r9, r5
 80067b4:	4051      	eors	r1, r2
 80067b6:	f8c0 1280 	str.w	r1, [r0, #640]	; 0x280
 80067ba:	ea94 0106 	eors.w	r1, r4, r6
 80067be:	ea05 0206 	and.w	r2, r5, r6
 80067c2:	4051      	eors	r1, r2
 80067c4:	ea05 020b 	and.w	r2, r5, fp
 80067c8:	4051      	eors	r1, r2
 80067ca:	ea0a 0206 	and.w	r2, sl, r6
 80067ce:	4051      	eors	r1, r2
 80067d0:	f8c0 12dc 	str.w	r1, [r0, #732]	; 0x2dc
 80067d4:	ea95 0107 	eors.w	r1, r5, r7
 80067d8:	ea06 0207 	and.w	r2, r6, r7
 80067dc:	4051      	eors	r1, r2
 80067de:	ea06 020c 	and.w	r2, r6, ip
 80067e2:	4051      	eors	r1, r2
 80067e4:	ea0b 0207 	and.w	r2, fp, r7
 80067e8:	4051      	eors	r1, r2
 80067ea:	f8c0 1268 	str.w	r1, [r0, #616]	; 0x268
 80067ee:	ea96 0103 	eors.w	r1, r6, r3
 80067f2:	ea07 0203 	and.w	r2, r7, r3
 80067f6:	4051      	eors	r1, r2
 80067f8:	ea07 0208 	and.w	r2, r7, r8
 80067fc:	4051      	eors	r1, r2
 80067fe:	ea0c 0203 	and.w	r2, ip, r3
 8006802:	4051      	eors	r1, r2
 8006804:	f8c0 12c0 	str.w	r1, [r0, #704]	; 0x2c0
 8006808:	ea97 0104 	eors.w	r1, r7, r4
 800680c:	ea03 0204 	and.w	r2, r3, r4
 8006810:	4051      	eors	r1, r2
 8006812:	ea03 0209 	and.w	r2, r3, r9
 8006816:	4051      	eors	r1, r2
 8006818:	ea08 0204 	and.w	r2, r8, r4
 800681c:	4051      	eors	r1, r2
 800681e:	f8c0 1318 	str.w	r1, [r0, #792]	; 0x318
 8006822:	6a87      	ldr	r7, [r0, #40]	; 0x28
 8006824:	f8d0 14b4 	ldr.w	r1, [r0, #1204]	; 0x4b4
 8006828:	f8d0 3084 	ldr.w	r3, [r0, #132]	; 0x84
 800682c:	f8d0 24b8 	ldr.w	r2, [r0, #1208]	; 0x4b8
 8006830:	6904      	ldr	r4, [r0, #16]
 8006832:	f8d0 e4c4 	ldr.w	lr, [r0, #1220]	; 0x4c4
 8006836:	404f      	eors	r7, r1
 8006838:	4053      	eors	r3, r2
 800683a:	ea94 040e 	eors.w	r4, r4, lr
 800683e:	6e85      	ldr	r5, [r0, #104]	; 0x68
 8006840:	f8d0 14c8 	ldr.w	r1, [r0, #1224]	; 0x4c8
 8006844:	f8d0 60c0 	ldr.w	r6, [r0, #192]	; 0xc0
 8006848:	f8d0 e4d4 	ldr.w	lr, [r0, #1236]	; 0x4d4
 800684c:	404d      	eors	r5, r1
 800684e:	ea96 060e 	eors.w	r6, r6, lr
 8006852:	ea5f 57f7 	movs.w	r7, r7, ror #23
 8006856:	ea5f 7474 	movs.w	r4, r4, ror #29
 800685a:	ea5f 5535 	movs.w	r5, r5, ror #20
 800685e:	ea5f 7636 	movs.w	r6, r6, ror #28
 8006862:	ea98 010a 	eors.w	r1, r8, sl
 8006866:	ea09 020a 	and.w	r2, r9, sl
 800686a:	4051      	eors	r1, r2
 800686c:	ea09 0205 	and.w	r2, r9, r5
 8006870:	4051      	eors	r1, r2
 8006872:	ea04 020a 	and.w	r2, r4, sl
 8006876:	4051      	eors	r1, r2
 8006878:	f8c0 1348 	str.w	r1, [r0, #840]	; 0x348
 800687c:	ea99 010b 	eors.w	r1, r9, fp
 8006880:	ea0a 020b 	and.w	r2, sl, fp
 8006884:	4051      	eors	r1, r2
 8006886:	ea0a 0206 	and.w	r2, sl, r6
 800688a:	4051      	eors	r1, r2
 800688c:	ea05 020b 	and.w	r2, r5, fp
 8006890:	4051      	eors	r1, r2
 8006892:	f8c0 13a4 	str.w	r1, [r0, #932]	; 0x3a4
 8006896:	ea9a 010c 	eors.w	r1, sl, ip
 800689a:	ea0b 020c 	and.w	r2, fp, ip
 800689e:	4051      	eors	r1, r2
 80068a0:	ea0b 0207 	and.w	r2, fp, r7
 80068a4:	4051      	eors	r1, r2
 80068a6:	ea06 020c 	and.w	r2, r6, ip
 80068aa:	4051      	eors	r1, r2
 80068ac:	f8c0 1330 	str.w	r1, [r0, #816]	; 0x330
 80068b0:	ea9b 0108 	eors.w	r1, fp, r8
 80068b4:	ea0c 0208 	and.w	r2, ip, r8
 80068b8:	4051      	eors	r1, r2
 80068ba:	ea0c 0203 	and.w	r2, ip, r3
 80068be:	4051      	eors	r1, r2
 80068c0:	ea07 0208 	and.w	r2, r7, r8
 80068c4:	4051      	eors	r1, r2
 80068c6:	f8c0 1388 	str.w	r1, [r0, #904]	; 0x388
 80068ca:	ea9c 0109 	eors.w	r1, ip, r9
 80068ce:	ea08 0209 	and.w	r2, r8, r9
 80068d2:	4051      	eors	r1, r2
 80068d4:	ea08 0204 	and.w	r2, r8, r4
 80068d8:	4051      	eors	r1, r2
 80068da:	ea03 0209 	and.w	r2, r3, r9
 80068de:	4051      	eors	r1, r2
 80068e0:	f8c0 13e0 	str.w	r1, [r0, #992]	; 0x3e0
 80068e4:	f8d0 c0f0 	ldr.w	ip, [r0, #240]	; 0xf0
 80068e8:	f8d0 814c 	ldr.w	r8, [r0, #332]	; 0x14c
 80068ec:	f8d0 90d8 	ldr.w	r9, [r0, #216]	; 0xd8
 80068f0:	f8d0 a130 	ldr.w	sl, [r0, #304]	; 0x130
 80068f4:	f8d0 b188 	ldr.w	fp, [r0, #392]	; 0x188
 80068f8:	ea93 0105 	eors.w	r1, r3, r5
 80068fc:	ea04 0205 	and.w	r2, r4, r5
 8006900:	4051      	eors	r1, r2
 8006902:	ea04 020a 	and.w	r2, r4, sl
 8006906:	4051      	eors	r1, r2
 8006908:	ea09 0205 	and.w	r2, r9, r5
 800690c:	4051      	eors	r1, r2
 800690e:	f8c0 1410 	str.w	r1, [r0, #1040]	; 0x410
 8006912:	ea94 0106 	eors.w	r1, r4, r6
 8006916:	ea05 0206 	and.w	r2, r5, r6
 800691a:	4051      	eors	r1, r2
 800691c:	ea05 020b 	and.w	r2, r5, fp
 8006920:	4051      	eors	r1, r2
 8006922:	ea0a 0206 	and.w	r2, sl, r6
 8006926:	4051      	eors	r1, r2
 8006928:	f8c0 146c 	str.w	r1, [r0, #1132]	; 0x46c
 800692c:	ea95 0107 	eors.w	r1, r5, r7
 8006930:	ea06 0207 	and.w	r2, r6, r7
 8006934:	4051      	eors	r1, r2
 8006936:	ea06 020c 	and.w	r2, r6, ip
 800693a:	4051      	eors	r1, r2
 800693c:	ea0b 0207 	and.w	r2, fp, r7
 8006940:	4051      	eors	r1, r2
 8006942:	f8c0 13f8 	str.w	r1, [r0, #1016]	; 0x3f8
 8006946:	ea96 0103 	eors.w	r1, r6, r3
 800694a:	ea07 0203 	and.w	r2, r7, r3
 800694e:	4051      	eors	r1, r2
 8006950:	ea07 0208 	and.w	r2, r7, r8
 8006954:	4051      	eors	r1, r2
 8006956:	ea0c 0203 	and.w	r2, ip, r3
 800695a:	4051      	eors	r1, r2
 800695c:	f8c0 1450 	str.w	r1, [r0, #1104]	; 0x450
 8006960:	ea97 0104 	eors.w	r1, r7, r4
 8006964:	ea03 0204 	and.w	r2, r3, r4
 8006968:	4051      	eors	r1, r2
 800696a:	ea03 0209 	and.w	r2, r3, r9
 800696e:	4051      	eors	r1, r2
 8006970:	ea08 0204 	and.w	r2, r8, r4
 8006974:	4051      	eors	r1, r2
 8006976:	f8c0 14a8 	str.w	r1, [r0, #1192]	; 0x4a8
 800697a:	e8bd 5f04 	ldmia.w	sp!, {r2, r8, r9, sl, fp, ip, lr}
 800697e:	f8d0 84d8 	ldr.w	r8, [r0, #1240]	; 0x4d8
 8006982:	e92d 5f04 	stmdb	sp!, {r2, r8, r9, sl, fp, ip, lr}
 8006986:	f8d0 416c 	ldr.w	r4, [r0, #364]	; 0x16c
 800698a:	f8d0 50fc 	ldr.w	r5, [r0, #252]	; 0xfc
 800698e:	f8d0 6154 	ldr.w	r6, [r0, #340]	; 0x154
 8006992:	f8d0 70e4 	ldr.w	r7, [r0, #228]	; 0xe4
 8006996:	f8d0 3138 	ldr.w	r3, [r0, #312]	; 0x138
 800699a:	ea94 0408 	eors.w	r4, r4, r8
 800699e:	ea95 050a 	eors.w	r5, r5, sl
 80069a2:	4056      	eors	r6, r2
 80069a4:	ea97 0709 	eors.w	r7, r7, r9
 80069a8:	ea93 030e 	eors.w	r3, r3, lr
 80069ac:	ea5f 34b4 	movs.w	r4, r4, ror #14
 80069b0:	ea5f 65f5 	movs.w	r5, r5, ror #27
 80069b4:	ea5f 6636 	movs.w	r6, r6, ror #24
 80069b8:	ea5f 1737 	movs.w	r7, r7, ror #4
 80069bc:	ea5f 43b3 	movs.w	r3, r3, ror #18
 80069c0:	f8c0 416c 	str.w	r4, [r0, #364]	; 0x16c
 80069c4:	f8c0 50fc 	str.w	r5, [r0, #252]	; 0xfc
 80069c8:	f8c0 6154 	str.w	r6, [r0, #340]	; 0x154
 80069cc:	f8c0 70e4 	str.w	r7, [r0, #228]	; 0xe4
 80069d0:	f8c0 3138 	str.w	r3, [r0, #312]	; 0x138
 80069d4:	f8d0 9234 	ldr.w	r9, [r0, #564]	; 0x234
 80069d8:	f8d0 1500 	ldr.w	r1, [r0, #1280]	; 0x500
 80069dc:	f8d0 a1c4 	ldr.w	sl, [r0, #452]	; 0x1c4
 80069e0:	f8d0 2508 	ldr.w	r2, [r0, #1288]	; 0x508
 80069e4:	f8d0 b21c 	ldr.w	fp, [r0, #540]	; 0x21c
 80069e8:	f8d0 e514 	ldr.w	lr, [r0, #1300]	; 0x514
 80069ec:	ea99 0901 	eors.w	r9, r9, r1
 80069f0:	ea9a 0a02 	eors.w	sl, sl, r2
 80069f4:	ea9b 0b0e 	eors.w	fp, fp, lr
 80069f8:	f8d0 c1ac 	ldr.w	ip, [r0, #428]	; 0x1ac
 80069fc:	f8d0 1518 	ldr.w	r1, [r0, #1304]	; 0x518
 8006a00:	f8d0 8200 	ldr.w	r8, [r0, #512]	; 0x200
 8006a04:	f8d0 e524 	ldr.w	lr, [r0, #1316]	; 0x524
 8006a08:	ea9c 0c01 	eors.w	ip, ip, r1
 8006a0c:	ea98 080e 	eors.w	r8, r8, lr
 8006a10:	ea5f 39b9 	movs.w	r9, r9, ror #14
 8006a14:	ea5f 6afa 	movs.w	sl, sl, ror #27
 8006a18:	ea5f 6b3b 	movs.w	fp, fp, ror #24
 8006a1c:	ea5f 1c3c 	movs.w	ip, ip, ror #4
 8006a20:	ea5f 48b8 	movs.w	r8, r8, ror #18
 8006a24:	ea93 0105 	eors.w	r1, r3, r5
 8006a28:	ea04 0205 	and.w	r2, r4, r5
 8006a2c:	4051      	eors	r1, r2
 8006a2e:	ea04 020a 	and.w	r2, r4, sl
 8006a32:	4051      	eors	r1, r2
 8006a34:	ea09 0205 	and.w	r2, r9, r5
 8006a38:	4051      	eors	r1, r2
 8006a3a:	f8c0 12fc 	str.w	r1, [r0, #764]	; 0x2fc
 8006a3e:	ea94 0106 	eors.w	r1, r4, r6
 8006a42:	ea05 0206 	and.w	r2, r5, r6
 8006a46:	4051      	eors	r1, r2
 8006a48:	ea05 020b 	and.w	r2, r5, fp
 8006a4c:	4051      	eors	r1, r2
 8006a4e:	ea0a 0206 	and.w	r2, sl, r6
 8006a52:	4051      	eors	r1, r2
 8006a54:	f8c0 128c 	str.w	r1, [r0, #652]	; 0x28c
 8006a58:	ea95 0107 	eors.w	r1, r5, r7
 8006a5c:	ea06 0207 	and.w	r2, r6, r7
 8006a60:	4051      	eors	r1, r2
 8006a62:	ea06 020c 	and.w	r2, r6, ip
 8006a66:	4051      	eors	r1, r2
 8006a68:	ea0b 0207 	and.w	r2, fp, r7
 8006a6c:	4051      	eors	r1, r2
 8006a6e:	f8c0 12e4 	str.w	r1, [r0, #740]	; 0x2e4
 8006a72:	ea96 0103 	eors.w	r1, r6, r3
 8006a76:	ea07 0203 	and.w	r2, r7, r3
 8006a7a:	4051      	eors	r1, r2
 8006a7c:	ea07 0208 	and.w	r2, r7, r8
 8006a80:	4051      	eors	r1, r2
 8006a82:	ea0c 0203 	and.w	r2, ip, r3
 8006a86:	4051      	eors	r1, r2
 8006a88:	f8c0 1274 	str.w	r1, [r0, #628]	; 0x274
 8006a8c:	ea97 0104 	eors.w	r1, r7, r4
 8006a90:	ea03 0204 	and.w	r2, r3, r4
 8006a94:	4051      	eors	r1, r2
 8006a96:	ea03 0209 	and.w	r2, r3, r9
 8006a9a:	4051      	eors	r1, r2
 8006a9c:	ea08 0204 	and.w	r2, r8, r4
 8006aa0:	4051      	eors	r1, r2
 8006aa2:	f8c0 12c8 	str.w	r1, [r0, #712]	; 0x2c8
 8006aa6:	f8d0 40a4 	ldr.w	r4, [r0, #164]	; 0xa4
 8006aaa:	f8d0 14b0 	ldr.w	r1, [r0, #1200]	; 0x4b0
 8006aae:	6b45      	ldr	r5, [r0, #52]	; 0x34
 8006ab0:	f8d0 24b8 	ldr.w	r2, [r0, #1208]	; 0x4b8
 8006ab4:	f8d0 608c 	ldr.w	r6, [r0, #140]	; 0x8c
 8006ab8:	f8d0 e4c4 	ldr.w	lr, [r0, #1220]	; 0x4c4
 8006abc:	404c      	eors	r4, r1
 8006abe:	4055      	eors	r5, r2
 8006ac0:	ea96 060e 	eors.w	r6, r6, lr
 8006ac4:	69c7      	ldr	r7, [r0, #28]
 8006ac6:	f8d0 14c8 	ldr.w	r1, [r0, #1224]	; 0x4c8
 8006aca:	6f03      	ldr	r3, [r0, #112]	; 0x70
 8006acc:	f8d0 e4d4 	ldr.w	lr, [r0, #1236]	; 0x4d4
 8006ad0:	404f      	eors	r7, r1
 8006ad2:	ea93 030e 	eors.w	r3, r3, lr
 8006ad6:	ea5f 34b4 	movs.w	r4, r4, ror #14
 8006ada:	ea5f 65f5 	movs.w	r5, r5, ror #27
 8006ade:	ea5f 6636 	movs.w	r6, r6, ror #24
 8006ae2:	ea5f 1737 	movs.w	r7, r7, ror #4
 8006ae6:	ea5f 43b3 	movs.w	r3, r3, ror #18
 8006aea:	ea98 010a 	eors.w	r1, r8, sl
 8006aee:	ea09 020a 	and.w	r2, r9, sl
 8006af2:	4051      	eors	r1, r2
 8006af4:	ea09 0205 	and.w	r2, r9, r5
 8006af8:	4051      	eors	r1, r2
 8006afa:	ea04 020a 	and.w	r2, r4, sl
 8006afe:	4051      	eors	r1, r2
 8006b00:	f8c0 13c4 	str.w	r1, [r0, #964]	; 0x3c4
 8006b04:	ea99 010b 	eors.w	r1, r9, fp
 8006b08:	ea0a 020b 	and.w	r2, sl, fp
 8006b0c:	4051      	eors	r1, r2
 8006b0e:	ea0a 0206 	and.w	r2, sl, r6
 8006b12:	4051      	eors	r1, r2
 8006b14:	ea05 020b 	and.w	r2, r5, fp
 8006b18:	4051      	eors	r1, r2
 8006b1a:	f8c0 1354 	str.w	r1, [r0, #852]	; 0x354
 8006b1e:	ea9a 010c 	eors.w	r1, sl, ip
 8006b22:	ea0b 020c 	and.w	r2, fp, ip
 8006b26:	4051      	eors	r1, r2
 8006b28:	ea0b 0207 	and.w	r2, fp, r7
 8006b2c:	4051      	eors	r1, r2
 8006b2e:	ea06 020c 	and.w	r2, r6, ip
 8006b32:	4051      	eors	r1, r2
 8006b34:	f8c0 13ac 	str.w	r1, [r0, #940]	; 0x3ac
 8006b38:	ea9b 0108 	eors.w	r1, fp, r8
 8006b3c:	ea0c 0208 	and.w	r2, ip, r8
 8006b40:	4051      	eors	r1, r2
 8006b42:	ea0c 0203 	and.w	r2, ip, r3
 8006b46:	4051      	eors	r1, r2
 8006b48:	ea07 0208 	and.w	r2, r7, r8
 8006b4c:	4051      	eors	r1, r2
 8006b4e:	f8c0 133c 	str.w	r1, [r0, #828]	; 0x33c
 8006b52:	ea9c 0109 	eors.w	r1, ip, r9
 8006b56:	ea08 0209 	and.w	r2, r8, r9
 8006b5a:	4051      	eors	r1, r2
 8006b5c:	ea08 0204 	and.w	r2, r8, r4
 8006b60:	4051      	eors	r1, r2
 8006b62:	ea03 0209 	and.w	r2, r3, r9
 8006b66:	4051      	eors	r1, r2
 8006b68:	f8c0 1390 	str.w	r1, [r0, #912]	; 0x390
 8006b6c:	f8d0 916c 	ldr.w	r9, [r0, #364]	; 0x16c
 8006b70:	f8d0 a0fc 	ldr.w	sl, [r0, #252]	; 0xfc
 8006b74:	f8d0 b154 	ldr.w	fp, [r0, #340]	; 0x154
 8006b78:	f8d0 c0e4 	ldr.w	ip, [r0, #228]	; 0xe4
 8006b7c:	f8d0 8138 	ldr.w	r8, [r0, #312]	; 0x138
 8006b80:	ea93 0105 	eors.w	r1, r3, r5
 8006b84:	ea04 0205 	and.w	r2, r4, r5
 8006b88:	4051      	eors	r1, r2
 8006b8a:	ea04 020a 	and.w	r2, r4, sl
 8006b8e:	4051      	eors	r1, r2
 8006b90:	ea09 0205 	and.w	r2, r9, r5
 8006b94:	4051      	eors	r1, r2
 8006b96:	f8c0 148c 	str.w	r1, [r0, #1164]	; 0x48c
 8006b9a:	ea94 0106 	eors.w	r1, r4, r6
 8006b9e:	ea05 0206 	and.w	r2, r5, r6
 8006ba2:	4051      	eors	r1, r2
 8006ba4:	ea05 020b 	and.w	r2, r5, fp
 8006ba8:	4051      	eors	r1, r2
 8006baa:	ea0a 0206 	and.w	r2, sl, r6
 8006bae:	4051      	eors	r1, r2
 8006bb0:	f8c0 141c 	str.w	r1, [r0, #1052]	; 0x41c
 8006bb4:	ea95 0107 	eors.w	r1, r5, r7
 8006bb8:	ea06 0207 	and.w	r2, r6, r7
 8006bbc:	4051      	eors	r1, r2
 8006bbe:	ea06 020c 	and.w	r2, r6, ip
 8006bc2:	4051      	eors	r1, r2
 8006bc4:	ea0b 0207 	and.w	r2, fp, r7
 8006bc8:	4051      	eors	r1, r2
 8006bca:	f8c0 1474 	str.w	r1, [r0, #1140]	; 0x474
 8006bce:	ea96 0103 	eors.w	r1, r6, r3
 8006bd2:	ea07 0203 	and.w	r2, r7, r3
 8006bd6:	4051      	eors	r1, r2
 8006bd8:	ea07 0208 	and.w	r2, r7, r8
 8006bdc:	4051      	eors	r1, r2
 8006bde:	ea0c 0203 	and.w	r2, ip, r3
 8006be2:	4051      	eors	r1, r2
 8006be4:	f8c0 1404 	str.w	r1, [r0, #1028]	; 0x404
 8006be8:	ea97 0104 	eors.w	r1, r7, r4
 8006bec:	ea03 0204 	and.w	r2, r3, r4
 8006bf0:	4051      	eors	r1, r2
 8006bf2:	ea03 0209 	and.w	r2, r3, r9
 8006bf6:	4051      	eors	r1, r2
 8006bf8:	ea08 0204 	and.w	r2, r8, r4
 8006bfc:	4051      	eors	r1, r2
 8006bfe:	f8c0 1458 	str.w	r1, [r0, #1112]	; 0x458
 8006c02:	e8bd 5f04 	ldmia.w	sp!, {r2, r8, r9, sl, fp, ip, lr}
 8006c06:	e92d 5f04 	stmdb	sp!, {r2, r8, r9, sl, fp, ip, lr}
 8006c0a:	f8d0 611c 	ldr.w	r6, [r0, #284]	; 0x11c
 8006c0e:	f8d0 7174 	ldr.w	r7, [r0, #372]	; 0x174
 8006c12:	f8d0 3100 	ldr.w	r3, [r0, #256]	; 0x100
 8006c16:	f8d0 415c 	ldr.w	r4, [r0, #348]	; 0x15c
 8006c1a:	f8d0 50ec 	ldr.w	r5, [r0, #236]	; 0xec
 8006c1e:	ea96 0608 	eors.w	r6, r6, r8
 8006c22:	ea97 070b 	eors.w	r7, r7, fp
 8006c26:	4053      	eors	r3, r2
 8006c28:	ea94 0409 	eors.w	r4, r4, r9
 8006c2c:	ea95 050c 	eors.w	r5, r5, ip
 8006c30:	ea5f 3636 	movs.w	r6, r6, ror #12
 8006c34:	ea5f 77f7 	movs.w	r7, r7, ror #31
 8006c38:	ea5f 0373 	movs.w	r3, r3, ror #1
 8006c3c:	ea5f 1474 	movs.w	r4, r4, ror #5
 8006c40:	ea5f 3575 	movs.w	r5, r5, ror #13
 8006c44:	f8c0 611c 	str.w	r6, [r0, #284]	; 0x11c
 8006c48:	f8c0 7174 	str.w	r7, [r0, #372]	; 0x174
 8006c4c:	f8c0 3100 	str.w	r3, [r0, #256]	; 0x100
 8006c50:	f8c0 415c 	str.w	r4, [r0, #348]	; 0x15c
 8006c54:	f8c0 50ec 	str.w	r5, [r0, #236]	; 0xec
 8006c58:	f8d0 b1e4 	ldr.w	fp, [r0, #484]	; 0x1e4
 8006c5c:	f8d0 1500 	ldr.w	r1, [r0, #1280]	; 0x500
 8006c60:	f8d0 c23c 	ldr.w	ip, [r0, #572]	; 0x23c
 8006c64:	f8d0 250c 	ldr.w	r2, [r0, #1292]	; 0x50c
 8006c68:	f8d0 81c8 	ldr.w	r8, [r0, #456]	; 0x1c8
 8006c6c:	f8d0 e514 	ldr.w	lr, [r0, #1300]	; 0x514
 8006c70:	ea9b 0b01 	eors.w	fp, fp, r1
 8006c74:	ea9c 0c02 	eors.w	ip, ip, r2
 8006c78:	ea98 080e 	eors.w	r8, r8, lr
 8006c7c:	f8d0 9224 	ldr.w	r9, [r0, #548]	; 0x224
 8006c80:	f8d0 1518 	ldr.w	r1, [r0, #1304]	; 0x518
 8006c84:	f8d0 a1b4 	ldr.w	sl, [r0, #436]	; 0x1b4
 8006c88:	f8d0 e520 	ldr.w	lr, [r0, #1312]	; 0x520
 8006c8c:	ea99 0901 	eors.w	r9, r9, r1
 8006c90:	ea9a 0a0e 	eors.w	sl, sl, lr
 8006c94:	ea5f 3b3b 	movs.w	fp, fp, ror #12
 8006c98:	ea5f 7cfc 	movs.w	ip, ip, ror #31
 8006c9c:	ea5f 0878 	movs.w	r8, r8, ror #1
 8006ca0:	ea5f 1979 	movs.w	r9, r9, ror #5
 8006ca4:	ea5f 3a7a 	movs.w	sl, sl, ror #13
 8006ca8:	ea93 0105 	eors.w	r1, r3, r5
 8006cac:	ea04 0205 	and.w	r2, r4, r5
 8006cb0:	4051      	eors	r1, r2
 8006cb2:	ea04 020a 	and.w	r2, r4, sl
 8006cb6:	4051      	eors	r1, r2
 8006cb8:	ea09 0205 	and.w	r2, r9, r5
 8006cbc:	4051      	eors	r1, r2
 8006cbe:	f8c0 12ac 	str.w	r1, [r0, #684]	; 0x2ac
 8006cc2:	ea94 0106 	eors.w	r1, r4, r6
 8006cc6:	ea05 0206 	and.w	r2, r5, r6
 8006cca:	4051      	eors	r1, r2
 8006ccc:	ea05 020b 	and.w	r2, r5, fp
 8006cd0:	4051      	eors	r1, r2
 8006cd2:	ea0a 0206 	and.w	r2, sl, r6
 8006cd6:	4051      	eors	r1, r2
 8006cd8:	f8c0 1304 	str.w	r1, [r0, #772]	; 0x304
 8006cdc:	ea95 0107 	eors.w	r1, r5, r7
 8006ce0:	ea06 0207 	and.w	r2, r6, r7
 8006ce4:	4051      	eors	r1, r2
 8006ce6:	ea06 020c 	and.w	r2, r6, ip
 8006cea:	4051      	eors	r1, r2
 8006cec:	ea0b 0207 	and.w	r2, fp, r7
 8006cf0:	4051      	eors	r1, r2
 8006cf2:	f8c0 1290 	str.w	r1, [r0, #656]	; 0x290
 8006cf6:	ea96 0103 	eors.w	r1, r6, r3
 8006cfa:	ea07 0203 	and.w	r2, r7, r3
 8006cfe:	4051      	eors	r1, r2
 8006d00:	ea07 0208 	and.w	r2, r7, r8
 8006d04:	4051      	eors	r1, r2
 8006d06:	ea0c 0203 	and.w	r2, ip, r3
 8006d0a:	4051      	eors	r1, r2
 8006d0c:	f8c0 12ec 	str.w	r1, [r0, #748]	; 0x2ec
 8006d10:	ea97 0104 	eors.w	r1, r7, r4
 8006d14:	ea03 0204 	and.w	r2, r3, r4
 8006d18:	4051      	eors	r1, r2
 8006d1a:	ea03 0209 	and.w	r2, r3, r9
 8006d1e:	4051      	eors	r1, r2
 8006d20:	ea08 0204 	and.w	r2, r8, r4
 8006d24:	4051      	eors	r1, r2
 8006d26:	f8c0 127c 	str.w	r1, [r0, #636]	; 0x27c
 8006d2a:	6d46      	ldr	r6, [r0, #84]	; 0x54
 8006d2c:	f8d0 14b0 	ldr.w	r1, [r0, #1200]	; 0x4b0
 8006d30:	f8d0 70ac 	ldr.w	r7, [r0, #172]	; 0xac
 8006d34:	f8d0 24bc 	ldr.w	r2, [r0, #1212]	; 0x4bc
 8006d38:	6b83      	ldr	r3, [r0, #56]	; 0x38
 8006d3a:	f8d0 e4c4 	ldr.w	lr, [r0, #1220]	; 0x4c4
 8006d3e:	404e      	eors	r6, r1
 8006d40:	4057      	eors	r7, r2
 8006d42:	ea93 030e 	eors.w	r3, r3, lr
 8006d46:	f8d0 4094 	ldr.w	r4, [r0, #148]	; 0x94
 8006d4a:	f8d0 14c8 	ldr.w	r1, [r0, #1224]	; 0x4c8
 8006d4e:	6a45      	ldr	r5, [r0, #36]	; 0x24
 8006d50:	f8d0 e4d0 	ldr.w	lr, [r0, #1232]	; 0x4d0
 8006d54:	404c      	eors	r4, r1
 8006d56:	ea95 050e 	eors.w	r5, r5, lr
 8006d5a:	ea5f 3636 	movs.w	r6, r6, ror #12
 8006d5e:	ea5f 77f7 	movs.w	r7, r7, ror #31
 8006d62:	ea5f 0373 	movs.w	r3, r3, ror #1
 8006d66:	ea5f 1474 	movs.w	r4, r4, ror #5
 8006d6a:	ea5f 3575 	movs.w	r5, r5, ror #13
 8006d6e:	ea98 010a 	eors.w	r1, r8, sl
 8006d72:	ea09 020a 	and.w	r2, r9, sl
 8006d76:	4051      	eors	r1, r2
 8006d78:	ea09 0205 	and.w	r2, r9, r5
 8006d7c:	4051      	eors	r1, r2
 8006d7e:	ea04 020a 	and.w	r2, r4, sl
 8006d82:	4051      	eors	r1, r2
 8006d84:	f8c0 1374 	str.w	r1, [r0, #884]	; 0x374
 8006d88:	ea99 010b 	eors.w	r1, r9, fp
 8006d8c:	ea0a 020b 	and.w	r2, sl, fp
 8006d90:	4051      	eors	r1, r2
 8006d92:	ea0a 0206 	and.w	r2, sl, r6
 8006d96:	4051      	eors	r1, r2
 8006d98:	ea05 020b 	and.w	r2, r5, fp
 8006d9c:	4051      	eors	r1, r2
 8006d9e:	f8c0 13cc 	str.w	r1, [r0, #972]	; 0x3cc
 8006da2:	ea9a 010c 	eors.w	r1, sl, ip
 8006da6:	ea0b 020c 	and.w	r2, fp, ip
 8006daa:	4051      	eors	r1, r2
 8006dac:	ea0b 0207 	and.w	r2, fp, r7
 8006db0:	4051      	eors	r1, r2
 8006db2:	ea06 020c 	and.w	r2, r6, ip
 8006db6:	4051      	eors	r1, r2
 8006db8:	f8c0 1358 	str.w	r1, [r0, #856]	; 0x358
 8006dbc:	ea9b 0108 	eors.w	r1, fp, r8
 8006dc0:	ea0c 0208 	and.w	r2, ip, r8
 8006dc4:	4051      	eors	r1, r2
 8006dc6:	ea0c 0203 	and.w	r2, ip, r3
 8006dca:	4051      	eors	r1, r2
 8006dcc:	ea07 0208 	and.w	r2, r7, r8
 8006dd0:	4051      	eors	r1, r2
 8006dd2:	f8c0 13b4 	str.w	r1, [r0, #948]	; 0x3b4
 8006dd6:	ea9c 0109 	eors.w	r1, ip, r9
 8006dda:	ea08 0209 	and.w	r2, r8, r9
 8006dde:	4051      	eors	r1, r2
 8006de0:	ea08 0204 	and.w	r2, r8, r4
 8006de4:	4051      	eors	r1, r2
 8006de6:	ea03 0209 	and.w	r2, r3, r9
 8006dea:	4051      	eors	r1, r2
 8006dec:	f8c0 1344 	str.w	r1, [r0, #836]	; 0x344
 8006df0:	f8d0 b11c 	ldr.w	fp, [r0, #284]	; 0x11c
 8006df4:	f8d0 c174 	ldr.w	ip, [r0, #372]	; 0x174
 8006df8:	f8d0 8100 	ldr.w	r8, [r0, #256]	; 0x100
 8006dfc:	f8d0 915c 	ldr.w	r9, [r0, #348]	; 0x15c
 8006e00:	f8d0 a0ec 	ldr.w	sl, [r0, #236]	; 0xec
 8006e04:	ea93 0105 	eors.w	r1, r3, r5
 8006e08:	ea04 0205 	and.w	r2, r4, r5
 8006e0c:	4051      	eors	r1, r2
 8006e0e:	ea04 020a 	and.w	r2, r4, sl
 8006e12:	4051      	eors	r1, r2
 8006e14:	ea09 0205 	and.w	r2, r9, r5
 8006e18:	4051      	eors	r1, r2
 8006e1a:	f8c0 143c 	str.w	r1, [r0, #1084]	; 0x43c
 8006e1e:	ea94 0106 	eors.w	r1, r4, r6
 8006e22:	ea05 0206 	and.w	r2, r5, r6
 8006e26:	4051      	eors	r1, r2
 8006e28:	ea05 020b 	and.w	r2, r5, fp
 8006e2c:	4051      	eors	r1, r2
 8006e2e:	ea0a 0206 	and.w	r2, sl, r6
 8006e32:	4051      	eors	r1, r2
 8006e34:	f8c0 1494 	str.w	r1, [r0, #1172]	; 0x494
 8006e38:	ea95 0107 	eors.w	r1, r5, r7
 8006e3c:	ea06 0207 	and.w	r2, r6, r7
 8006e40:	4051      	eors	r1, r2
 8006e42:	ea06 020c 	and.w	r2, r6, ip
 8006e46:	4051      	eors	r1, r2
 8006e48:	ea0b 0207 	and.w	r2, fp, r7
 8006e4c:	4051      	eors	r1, r2
 8006e4e:	f8c0 1420 	str.w	r1, [r0, #1056]	; 0x420
 8006e52:	ea96 0103 	eors.w	r1, r6, r3
 8006e56:	ea07 0203 	and.w	r2, r7, r3
 8006e5a:	4051      	eors	r1, r2
 8006e5c:	ea07 0208 	and.w	r2, r7, r8
 8006e60:	4051      	eors	r1, r2
 8006e62:	ea0c 0203 	and.w	r2, ip, r3
 8006e66:	4051      	eors	r1, r2
 8006e68:	f8c0 147c 	str.w	r1, [r0, #1148]	; 0x47c
 8006e6c:	ea97 0104 	eors.w	r1, r7, r4
 8006e70:	ea03 0204 	and.w	r2, r3, r4
 8006e74:	4051      	eors	r1, r2
 8006e76:	ea03 0209 	and.w	r2, r3, r9
 8006e7a:	4051      	eors	r1, r2
 8006e7c:	ea08 0204 	and.w	r2, r8, r4
 8006e80:	4051      	eors	r1, r2
 8006e82:	f8c0 140c 	str.w	r1, [r0, #1036]	; 0x40c
 8006e86:	e8bd 5f04 	ldmia.w	sp!, {r2, r8, r9, sl, fp, ip, lr}
 8006e8a:	f8d0 94f4 	ldr.w	r9, [r0, #1268]	; 0x4f4
 8006e8e:	e92d 5f04 	stmdb	sp!, {r2, r8, r9, sl, fp, ip, lr}
 8006e92:	f8d0 30c8 	ldr.w	r3, [r0, #200]	; 0xc8
 8006e96:	f8d0 4124 	ldr.w	r4, [r0, #292]	; 0x124
 8006e9a:	f8d0 5178 	ldr.w	r5, [r0, #376]	; 0x178
 8006e9e:	f8d0 6108 	ldr.w	r6, [r0, #264]	; 0x108
 8006ea2:	f8d0 7164 	ldr.w	r7, [r0, #356]	; 0x164
 8006ea6:	ea93 0308 	eors.w	r3, r3, r8
 8006eaa:	ea94 040a 	eors.w	r4, r4, sl
 8006eae:	4055      	eors	r5, r2
 8006eb0:	ea96 0609 	eors.w	r6, r6, r9
 8006eb4:	ea97 070c 	eors.w	r7, r7, ip
 8006eb8:	ea5f 24b4 	movs.w	r4, r4, ror #10
 8006ebc:	ea5f 25b5 	movs.w	r5, r5, ror #10
 8006ec0:	ea5f 5676 	movs.w	r6, r6, ror #21
 8006ec4:	ea5f 6777 	movs.w	r7, r7, ror #25
 8006ec8:	f8c0 30c8 	str.w	r3, [r0, #200]	; 0xc8
 8006ecc:	f8c0 4124 	str.w	r4, [r0, #292]	; 0x124
 8006ed0:	f8c0 5178 	str.w	r5, [r0, #376]	; 0x178
 8006ed4:	f8c0 6108 	str.w	r6, [r0, #264]	; 0x108
 8006ed8:	f8c0 7164 	str.w	r7, [r0, #356]	; 0x164
 8006edc:	f8d0 8190 	ldr.w	r8, [r0, #400]	; 0x190
 8006ee0:	f8d0 1500 	ldr.w	r1, [r0, #1280]	; 0x500
 8006ee4:	f8d0 91ec 	ldr.w	r9, [r0, #492]	; 0x1ec
 8006ee8:	f8d0 2508 	ldr.w	r2, [r0, #1288]	; 0x508
 8006eec:	f8d0 a240 	ldr.w	sl, [r0, #576]	; 0x240
 8006ef0:	f8d0 e514 	ldr.w	lr, [r0, #1300]	; 0x514
 8006ef4:	ea98 0801 	eors.w	r8, r8, r1
 8006ef8:	ea99 0902 	eors.w	r9, r9, r2
 8006efc:	ea9a 0a0e 	eors.w	sl, sl, lr
 8006f00:	f8d0 b1d0 	ldr.w	fp, [r0, #464]	; 0x1d0
 8006f04:	f8d0 151c 	ldr.w	r1, [r0, #1308]	; 0x51c
 8006f08:	f8d0 c22c 	ldr.w	ip, [r0, #556]	; 0x22c
 8006f0c:	f8d0 e520 	ldr.w	lr, [r0, #1312]	; 0x520
 8006f10:	ea9b 0b01 	eors.w	fp, fp, r1
 8006f14:	ea9c 0c0e 	eors.w	ip, ip, lr
 8006f18:	ea5f 29b9 	movs.w	r9, r9, ror #10
 8006f1c:	ea5f 2aba 	movs.w	sl, sl, ror #10
 8006f20:	ea5f 5b7b 	movs.w	fp, fp, ror #21
 8006f24:	ea5f 6c7c 	movs.w	ip, ip, ror #25
 8006f28:	ea93 0105 	eors.w	r1, r3, r5
 8006f2c:	ea04 0205 	and.w	r2, r4, r5
 8006f30:	4051      	eors	r1, r2
 8006f32:	ea04 020a 	and.w	r2, r4, sl
 8006f36:	4051      	eors	r1, r2
 8006f38:	ea09 0205 	and.w	r2, r9, r5
 8006f3c:	4051      	eors	r1, r2
 8006f3e:	f8c0 1258 	str.w	r1, [r0, #600]	; 0x258
 8006f42:	ea94 0106 	eors.w	r1, r4, r6
 8006f46:	ea05 0206 	and.w	r2, r5, r6
 8006f4a:	4051      	eors	r1, r2
 8006f4c:	ea05 020b 	and.w	r2, r5, fp
 8006f50:	4051      	eors	r1, r2
 8006f52:	ea0a 0206 	and.w	r2, sl, r6
 8006f56:	4051      	eors	r1, r2
 8006f58:	f8c0 12b4 	str.w	r1, [r0, #692]	; 0x2b4
 8006f5c:	ea95 0107 	eors.w	r1, r5, r7
 8006f60:	ea06 0207 	and.w	r2, r6, r7
 8006f64:	4051      	eors	r1, r2
 8006f66:	ea06 020c 	and.w	r2, r6, ip
 8006f6a:	4051      	eors	r1, r2
 8006f6c:	ea0b 0207 	and.w	r2, fp, r7
 8006f70:	4051      	eors	r1, r2
 8006f72:	f8c0 1308 	str.w	r1, [r0, #776]	; 0x308
 8006f76:	ea96 0103 	eors.w	r1, r6, r3
 8006f7a:	ea07 0203 	and.w	r2, r7, r3
 8006f7e:	4051      	eors	r1, r2
 8006f80:	ea07 0208 	and.w	r2, r7, r8
 8006f84:	4051      	eors	r1, r2
 8006f86:	ea0c 0203 	and.w	r2, ip, r3
 8006f8a:	4051      	eors	r1, r2
 8006f8c:	f8c0 1298 	str.w	r1, [r0, #664]	; 0x298
 8006f90:	ea97 0104 	eors.w	r1, r7, r4
 8006f94:	ea03 0204 	and.w	r2, r3, r4
 8006f98:	4051      	eors	r1, r2
 8006f9a:	ea03 0209 	and.w	r2, r3, r9
 8006f9e:	4051      	eors	r1, r2
 8006fa0:	ea08 0204 	and.w	r2, r8, r4
 8006fa4:	4051      	eors	r1, r2
 8006fa6:	f8c0 12f4 	str.w	r1, [r0, #756]	; 0x2f4
 8006faa:	6803      	ldr	r3, [r0, #0]
 8006fac:	f8d0 14b0 	ldr.w	r1, [r0, #1200]	; 0x4b0
 8006fb0:	6dc4      	ldr	r4, [r0, #92]	; 0x5c
 8006fb2:	f8d0 24b8 	ldr.w	r2, [r0, #1208]	; 0x4b8
 8006fb6:	f8d0 50b0 	ldr.w	r5, [r0, #176]	; 0xb0
 8006fba:	f8d0 e4c4 	ldr.w	lr, [r0, #1220]	; 0x4c4
 8006fbe:	404b      	eors	r3, r1
 8006fc0:	4054      	eors	r4, r2
 8006fc2:	ea95 050e 	eors.w	r5, r5, lr
 8006fc6:	6c06      	ldr	r6, [r0, #64]	; 0x40
 8006fc8:	f8d0 14cc 	ldr.w	r1, [r0, #1228]	; 0x4cc
 8006fcc:	f8d0 709c 	ldr.w	r7, [r0, #156]	; 0x9c
 8006fd0:	f8d0 e4d0 	ldr.w	lr, [r0, #1232]	; 0x4d0
 8006fd4:	404e      	eors	r6, r1
 8006fd6:	ea97 070e 	eors.w	r7, r7, lr
 8006fda:	ea5f 24b4 	movs.w	r4, r4, ror #10
 8006fde:	ea5f 25b5 	movs.w	r5, r5, ror #10
 8006fe2:	ea5f 5676 	movs.w	r6, r6, ror #21
 8006fe6:	ea5f 6777 	movs.w	r7, r7, ror #25
 8006fea:	ea98 010a 	eors.w	r1, r8, sl
 8006fee:	ea09 020a 	and.w	r2, r9, sl
 8006ff2:	4051      	eors	r1, r2
 8006ff4:	ea09 0205 	and.w	r2, r9, r5
 8006ff8:	4051      	eors	r1, r2
 8006ffa:	ea04 020a 	and.w	r2, r4, sl
 8006ffe:	4051      	eors	r1, r2
 8007000:	f8c0 1320 	str.w	r1, [r0, #800]	; 0x320
 8007004:	ea99 010b 	eors.w	r1, r9, fp
 8007008:	ea0a 020b 	and.w	r2, sl, fp
 800700c:	4051      	eors	r1, r2
 800700e:	ea0a 0206 	and.w	r2, sl, r6
 8007012:	4051      	eors	r1, r2
 8007014:	ea05 020b 	and.w	r2, r5, fp
 8007018:	4051      	eors	r1, r2
 800701a:	f8c0 137c 	str.w	r1, [r0, #892]	; 0x37c
 800701e:	ea9a 010c 	eors.w	r1, sl, ip
 8007022:	ea0b 020c 	and.w	r2, fp, ip
 8007026:	4051      	eors	r1, r2
 8007028:	ea0b 0207 	and.w	r2, fp, r7
 800702c:	4051      	eors	r1, r2
 800702e:	ea06 020c 	and.w	r2, r6, ip
 8007032:	4051      	eors	r1, r2
 8007034:	f8c0 13d0 	str.w	r1, [r0, #976]	; 0x3d0
 8007038:	ea9b 0108 	eors.w	r1, fp, r8
 800703c:	ea0c 0208 	and.w	r2, ip, r8
 8007040:	4051      	eors	r1, r2
 8007042:	ea0c 0203 	and.w	r2, ip, r3
 8007046:	4051      	eors	r1, r2
 8007048:	ea07 0208 	and.w	r2, r7, r8
 800704c:	4051      	eors	r1, r2
 800704e:	f8c0 1360 	str.w	r1, [r0, #864]	; 0x360
 8007052:	ea9c 0109 	eors.w	r1, ip, r9
 8007056:	ea08 0209 	and.w	r2, r8, r9
 800705a:	4051      	eors	r1, r2
 800705c:	ea08 0204 	and.w	r2, r8, r4
 8007060:	4051      	eors	r1, r2
 8007062:	ea03 0209 	and.w	r2, r3, r9
 8007066:	4051      	eors	r1, r2
 8007068:	f8c0 13bc 	str.w	r1, [r0, #956]	; 0x3bc
 800706c:	f8d0 80c8 	ldr.w	r8, [r0, #200]	; 0xc8
 8007070:	f8d0 9124 	ldr.w	r9, [r0, #292]	; 0x124
 8007074:	f8d0 a178 	ldr.w	sl, [r0, #376]	; 0x178
 8007078:	f8d0 b108 	ldr.w	fp, [r0, #264]	; 0x108
 800707c:	f8d0 c164 	ldr.w	ip, [r0, #356]	; 0x164
 8007080:	ea94 0106 	eors.w	r1, r4, r6
 8007084:	ea05 0206 	and.w	r2, r5, r6
 8007088:	4051      	eors	r1, r2
 800708a:	ea05 020b 	and.w	r2, r5, fp
 800708e:	4051      	eors	r1, r2
 8007090:	ea0a 0206 	and.w	r2, sl, r6
 8007094:	4051      	eors	r1, r2
 8007096:	f8c0 1444 	str.w	r1, [r0, #1092]	; 0x444
 800709a:	ea95 0107 	eors.w	r1, r5, r7
 800709e:	ea06 0207 	and.w	r2, r6, r7
 80070a2:	4051      	eors	r1, r2
 80070a4:	ea06 020c 	and.w	r2, r6, ip
 80070a8:	4051      	eors	r1, r2
 80070aa:	ea0b 0207 	and.w	r2, fp, r7
 80070ae:	4051      	eors	r1, r2
 80070b0:	f8c0 1498 	str.w	r1, [r0, #1176]	; 0x498
 80070b4:	ea96 0103 	eors.w	r1, r6, r3
 80070b8:	ea07 0203 	and.w	r2, r7, r3
 80070bc:	4051      	eors	r1, r2
 80070be:	ea07 0208 	and.w	r2, r7, r8
 80070c2:	4051      	eors	r1, r2
 80070c4:	ea0c 0203 	and.w	r2, ip, r3
 80070c8:	4051      	eors	r1, r2
 80070ca:	f8c0 1428 	str.w	r1, [r0, #1064]	; 0x428
 80070ce:	ea97 0104 	eors.w	r1, r7, r4
 80070d2:	ea03 0204 	and.w	r2, r3, r4
 80070d6:	4051      	eors	r1, r2
 80070d8:	ea03 0209 	and.w	r2, r3, r9
 80070dc:	4051      	eors	r1, r2
 80070de:	ea08 0204 	and.w	r2, r8, r4
 80070e2:	4051      	eors	r1, r2
 80070e4:	f8c0 1484 	str.w	r1, [r0, #1156]	; 0x484
 80070e8:	f8d0 1528 	ldr.w	r1, [r0, #1320]	; 0x528
 80070ec:	ea93 0605 	eors.w	r6, r3, r5
 80070f0:	ea04 0705 	and.w	r7, r4, r5
 80070f4:	407e      	eors	r6, r7
 80070f6:	ea04 070a 	and.w	r7, r4, sl
 80070fa:	407e      	eors	r6, r7
 80070fc:	ea09 0705 	and.w	r7, r9, r5
 8007100:	407e      	eors	r6, r7
 8007102:	690c      	ldr	r4, [r1, #16]
 8007104:	4066      	eors	r6, r4
 8007106:	f8c0 63e8 	str.w	r6, [r0, #1000]	; 0x3e8
 800710a:	e8bd 5f04 	ldmia.w	sp!, {r2, r8, r9, sl, fp, ip, lr}
 800710e:	f8d0 24e8 	ldr.w	r2, [r0, #1256]	; 0x4e8
 8007112:	e92d 5f04 	stmdb	sp!, {r2, r8, r9, sl, fp, ip, lr}
 8007116:	f8d0 5144 	ldr.w	r5, [r0, #324]	; 0x144
 800711a:	f8d0 60d4 	ldr.w	r6, [r0, #212]	; 0xd4
 800711e:	f8d0 712c 	ldr.w	r7, [r0, #300]	; 0x12c
 8007122:	f8d0 3180 	ldr.w	r3, [r0, #384]	; 0x180
 8007126:	f8d0 4114 	ldr.w	r4, [r0, #276]	; 0x114
 800712a:	ea95 0508 	eors.w	r5, r5, r8
 800712e:	ea96 060a 	eors.w	r6, r6, sl
 8007132:	4057      	eors	r7, r2
 8007134:	ea93 0309 	eors.w	r3, r3, r9
 8007138:	ea94 040e 	eors.w	r4, r4, lr
 800713c:	ea5f 75f5 	movs.w	r5, r5, ror #31
 8007140:	ea5f 26b6 	movs.w	r6, r6, ror #10
 8007144:	ea5f 07b7 	movs.w	r7, r7, ror #2
 8007148:	ea5f 43b3 	movs.w	r3, r3, ror #18
 800714c:	ea5f 54b4 	movs.w	r4, r4, ror #22
 8007150:	f8c0 5144 	str.w	r5, [r0, #324]	; 0x144
 8007154:	f8c0 60d4 	str.w	r6, [r0, #212]	; 0xd4
 8007158:	f8c0 712c 	str.w	r7, [r0, #300]	; 0x12c
 800715c:	f8c0 3180 	str.w	r3, [r0, #384]	; 0x180
 8007160:	f8c0 4114 	str.w	r4, [r0, #276]	; 0x114
 8007164:	f8d0 a20c 	ldr.w	sl, [r0, #524]	; 0x20c
 8007168:	f8d0 1500 	ldr.w	r1, [r0, #1280]	; 0x500
 800716c:	f8d0 b19c 	ldr.w	fp, [r0, #412]	; 0x19c
 8007170:	f8d0 2508 	ldr.w	r2, [r0, #1288]	; 0x508
 8007174:	f8d0 c1f4 	ldr.w	ip, [r0, #500]	; 0x1f4
 8007178:	f8d0 e510 	ldr.w	lr, [r0, #1296]	; 0x510
 800717c:	ea9a 0a01 	eors.w	sl, sl, r1
 8007180:	ea9b 0b02 	eors.w	fp, fp, r2
 8007184:	ea9c 0c0e 	eors.w	ip, ip, lr
 8007188:	f8d0 8248 	ldr.w	r8, [r0, #584]	; 0x248
 800718c:	f8d0 151c 	ldr.w	r1, [r0, #1308]	; 0x51c
 8007190:	f8d0 91dc 	ldr.w	r9, [r0, #476]	; 0x1dc
 8007194:	f8d0 e524 	ldr.w	lr, [r0, #1316]	; 0x524
 8007198:	ea98 0801 	eors.w	r8, r8, r1
 800719c:	ea99 090e 	eors.w	r9, r9, lr
 80071a0:	ea5f 7afa 	movs.w	sl, sl, ror #31
 80071a4:	ea5f 2bbb 	movs.w	fp, fp, ror #10
 80071a8:	ea5f 0cbc 	movs.w	ip, ip, ror #2
 80071ac:	ea5f 48b8 	movs.w	r8, r8, ror #18
 80071b0:	ea5f 59b9 	movs.w	r9, r9, ror #22
 80071b4:	ea93 0105 	eors.w	r1, r3, r5
 80071b8:	ea04 0205 	and.w	r2, r4, r5
 80071bc:	4051      	eors	r1, r2
 80071be:	ea04 020a 	and.w	r2, r4, sl
 80071c2:	4051      	eors	r1, r2
 80071c4:	ea09 0205 	and.w	r2, r9, r5
 80071c8:	4051      	eors	r1, r2
 80071ca:	f8c0 12d4 	str.w	r1, [r0, #724]	; 0x2d4
 80071ce:	ea94 0106 	eors.w	r1, r4, r6
 80071d2:	ea05 0206 	and.w	r2, r5, r6
 80071d6:	4051      	eors	r1, r2
 80071d8:	ea05 020b 	and.w	r2, r5, fp
 80071dc:	4051      	eors	r1, r2
 80071de:	ea0a 0206 	and.w	r2, sl, r6
 80071e2:	4051      	eors	r1, r2
 80071e4:	f8c0 1264 	str.w	r1, [r0, #612]	; 0x264
 80071e8:	ea95 0107 	eors.w	r1, r5, r7
 80071ec:	ea06 0207 	and.w	r2, r6, r7
 80071f0:	4051      	eors	r1, r2
 80071f2:	ea06 020c 	and.w	r2, r6, ip
 80071f6:	4051      	eors	r1, r2
 80071f8:	ea0b 0207 	and.w	r2, fp, r7
 80071fc:	4051      	eors	r1, r2
 80071fe:	f8c0 12bc 	str.w	r1, [r0, #700]	; 0x2bc
 8007202:	ea96 0103 	eors.w	r1, r6, r3
 8007206:	ea07 0203 	and.w	r2, r7, r3
 800720a:	4051      	eors	r1, r2
 800720c:	ea07 0208 	and.w	r2, r7, r8
 8007210:	4051      	eors	r1, r2
 8007212:	ea0c 0203 	and.w	r2, ip, r3
 8007216:	4051      	eors	r1, r2
 8007218:	f8c0 1310 	str.w	r1, [r0, #784]	; 0x310
 800721c:	ea97 0104 	eors.w	r1, r7, r4
 8007220:	ea03 0204 	and.w	r2, r3, r4
 8007224:	4051      	eors	r1, r2
 8007226:	ea03 0209 	and.w	r2, r3, r9
 800722a:	4051      	eors	r1, r2
 800722c:	ea08 0204 	and.w	r2, r8, r4
 8007230:	4051      	eors	r1, r2
 8007232:	f8c0 12a4 	str.w	r1, [r0, #676]	; 0x2a4
 8007236:	6fc5      	ldr	r5, [r0, #124]	; 0x7c
 8007238:	f8d0 14b0 	ldr.w	r1, [r0, #1200]	; 0x4b0
 800723c:	68c6      	ldr	r6, [r0, #12]
 800723e:	f8d0 24b8 	ldr.w	r2, [r0, #1208]	; 0x4b8
 8007242:	6e47      	ldr	r7, [r0, #100]	; 0x64
 8007244:	f8d0 e4c0 	ldr.w	lr, [r0, #1216]	; 0x4c0
 8007248:	404d      	eors	r5, r1
 800724a:	4056      	eors	r6, r2
 800724c:	ea97 070e 	eors.w	r7, r7, lr
 8007250:	f8d0 30b8 	ldr.w	r3, [r0, #184]	; 0xb8
 8007254:	f8d0 14cc 	ldr.w	r1, [r0, #1228]	; 0x4cc
 8007258:	6cc4      	ldr	r4, [r0, #76]	; 0x4c
 800725a:	f8d0 e4d4 	ldr.w	lr, [r0, #1236]	; 0x4d4
 800725e:	404b      	eors	r3, r1
 8007260:	ea94 040e 	eors.w	r4, r4, lr
 8007264:	ea5f 75f5 	movs.w	r5, r5, ror #31
 8007268:	ea5f 26b6 	movs.w	r6, r6, ror #10
 800726c:	ea5f 07b7 	movs.w	r7, r7, ror #2
 8007270:	ea5f 43b3 	movs.w	r3, r3, ror #18
 8007274:	ea5f 54b4 	movs.w	r4, r4, ror #22
 8007278:	ea98 010a 	eors.w	r1, r8, sl
 800727c:	ea09 020a 	and.w	r2, r9, sl
 8007280:	4051      	eors	r1, r2
 8007282:	ea09 0205 	and.w	r2, r9, r5
 8007286:	4051      	eors	r1, r2
 8007288:	ea04 020a 	and.w	r2, r4, sl
 800728c:	4051      	eors	r1, r2
 800728e:	f8c0 139c 	str.w	r1, [r0, #924]	; 0x39c
 8007292:	ea99 010b 	eors.w	r1, r9, fp
 8007296:	ea0a 020b 	and.w	r2, sl, fp
 800729a:	4051      	eors	r1, r2
 800729c:	ea0a 0206 	and.w	r2, sl, r6
 80072a0:	4051      	eors	r1, r2
 80072a2:	ea05 020b 	and.w	r2, r5, fp
 80072a6:	4051      	eors	r1, r2
 80072a8:	f8c0 132c 	str.w	r1, [r0, #812]	; 0x32c
 80072ac:	ea9a 010c 	eors.w	r1, sl, ip
 80072b0:	ea0b 020c 	and.w	r2, fp, ip
 80072b4:	4051      	eors	r1, r2
 80072b6:	ea0b 0207 	and.w	r2, fp, r7
 80072ba:	4051      	eors	r1, r2
 80072bc:	ea06 020c 	and.w	r2, r6, ip
 80072c0:	4051      	eors	r1, r2
 80072c2:	f8c0 1384 	str.w	r1, [r0, #900]	; 0x384
 80072c6:	ea9b 0108 	eors.w	r1, fp, r8
 80072ca:	ea0c 0208 	and.w	r2, ip, r8
 80072ce:	4051      	eors	r1, r2
 80072d0:	ea0c 0203 	and.w	r2, ip, r3
 80072d4:	4051      	eors	r1, r2
 80072d6:	ea07 0208 	and.w	r2, r7, r8
 80072da:	4051      	eors	r1, r2
 80072dc:	f8c0 13d8 	str.w	r1, [r0, #984]	; 0x3d8
 80072e0:	ea9c 0109 	eors.w	r1, ip, r9
 80072e4:	ea08 0209 	and.w	r2, r8, r9
 80072e8:	4051      	eors	r1, r2
 80072ea:	ea08 0204 	and.w	r2, r8, r4
 80072ee:	4051      	eors	r1, r2
 80072f0:	ea03 0209 	and.w	r2, r3, r9
 80072f4:	4051      	eors	r1, r2
 80072f6:	f8c0 136c 	str.w	r1, [r0, #876]	; 0x36c
 80072fa:	f8d0 a144 	ldr.w	sl, [r0, #324]	; 0x144
 80072fe:	f8d0 b0d4 	ldr.w	fp, [r0, #212]	; 0xd4
 8007302:	f8d0 c12c 	ldr.w	ip, [r0, #300]	; 0x12c
 8007306:	f8d0 8180 	ldr.w	r8, [r0, #384]	; 0x180
 800730a:	f8d0 9114 	ldr.w	r9, [r0, #276]	; 0x114
 800730e:	ea93 0105 	eors.w	r1, r3, r5
 8007312:	ea04 0205 	and.w	r2, r4, r5
 8007316:	4051      	eors	r1, r2
 8007318:	ea04 020a 	and.w	r2, r4, sl
 800731c:	4051      	eors	r1, r2
 800731e:	ea09 0205 	and.w	r2, r9, r5
 8007322:	4051      	eors	r1, r2
 8007324:	f8c0 1464 	str.w	r1, [r0, #1124]	; 0x464
 8007328:	ea94 0106 	eors.w	r1, r4, r6
 800732c:	ea05 0206 	and.w	r2, r5, r6
 8007330:	4051      	eors	r1, r2
 8007332:	ea05 020b 	and.w	r2, r5, fp
 8007336:	4051      	eors	r1, r2
 8007338:	ea0a 0206 	and.w	r2, sl, r6
 800733c:	4051      	eors	r1, r2
 800733e:	f8c0 13f4 	str.w	r1, [r0, #1012]	; 0x3f4
 8007342:	ea95 0107 	eors.w	r1, r5, r7
 8007346:	ea06 0207 	and.w	r2, r6, r7
 800734a:	4051      	eors	r1, r2
 800734c:	ea06 020c 	and.w	r2, r6, ip
 8007350:	4051      	eors	r1, r2
 8007352:	ea0b 0207 	and.w	r2, fp, r7
 8007356:	4051      	eors	r1, r2
 8007358:	f8c0 144c 	str.w	r1, [r0, #1100]	; 0x44c
 800735c:	ea96 0103 	eors.w	r1, r6, r3
 8007360:	ea07 0203 	and.w	r2, r7, r3
 8007364:	4051      	eors	r1, r2
 8007366:	ea07 0208 	and.w	r2, r7, r8
 800736a:	4051      	eors	r1, r2
 800736c:	ea0c 0203 	and.w	r2, ip, r3
 8007370:	4051      	eors	r1, r2
 8007372:	f8c0 14a0 	str.w	r1, [r0, #1184]	; 0x4a0
 8007376:	ea97 0104 	eors.w	r1, r7, r4
 800737a:	ea03 0204 	and.w	r2, r3, r4
 800737e:	4051      	eors	r1, r2
 8007380:	ea03 0209 	and.w	r2, r3, r9
 8007384:	4051      	eors	r1, r2
 8007386:	ea08 0204 	and.w	r2, r8, r4
 800738a:	4051      	eors	r1, r2
 800738c:	f8c0 1434 	str.w	r1, [r0, #1076]	; 0x434
 8007390:	e8bd 5f04 	ldmia.w	sp!, {r2, r8, r9, sl, fp, ip, lr}
 8007394:	e92d 5f04 	stmdb	sp!, {r2, r8, r9, sl, fp, ip, lr}
 8007398:	f8d0 70f4 	ldr.w	r7, [r0, #244]	; 0xf4
 800739c:	f8d0 3148 	ldr.w	r3, [r0, #328]	; 0x148
 80073a0:	f8d0 40dc 	ldr.w	r4, [r0, #220]	; 0xdc
 80073a4:	f8d0 5134 	ldr.w	r5, [r0, #308]	; 0x134
 80073a8:	f8d0 618c 	ldr.w	r6, [r0, #396]	; 0x18c
 80073ac:	ea97 0708 	eors.w	r7, r7, r8
 80073b0:	ea93 030b 	eors.w	r3, r3, fp
 80073b4:	4054      	eors	r4, r2
 80073b6:	ea95 0509 	eors.w	r5, r5, r9
 80073ba:	ea96 060c 	eors.w	r6, r6, ip
 80073be:	ea5f 57f7 	movs.w	r7, r7, ror #23
 80073c2:	ea5f 73f3 	movs.w	r3, r3, ror #31
 80073c6:	ea5f 7474 	movs.w	r4, r4, ror #29
 80073ca:	ea5f 45f5 	movs.w	r5, r5, ror #19
 80073ce:	ea5f 7636 	movs.w	r6, r6, ror #28
 80073d2:	f8c0 70f4 	str.w	r7, [r0, #244]	; 0xf4
 80073d6:	f8c0 3148 	str.w	r3, [r0, #328]	; 0x148
 80073da:	f8c0 40dc 	str.w	r4, [r0, #220]	; 0xdc
 80073de:	f8c0 5134 	str.w	r5, [r0, #308]	; 0x134
 80073e2:	f8c0 618c 	str.w	r6, [r0, #396]	; 0x18c
 80073e6:	f8d0 c1bc 	ldr.w	ip, [r0, #444]	; 0x1bc
 80073ea:	f8d0 1500 	ldr.w	r1, [r0, #1280]	; 0x500
 80073ee:	f8d0 8210 	ldr.w	r8, [r0, #528]	; 0x210
 80073f2:	f8d0 250c 	ldr.w	r2, [r0, #1292]	; 0x50c
 80073f6:	f8d0 91a4 	ldr.w	r9, [r0, #420]	; 0x1a4
 80073fa:	f8d0 e510 	ldr.w	lr, [r0, #1296]	; 0x510
 80073fe:	ea9c 0c01 	eors.w	ip, ip, r1
 8007402:	ea98 0802 	eors.w	r8, r8, r2
 8007406:	ea99 090e 	eors.w	r9, r9, lr
 800740a:	f8d0 a1fc 	ldr.w	sl, [r0, #508]	; 0x1fc
 800740e:	f8d0 151c 	ldr.w	r1, [r0, #1308]	; 0x51c
 8007412:	f8d0 b254 	ldr.w	fp, [r0, #596]	; 0x254
 8007416:	f8d0 e520 	ldr.w	lr, [r0, #1312]	; 0x520
 800741a:	ea9a 0a01 	eors.w	sl, sl, r1
 800741e:	ea9b 0b0e 	eors.w	fp, fp, lr
 8007422:	ea5f 5cfc 	movs.w	ip, ip, ror #23
 8007426:	ea5f 78f8 	movs.w	r8, r8, ror #31
 800742a:	ea5f 7979 	movs.w	r9, r9, ror #29
 800742e:	ea5f 4afa 	movs.w	sl, sl, ror #19
 8007432:	ea5f 7b3b 	movs.w	fp, fp, ror #28
 8007436:	ea93 0105 	eors.w	r1, r3, r5
 800743a:	ea04 0205 	and.w	r2, r4, r5
 800743e:	4051      	eors	r1, r2
 8007440:	ea04 020a 	and.w	r2, r4, sl
 8007444:	4051      	eors	r1, r2
 8007446:	ea09 0205 	and.w	r2, r9, r5
 800744a:	4051      	eors	r1, r2
 800744c:	f8c0 1284 	str.w	r1, [r0, #644]	; 0x284
 8007450:	ea94 0106 	eors.w	r1, r4, r6
 8007454:	ea05 0206 	and.w	r2, r5, r6
 8007458:	4051      	eors	r1, r2
 800745a:	ea05 020b 	and.w	r2, r5, fp
 800745e:	4051      	eors	r1, r2
 8007460:	ea0a 0206 	and.w	r2, sl, r6
 8007464:	4051      	eors	r1, r2
 8007466:	f8c0 12d8 	str.w	r1, [r0, #728]	; 0x2d8
 800746a:	ea95 0107 	eors.w	r1, r5, r7
 800746e:	ea06 0207 	and.w	r2, r6, r7
 8007472:	4051      	eors	r1, r2
 8007474:	ea06 020c 	and.w	r2, r6, ip
 8007478:	4051      	eors	r1, r2
 800747a:	ea0b 0207 	and.w	r2, fp, r7
 800747e:	4051      	eors	r1, r2
 8007480:	f8c0 126c 	str.w	r1, [r0, #620]	; 0x26c
 8007484:	ea96 0103 	eors.w	r1, r6, r3
 8007488:	ea07 0203 	and.w	r2, r7, r3
 800748c:	4051      	eors	r1, r2
 800748e:	ea07 0208 	and.w	r2, r7, r8
 8007492:	4051      	eors	r1, r2
 8007494:	ea0c 0203 	and.w	r2, ip, r3
 8007498:	4051      	eors	r1, r2
 800749a:	f8c0 12c4 	str.w	r1, [r0, #708]	; 0x2c4
 800749e:	ea97 0104 	eors.w	r1, r7, r4
 80074a2:	ea03 0204 	and.w	r2, r3, r4
 80074a6:	4051      	eors	r1, r2
 80074a8:	ea03 0209 	and.w	r2, r3, r9
 80074ac:	4051      	eors	r1, r2
 80074ae:	ea08 0204 	and.w	r2, r8, r4
 80074b2:	4051      	eors	r1, r2
 80074b4:	f8c0 131c 	str.w	r1, [r0, #796]	; 0x31c
 80074b8:	6ac7      	ldr	r7, [r0, #44]	; 0x2c
 80074ba:	f8d0 14b0 	ldr.w	r1, [r0, #1200]	; 0x4b0
 80074be:	f8d0 3080 	ldr.w	r3, [r0, #128]	; 0x80
 80074c2:	f8d0 24bc 	ldr.w	r2, [r0, #1212]	; 0x4bc
 80074c6:	6944      	ldr	r4, [r0, #20]
 80074c8:	f8d0 e4c0 	ldr.w	lr, [r0, #1216]	; 0x4c0
 80074cc:	404f      	eors	r7, r1
 80074ce:	4053      	eors	r3, r2
 80074d0:	ea94 040e 	eors.w	r4, r4, lr
 80074d4:	6ec5      	ldr	r5, [r0, #108]	; 0x6c
 80074d6:	f8d0 14cc 	ldr.w	r1, [r0, #1228]	; 0x4cc
 80074da:	f8d0 60c4 	ldr.w	r6, [r0, #196]	; 0xc4
 80074de:	f8d0 e4d0 	ldr.w	lr, [r0, #1232]	; 0x4d0
 80074e2:	404d      	eors	r5, r1
 80074e4:	ea96 060e 	eors.w	r6, r6, lr
 80074e8:	ea5f 57f7 	movs.w	r7, r7, ror #23
 80074ec:	ea5f 73f3 	movs.w	r3, r3, ror #31
 80074f0:	ea5f 7474 	movs.w	r4, r4, ror #29
 80074f4:	ea5f 45f5 	movs.w	r5, r5, ror #19
 80074f8:	ea5f 7636 	movs.w	r6, r6, ror #28
 80074fc:	ea98 010a 	eors.w	r1, r8, sl
 8007500:	ea09 020a 	and.w	r2, r9, sl
 8007504:	4051      	eors	r1, r2
 8007506:	ea09 0205 	and.w	r2, r9, r5
 800750a:	4051      	eors	r1, r2
 800750c:	ea04 020a 	and.w	r2, r4, sl
 8007510:	4051      	eors	r1, r2
 8007512:	f8c0 134c 	str.w	r1, [r0, #844]	; 0x34c
 8007516:	ea99 010b 	eors.w	r1, r9, fp
 800751a:	ea0a 020b 	and.w	r2, sl, fp
 800751e:	4051      	eors	r1, r2
 8007520:	ea0a 0206 	and.w	r2, sl, r6
 8007524:	4051      	eors	r1, r2
 8007526:	ea05 020b 	and.w	r2, r5, fp
 800752a:	4051      	eors	r1, r2
 800752c:	f8c0 13a0 	str.w	r1, [r0, #928]	; 0x3a0
 8007530:	ea9a 010c 	eors.w	r1, sl, ip
 8007534:	ea0b 020c 	and.w	r2, fp, ip
 8007538:	4051      	eors	r1, r2
 800753a:	ea0b 0207 	and.w	r2, fp, r7
 800753e:	4051      	eors	r1, r2
 8007540:	ea06 020c 	and.w	r2, r6, ip
 8007544:	4051      	eors	r1, r2
 8007546:	f8c0 1334 	str.w	r1, [r0, #820]	; 0x334
 800754a:	ea9b 0108 	eors.w	r1, fp, r8
 800754e:	ea0c 0208 	and.w	r2, ip, r8
 8007552:	4051      	eors	r1, r2
 8007554:	ea0c 0203 	and.w	r2, ip, r3
 8007558:	4051      	eors	r1, r2
 800755a:	ea07 0208 	and.w	r2, r7, r8
 800755e:	4051      	eors	r1, r2
 8007560:	f8c0 138c 	str.w	r1, [r0, #908]	; 0x38c
 8007564:	ea9c 0109 	eors.w	r1, ip, r9
 8007568:	ea08 0209 	and.w	r2, r8, r9
 800756c:	4051      	eors	r1, r2
 800756e:	ea08 0204 	and.w	r2, r8, r4
 8007572:	4051      	eors	r1, r2
 8007574:	ea03 0209 	and.w	r2, r3, r9
 8007578:	4051      	eors	r1, r2
 800757a:	f8c0 13e4 	str.w	r1, [r0, #996]	; 0x3e4
 800757e:	f8d0 c0f4 	ldr.w	ip, [r0, #244]	; 0xf4
 8007582:	f8d0 8148 	ldr.w	r8, [r0, #328]	; 0x148
 8007586:	f8d0 90dc 	ldr.w	r9, [r0, #220]	; 0xdc
 800758a:	f8d0 a134 	ldr.w	sl, [r0, #308]	; 0x134
 800758e:	f8d0 b18c 	ldr.w	fp, [r0, #396]	; 0x18c
 8007592:	ea93 0105 	eors.w	r1, r3, r5
 8007596:	ea04 0205 	and.w	r2, r4, r5
 800759a:	4051      	eors	r1, r2
 800759c:	ea04 020a 	and.w	r2, r4, sl
 80075a0:	4051      	eors	r1, r2
 80075a2:	ea09 0205 	and.w	r2, r9, r5
 80075a6:	4051      	eors	r1, r2
 80075a8:	f8c0 1414 	str.w	r1, [r0, #1044]	; 0x414
 80075ac:	ea94 0106 	eors.w	r1, r4, r6
 80075b0:	ea05 0206 	and.w	r2, r5, r6
 80075b4:	4051      	eors	r1, r2
 80075b6:	ea05 020b 	and.w	r2, r5, fp
 80075ba:	4051      	eors	r1, r2
 80075bc:	ea0a 0206 	and.w	r2, sl, r6
 80075c0:	4051      	eors	r1, r2
 80075c2:	f8c0 1468 	str.w	r1, [r0, #1128]	; 0x468
 80075c6:	ea95 0107 	eors.w	r1, r5, r7
 80075ca:	ea06 0207 	and.w	r2, r6, r7
 80075ce:	4051      	eors	r1, r2
 80075d0:	ea06 020c 	and.w	r2, r6, ip
 80075d4:	4051      	eors	r1, r2
 80075d6:	ea0b 0207 	and.w	r2, fp, r7
 80075da:	4051      	eors	r1, r2
 80075dc:	f8c0 13fc 	str.w	r1, [r0, #1020]	; 0x3fc
 80075e0:	ea96 0103 	eors.w	r1, r6, r3
 80075e4:	ea07 0203 	and.w	r2, r7, r3
 80075e8:	4051      	eors	r1, r2
 80075ea:	ea07 0208 	and.w	r2, r7, r8
 80075ee:	4051      	eors	r1, r2
 80075f0:	ea0c 0203 	and.w	r2, ip, r3
 80075f4:	4051      	eors	r1, r2
 80075f6:	f8c0 1454 	str.w	r1, [r0, #1108]	; 0x454
 80075fa:	ea97 0104 	eors.w	r1, r7, r4
 80075fe:	ea03 0204 	and.w	r2, r3, r4
 8007602:	4051      	eors	r1, r2
 8007604:	ea03 0209 	and.w	r2, r3, r9
 8007608:	4051      	eors	r1, r2
 800760a:	ea08 0204 	and.w	r2, r8, r4
 800760e:	4051      	eors	r1, r2
 8007610:	f8c0 14ac 	str.w	r1, [r0, #1196]	; 0x4ac
 8007614:	e8bd 5f04 	ldmia.w	sp!, {r2, r8, r9, sl, fp, ip, lr}
 8007618:	f8d0 84dc 	ldr.w	r8, [r0, #1244]	; 0x4dc
 800761c:	e92d 5f04 	stmdb	sp!, {r2, r8, r9, sl, fp, ip, lr}
 8007620:	f8d0 4168 	ldr.w	r4, [r0, #360]	; 0x168
 8007624:	f8d0 50f8 	ldr.w	r5, [r0, #248]	; 0xf8
 8007628:	f8d0 6150 	ldr.w	r6, [r0, #336]	; 0x150
 800762c:	f8d0 70e0 	ldr.w	r7, [r0, #224]	; 0xe0
 8007630:	f8d0 313c 	ldr.w	r3, [r0, #316]	; 0x13c
 8007634:	ea94 0408 	eors.w	r4, r4, r8
 8007638:	ea95 050b 	eors.w	r5, r5, fp
 800763c:	4056      	eors	r6, r2
 800763e:	ea97 0709 	eors.w	r7, r7, r9
 8007642:	ea93 030c 	eors.w	r3, r3, ip
 8007646:	ea5f 34b4 	movs.w	r4, r4, ror #14
 800764a:	ea5f 65f5 	movs.w	r5, r5, ror #27
 800764e:	ea5f 6676 	movs.w	r6, r6, ror #25
 8007652:	ea5f 1737 	movs.w	r7, r7, ror #4
 8007656:	ea5f 43f3 	movs.w	r3, r3, ror #19
 800765a:	f8c0 4168 	str.w	r4, [r0, #360]	; 0x168
 800765e:	f8c0 50f8 	str.w	r5, [r0, #248]	; 0xf8
 8007662:	f8c0 6150 	str.w	r6, [r0, #336]	; 0x150
 8007666:	f8c0 70e0 	str.w	r7, [r0, #224]	; 0xe0
 800766a:	f8c0 313c 	str.w	r3, [r0, #316]	; 0x13c
 800766e:	f8d0 9230 	ldr.w	r9, [r0, #560]	; 0x230
 8007672:	f8d0 1504 	ldr.w	r1, [r0, #1284]	; 0x504
 8007676:	f8d0 a1c0 	ldr.w	sl, [r0, #448]	; 0x1c0
 800767a:	f8d0 250c 	ldr.w	r2, [r0, #1292]	; 0x50c
 800767e:	f8d0 b218 	ldr.w	fp, [r0, #536]	; 0x218
 8007682:	f8d0 e510 	ldr.w	lr, [r0, #1296]	; 0x510
 8007686:	ea99 0901 	eors.w	r9, r9, r1
 800768a:	ea9a 0a02 	eors.w	sl, sl, r2
 800768e:	ea9b 0b0e 	eors.w	fp, fp, lr
 8007692:	f8d0 c1a8 	ldr.w	ip, [r0, #424]	; 0x1a8
 8007696:	f8d0 151c 	ldr.w	r1, [r0, #1308]	; 0x51c
 800769a:	f8d0 8204 	ldr.w	r8, [r0, #516]	; 0x204
 800769e:	f8d0 e520 	ldr.w	lr, [r0, #1312]	; 0x520
 80076a2:	ea9c 0c01 	eors.w	ip, ip, r1
 80076a6:	ea98 080e 	eors.w	r8, r8, lr
 80076aa:	ea5f 39b9 	movs.w	r9, r9, ror #14
 80076ae:	ea5f 6afa 	movs.w	sl, sl, ror #27
 80076b2:	ea5f 6b7b 	movs.w	fp, fp, ror #25
 80076b6:	ea5f 1c3c 	movs.w	ip, ip, ror #4
 80076ba:	ea5f 48f8 	movs.w	r8, r8, ror #19
 80076be:	ea93 0105 	eors.w	r1, r3, r5
 80076c2:	ea04 0205 	and.w	r2, r4, r5
 80076c6:	4051      	eors	r1, r2
 80076c8:	ea04 020a 	and.w	r2, r4, sl
 80076cc:	4051      	eors	r1, r2
 80076ce:	ea09 0205 	and.w	r2, r9, r5
 80076d2:	4051      	eors	r1, r2
 80076d4:	f8c0 12f8 	str.w	r1, [r0, #760]	; 0x2f8
 80076d8:	ea94 0106 	eors.w	r1, r4, r6
 80076dc:	ea05 0206 	and.w	r2, r5, r6
 80076e0:	4051      	eors	r1, r2
 80076e2:	ea05 020b 	and.w	r2, r5, fp
 80076e6:	4051      	eors	r1, r2
 80076e8:	ea0a 0206 	and.w	r2, sl, r6
 80076ec:	4051      	eors	r1, r2
 80076ee:	f8c0 1288 	str.w	r1, [r0, #648]	; 0x288
 80076f2:	ea95 0107 	eors.w	r1, r5, r7
 80076f6:	ea06 0207 	and.w	r2, r6, r7
 80076fa:	4051      	eors	r1, r2
 80076fc:	ea06 020c 	and.w	r2, r6, ip
 8007700:	4051      	eors	r1, r2
 8007702:	ea0b 0207 	and.w	r2, fp, r7
 8007706:	4051      	eors	r1, r2
 8007708:	f8c0 12e0 	str.w	r1, [r0, #736]	; 0x2e0
 800770c:	ea96 0103 	eors.w	r1, r6, r3
 8007710:	ea07 0203 	and.w	r2, r7, r3
 8007714:	4051      	eors	r1, r2
 8007716:	ea07 0208 	and.w	r2, r7, r8
 800771a:	4051      	eors	r1, r2
 800771c:	ea0c 0203 	and.w	r2, ip, r3
 8007720:	4051      	eors	r1, r2
 8007722:	f8c0 1270 	str.w	r1, [r0, #624]	; 0x270
 8007726:	ea97 0104 	eors.w	r1, r7, r4
 800772a:	ea03 0204 	and.w	r2, r3, r4
 800772e:	4051      	eors	r1, r2
 8007730:	ea03 0209 	and.w	r2, r3, r9
 8007734:	4051      	eors	r1, r2
 8007736:	ea08 0204 	and.w	r2, r8, r4
 800773a:	4051      	eors	r1, r2
 800773c:	f8c0 12cc 	str.w	r1, [r0, #716]	; 0x2cc
 8007740:	f8d0 40a0 	ldr.w	r4, [r0, #160]	; 0xa0
 8007744:	f8d0 14b4 	ldr.w	r1, [r0, #1204]	; 0x4b4
 8007748:	6b05      	ldr	r5, [r0, #48]	; 0x30
 800774a:	f8d0 24bc 	ldr.w	r2, [r0, #1212]	; 0x4bc
 800774e:	f8d0 6088 	ldr.w	r6, [r0, #136]	; 0x88
 8007752:	f8d0 e4c0 	ldr.w	lr, [r0, #1216]	; 0x4c0
 8007756:	404c      	eors	r4, r1
 8007758:	4055      	eors	r5, r2
 800775a:	ea96 060e 	eors.w	r6, r6, lr
 800775e:	6987      	ldr	r7, [r0, #24]
 8007760:	f8d0 14cc 	ldr.w	r1, [r0, #1228]	; 0x4cc
 8007764:	6f43      	ldr	r3, [r0, #116]	; 0x74
 8007766:	f8d0 e4d0 	ldr.w	lr, [r0, #1232]	; 0x4d0
 800776a:	404f      	eors	r7, r1
 800776c:	ea93 030e 	eors.w	r3, r3, lr
 8007770:	ea5f 34b4 	movs.w	r4, r4, ror #14
 8007774:	ea5f 65f5 	movs.w	r5, r5, ror #27
 8007778:	ea5f 6676 	movs.w	r6, r6, ror #25
 800777c:	ea5f 1737 	movs.w	r7, r7, ror #4
 8007780:	ea5f 43f3 	movs.w	r3, r3, ror #19
 8007784:	ea98 010a 	eors.w	r1, r8, sl
 8007788:	ea09 020a 	and.w	r2, r9, sl
 800778c:	4051      	eors	r1, r2
 800778e:	ea09 0205 	and.w	r2, r9, r5
 8007792:	4051      	eors	r1, r2
 8007794:	ea04 020a 	and.w	r2, r4, sl
 8007798:	4051      	eors	r1, r2
 800779a:	f8c0 13c0 	str.w	r1, [r0, #960]	; 0x3c0
 800779e:	ea99 010b 	eors.w	r1, r9, fp
 80077a2:	ea0a 020b 	and.w	r2, sl, fp
 80077a6:	4051      	eors	r1, r2
 80077a8:	ea0a 0206 	and.w	r2, sl, r6
 80077ac:	4051      	eors	r1, r2
 80077ae:	ea05 020b 	and.w	r2, r5, fp
 80077b2:	4051      	eors	r1, r2
 80077b4:	f8c0 1350 	str.w	r1, [r0, #848]	; 0x350
 80077b8:	ea9a 010c 	eors.w	r1, sl, ip
 80077bc:	ea0b 020c 	and.w	r2, fp, ip
 80077c0:	4051      	eors	r1, r2
 80077c2:	ea0b 0207 	and.w	r2, fp, r7
 80077c6:	4051      	eors	r1, r2
 80077c8:	ea06 020c 	and.w	r2, r6, ip
 80077cc:	4051      	eors	r1, r2
 80077ce:	f8c0 13a8 	str.w	r1, [r0, #936]	; 0x3a8
 80077d2:	ea9b 0108 	eors.w	r1, fp, r8
 80077d6:	ea0c 0208 	and.w	r2, ip, r8
 80077da:	4051      	eors	r1, r2
 80077dc:	ea0c 0203 	and.w	r2, ip, r3
 80077e0:	4051      	eors	r1, r2
 80077e2:	ea07 0208 	and.w	r2, r7, r8
 80077e6:	4051      	eors	r1, r2
 80077e8:	f8c0 1338 	str.w	r1, [r0, #824]	; 0x338
 80077ec:	ea9c 0109 	eors.w	r1, ip, r9
 80077f0:	ea08 0209 	and.w	r2, r8, r9
 80077f4:	4051      	eors	r1, r2
 80077f6:	ea08 0204 	and.w	r2, r8, r4
 80077fa:	4051      	eors	r1, r2
 80077fc:	ea03 0209 	and.w	r2, r3, r9
 8007800:	4051      	eors	r1, r2
 8007802:	f8c0 1394 	str.w	r1, [r0, #916]	; 0x394
 8007806:	f8d0 9168 	ldr.w	r9, [r0, #360]	; 0x168
 800780a:	f8d0 a0f8 	ldr.w	sl, [r0, #248]	; 0xf8
 800780e:	f8d0 b150 	ldr.w	fp, [r0, #336]	; 0x150
 8007812:	f8d0 c0e0 	ldr.w	ip, [r0, #224]	; 0xe0
 8007816:	f8d0 813c 	ldr.w	r8, [r0, #316]	; 0x13c
 800781a:	ea93 0105 	eors.w	r1, r3, r5
 800781e:	ea04 0205 	and.w	r2, r4, r5
 8007822:	4051      	eors	r1, r2
 8007824:	ea04 020a 	and.w	r2, r4, sl
 8007828:	4051      	eors	r1, r2
 800782a:	ea09 0205 	and.w	r2, r9, r5
 800782e:	4051      	eors	r1, r2
 8007830:	f8c0 1488 	str.w	r1, [r0, #1160]	; 0x488
 8007834:	ea94 0106 	eors.w	r1, r4, r6
 8007838:	ea05 0206 	and.w	r2, r5, r6
 800783c:	4051      	eors	r1, r2
 800783e:	ea05 020b 	and.w	r2, r5, fp
 8007842:	4051      	eors	r1, r2
 8007844:	ea0a 0206 	and.w	r2, sl, r6
 8007848:	4051      	eors	r1, r2
 800784a:	f8c0 1418 	str.w	r1, [r0, #1048]	; 0x418
 800784e:	ea95 0107 	eors.w	r1, r5, r7
 8007852:	ea06 0207 	and.w	r2, r6, r7
 8007856:	4051      	eors	r1, r2
 8007858:	ea06 020c 	and.w	r2, r6, ip
 800785c:	4051      	eors	r1, r2
 800785e:	ea0b 0207 	and.w	r2, fp, r7
 8007862:	4051      	eors	r1, r2
 8007864:	f8c0 1470 	str.w	r1, [r0, #1136]	; 0x470
 8007868:	ea96 0103 	eors.w	r1, r6, r3
 800786c:	ea07 0203 	and.w	r2, r7, r3
 8007870:	4051      	eors	r1, r2
 8007872:	ea07 0208 	and.w	r2, r7, r8
 8007876:	4051      	eors	r1, r2
 8007878:	ea0c 0203 	and.w	r2, ip, r3
 800787c:	4051      	eors	r1, r2
 800787e:	f8c0 1400 	str.w	r1, [r0, #1024]	; 0x400
 8007882:	ea97 0104 	eors.w	r1, r7, r4
 8007886:	ea03 0204 	and.w	r2, r3, r4
 800788a:	4051      	eors	r1, r2
 800788c:	ea03 0209 	and.w	r2, r3, r9
 8007890:	4051      	eors	r1, r2
 8007892:	ea08 0204 	and.w	r2, r8, r4
 8007896:	4051      	eors	r1, r2
 8007898:	f8c0 145c 	str.w	r1, [r0, #1116]	; 0x45c
 800789c:	e8bd 5f04 	ldmia.w	sp!, {r2, r8, r9, sl, fp, ip, lr}
 80078a0:	e92d 5f04 	stmdb	sp!, {r2, r8, r9, sl, fp, ip, lr}
 80078a4:	f8d0 6118 	ldr.w	r6, [r0, #280]	; 0x118
 80078a8:	f8d0 7170 	ldr.w	r7, [r0, #368]	; 0x170
 80078ac:	f8d0 3104 	ldr.w	r3, [r0, #260]	; 0x104
 80078b0:	f8d0 4158 	ldr.w	r4, [r0, #344]	; 0x158
 80078b4:	f8d0 50e8 	ldr.w	r5, [r0, #232]	; 0xe8
 80078b8:	ea96 0608 	eors.w	r6, r6, r8
 80078bc:	ea97 070a 	eors.w	r7, r7, sl
 80078c0:	4053      	eors	r3, r2
 80078c2:	ea94 0409 	eors.w	r4, r4, r9
 80078c6:	ea95 050e 	eors.w	r5, r5, lr
 80078ca:	ea5f 26f6 	movs.w	r6, r6, ror #11
 80078ce:	ea5f 77f7 	movs.w	r7, r7, ror #31
 80078d2:	ea5f 0373 	movs.w	r3, r3, ror #1
 80078d6:	ea5f 1434 	movs.w	r4, r4, ror #4
 80078da:	ea5f 3535 	movs.w	r5, r5, ror #12
 80078de:	f8c0 6118 	str.w	r6, [r0, #280]	; 0x118
 80078e2:	f8c0 7170 	str.w	r7, [r0, #368]	; 0x170
 80078e6:	f8c0 3104 	str.w	r3, [r0, #260]	; 0x104
 80078ea:	f8c0 4158 	str.w	r4, [r0, #344]	; 0x158
 80078ee:	f8c0 50e8 	str.w	r5, [r0, #232]	; 0xe8
 80078f2:	f8d0 b1e0 	ldr.w	fp, [r0, #480]	; 0x1e0
 80078f6:	f8d0 1504 	ldr.w	r1, [r0, #1284]	; 0x504
 80078fa:	f8d0 c238 	ldr.w	ip, [r0, #568]	; 0x238
 80078fe:	f8d0 2508 	ldr.w	r2, [r0, #1288]	; 0x508
 8007902:	f8d0 81cc 	ldr.w	r8, [r0, #460]	; 0x1cc
 8007906:	f8d0 e510 	ldr.w	lr, [r0, #1296]	; 0x510
 800790a:	ea9b 0b01 	eors.w	fp, fp, r1
 800790e:	ea9c 0c02 	eors.w	ip, ip, r2
 8007912:	ea98 080e 	eors.w	r8, r8, lr
 8007916:	f8d0 9220 	ldr.w	r9, [r0, #544]	; 0x220
 800791a:	f8d0 151c 	ldr.w	r1, [r0, #1308]	; 0x51c
 800791e:	f8d0 a1b0 	ldr.w	sl, [r0, #432]	; 0x1b0
 8007922:	f8d0 e524 	ldr.w	lr, [r0, #1316]	; 0x524
 8007926:	ea99 0901 	eors.w	r9, r9, r1
 800792a:	ea9a 0a0e 	eors.w	sl, sl, lr
 800792e:	ea5f 2bfb 	movs.w	fp, fp, ror #11
 8007932:	ea5f 7cfc 	movs.w	ip, ip, ror #31
 8007936:	ea5f 0878 	movs.w	r8, r8, ror #1
 800793a:	ea5f 1939 	movs.w	r9, r9, ror #4
 800793e:	ea5f 3a3a 	movs.w	sl, sl, ror #12
 8007942:	ea93 0105 	eors.w	r1, r3, r5
 8007946:	ea04 0205 	and.w	r2, r4, r5
 800794a:	4051      	eors	r1, r2
 800794c:	ea04 020a 	and.w	r2, r4, sl
 8007950:	4051      	eors	r1, r2
 8007952:	ea09 0205 	and.w	r2, r9, r5
 8007956:	4051      	eors	r1, r2
 8007958:	f8c0 12a8 	str.w	r1, [r0, #680]	; 0x2a8
 800795c:	ea94 0106 	eors.w	r1, r4, r6
 8007960:	ea05 0206 	and.w	r2, r5, r6
 8007964:	4051      	eors	r1, r2
 8007966:	ea05 020b 	and.w	r2, r5, fp
 800796a:	4051      	eors	r1, r2
 800796c:	ea0a 0206 	and.w	r2, sl, r6
 8007970:	4051      	eors	r1, r2
 8007972:	f8c0 1300 	str.w	r1, [r0, #768]	; 0x300
 8007976:	ea95 0107 	eors.w	r1, r5, r7
 800797a:	ea06 0207 	and.w	r2, r6, r7
 800797e:	4051      	eors	r1, r2
 8007980:	ea06 020c 	and.w	r2, r6, ip
 8007984:	4051      	eors	r1, r2
 8007986:	ea0b 0207 	and.w	r2, fp, r7
 800798a:	4051      	eors	r1, r2
 800798c:	f8c0 1294 	str.w	r1, [r0, #660]	; 0x294
 8007990:	ea96 0103 	eors.w	r1, r6, r3
 8007994:	ea07 0203 	and.w	r2, r7, r3
 8007998:	4051      	eors	r1, r2
 800799a:	ea07 0208 	and.w	r2, r7, r8
 800799e:	4051      	eors	r1, r2
 80079a0:	ea0c 0203 	and.w	r2, ip, r3
 80079a4:	4051      	eors	r1, r2
 80079a6:	f8c0 12e8 	str.w	r1, [r0, #744]	; 0x2e8
 80079aa:	ea97 0104 	eors.w	r1, r7, r4
 80079ae:	ea03 0204 	and.w	r2, r3, r4
 80079b2:	4051      	eors	r1, r2
 80079b4:	ea03 0209 	and.w	r2, r3, r9
 80079b8:	4051      	eors	r1, r2
 80079ba:	ea08 0204 	and.w	r2, r8, r4
 80079be:	4051      	eors	r1, r2
 80079c0:	f8c0 1278 	str.w	r1, [r0, #632]	; 0x278
 80079c4:	6d06      	ldr	r6, [r0, #80]	; 0x50
 80079c6:	f8d0 14b4 	ldr.w	r1, [r0, #1204]	; 0x4b4
 80079ca:	f8d0 70a8 	ldr.w	r7, [r0, #168]	; 0xa8
 80079ce:	f8d0 24b8 	ldr.w	r2, [r0, #1208]	; 0x4b8
 80079d2:	6bc3      	ldr	r3, [r0, #60]	; 0x3c
 80079d4:	f8d0 e4c0 	ldr.w	lr, [r0, #1216]	; 0x4c0
 80079d8:	404e      	eors	r6, r1
 80079da:	4057      	eors	r7, r2
 80079dc:	ea93 030e 	eors.w	r3, r3, lr
 80079e0:	f8d0 4090 	ldr.w	r4, [r0, #144]	; 0x90
 80079e4:	f8d0 14cc 	ldr.w	r1, [r0, #1228]	; 0x4cc
 80079e8:	6a05      	ldr	r5, [r0, #32]
 80079ea:	f8d0 e4d4 	ldr.w	lr, [r0, #1236]	; 0x4d4
 80079ee:	404c      	eors	r4, r1
 80079f0:	ea95 050e 	eors.w	r5, r5, lr
 80079f4:	ea5f 26f6 	movs.w	r6, r6, ror #11
 80079f8:	ea5f 77f7 	movs.w	r7, r7, ror #31
 80079fc:	ea5f 0373 	movs.w	r3, r3, ror #1
 8007a00:	ea5f 1434 	movs.w	r4, r4, ror #4
 8007a04:	ea5f 3535 	movs.w	r5, r5, ror #12
 8007a08:	ea98 010a 	eors.w	r1, r8, sl
 8007a0c:	ea09 020a 	and.w	r2, r9, sl
 8007a10:	4051      	eors	r1, r2
 8007a12:	ea09 0205 	and.w	r2, r9, r5
 8007a16:	4051      	eors	r1, r2
 8007a18:	ea04 020a 	and.w	r2, r4, sl
 8007a1c:	4051      	eors	r1, r2
 8007a1e:	f8c0 1370 	str.w	r1, [r0, #880]	; 0x370
 8007a22:	ea99 010b 	eors.w	r1, r9, fp
 8007a26:	ea0a 020b 	and.w	r2, sl, fp
 8007a2a:	4051      	eors	r1, r2
 8007a2c:	ea0a 0206 	and.w	r2, sl, r6
 8007a30:	4051      	eors	r1, r2
 8007a32:	ea05 020b 	and.w	r2, r5, fp
 8007a36:	4051      	eors	r1, r2
 8007a38:	f8c0 13c8 	str.w	r1, [r0, #968]	; 0x3c8
 8007a3c:	ea9a 010c 	eors.w	r1, sl, ip
 8007a40:	ea0b 020c 	and.w	r2, fp, ip
 8007a44:	4051      	eors	r1, r2
 8007a46:	ea0b 0207 	and.w	r2, fp, r7
 8007a4a:	4051      	eors	r1, r2
 8007a4c:	ea06 020c 	and.w	r2, r6, ip
 8007a50:	4051      	eors	r1, r2
 8007a52:	f8c0 135c 	str.w	r1, [r0, #860]	; 0x35c
 8007a56:	ea9b 0108 	eors.w	r1, fp, r8
 8007a5a:	ea0c 0208 	and.w	r2, ip, r8
 8007a5e:	4051      	eors	r1, r2
 8007a60:	ea0c 0203 	and.w	r2, ip, r3
 8007a64:	4051      	eors	r1, r2
 8007a66:	ea07 0208 	and.w	r2, r7, r8
 8007a6a:	4051      	eors	r1, r2
 8007a6c:	f8c0 13b0 	str.w	r1, [r0, #944]	; 0x3b0
 8007a70:	ea9c 0109 	eors.w	r1, ip, r9
 8007a74:	ea08 0209 	and.w	r2, r8, r9
 8007a78:	4051      	eors	r1, r2
 8007a7a:	ea08 0204 	and.w	r2, r8, r4
 8007a7e:	4051      	eors	r1, r2
 8007a80:	ea03 0209 	and.w	r2, r3, r9
 8007a84:	4051      	eors	r1, r2
 8007a86:	f8c0 1340 	str.w	r1, [r0, #832]	; 0x340
 8007a8a:	f8d0 b118 	ldr.w	fp, [r0, #280]	; 0x118
 8007a8e:	f8d0 c170 	ldr.w	ip, [r0, #368]	; 0x170
 8007a92:	f8d0 8104 	ldr.w	r8, [r0, #260]	; 0x104
 8007a96:	f8d0 9158 	ldr.w	r9, [r0, #344]	; 0x158
 8007a9a:	f8d0 a0e8 	ldr.w	sl, [r0, #232]	; 0xe8
 8007a9e:	ea93 0105 	eors.w	r1, r3, r5
 8007aa2:	ea04 0205 	and.w	r2, r4, r5
 8007aa6:	4051      	eors	r1, r2
 8007aa8:	ea04 020a 	and.w	r2, r4, sl
 8007aac:	4051      	eors	r1, r2
 8007aae:	ea09 0205 	and.w	r2, r9, r5
 8007ab2:	4051      	eors	r1, r2
 8007ab4:	f8c0 1438 	str.w	r1, [r0, #1080]	; 0x438
 8007ab8:	ea94 0106 	eors.w	r1, r4, r6
 8007abc:	ea05 0206 	and.w	r2, r5, r6
 8007ac0:	4051      	eors	r1, r2
 8007ac2:	ea05 020b 	and.w	r2, r5, fp
 8007ac6:	4051      	eors	r1, r2
 8007ac8:	ea0a 0206 	and.w	r2, sl, r6
 8007acc:	4051      	eors	r1, r2
 8007ace:	f8c0 1490 	str.w	r1, [r0, #1168]	; 0x490
 8007ad2:	ea95 0107 	eors.w	r1, r5, r7
 8007ad6:	ea06 0207 	and.w	r2, r6, r7
 8007ada:	4051      	eors	r1, r2
 8007adc:	ea06 020c 	and.w	r2, r6, ip
 8007ae0:	4051      	eors	r1, r2
 8007ae2:	ea0b 0207 	and.w	r2, fp, r7
 8007ae6:	4051      	eors	r1, r2
 8007ae8:	f8c0 1424 	str.w	r1, [r0, #1060]	; 0x424
 8007aec:	ea96 0103 	eors.w	r1, r6, r3
 8007af0:	ea07 0203 	and.w	r2, r7, r3
 8007af4:	4051      	eors	r1, r2
 8007af6:	ea07 0208 	and.w	r2, r7, r8
 8007afa:	4051      	eors	r1, r2
 8007afc:	ea0c 0203 	and.w	r2, ip, r3
 8007b00:	4051      	eors	r1, r2
 8007b02:	f8c0 1478 	str.w	r1, [r0, #1144]	; 0x478
 8007b06:	ea97 0104 	eors.w	r1, r7, r4
 8007b0a:	ea03 0204 	and.w	r2, r3, r4
 8007b0e:	4051      	eors	r1, r2
 8007b10:	ea03 0209 	and.w	r2, r3, r9
 8007b14:	4051      	eors	r1, r2
 8007b16:	ea08 0204 	and.w	r2, r8, r4
 8007b1a:	4051      	eors	r1, r2
 8007b1c:	f8c0 1408 	str.w	r1, [r0, #1032]	; 0x408
 8007b20:	e8bd 5f04 	ldmia.w	sp!, {r2, r8, r9, sl, fp, ip, lr}
 8007b24:	f8d0 94f0 	ldr.w	r9, [r0, #1264]	; 0x4f0
 8007b28:	e92d 5f04 	stmdb	sp!, {r2, r8, r9, sl, fp, ip, lr}
 8007b2c:	f8d0 30cc 	ldr.w	r3, [r0, #204]	; 0xcc
 8007b30:	f8d0 4120 	ldr.w	r4, [r0, #288]	; 0x120
 8007b34:	f8d0 517c 	ldr.w	r5, [r0, #380]	; 0x17c
 8007b38:	f8d0 610c 	ldr.w	r6, [r0, #268]	; 0x10c
 8007b3c:	f8d0 7160 	ldr.w	r7, [r0, #352]	; 0x160
 8007b40:	ea93 0308 	eors.w	r3, r3, r8
 8007b44:	ea94 040b 	eors.w	r4, r4, fp
 8007b48:	4055      	eors	r5, r2
 8007b4a:	ea96 0609 	eors.w	r6, r6, r9
 8007b4e:	ea97 070e 	eors.w	r7, r7, lr
 8007b52:	ea5f 24b4 	movs.w	r4, r4, ror #10
 8007b56:	ea5f 25f5 	movs.w	r5, r5, ror #11
 8007b5a:	ea5f 56b6 	movs.w	r6, r6, ror #22
 8007b5e:	ea5f 6777 	movs.w	r7, r7, ror #25
 8007b62:	f8c0 30cc 	str.w	r3, [r0, #204]	; 0xcc
 8007b66:	f8c0 4120 	str.w	r4, [r0, #288]	; 0x120
 8007b6a:	f8c0 517c 	str.w	r5, [r0, #380]	; 0x17c
 8007b6e:	f8c0 610c 	str.w	r6, [r0, #268]	; 0x10c
 8007b72:	f8c0 7160 	str.w	r7, [r0, #352]	; 0x160
 8007b76:	f8d0 8194 	ldr.w	r8, [r0, #404]	; 0x194
 8007b7a:	f8d0 1504 	ldr.w	r1, [r0, #1284]	; 0x504
 8007b7e:	f8d0 91e8 	ldr.w	r9, [r0, #488]	; 0x1e8
 8007b82:	f8d0 250c 	ldr.w	r2, [r0, #1292]	; 0x50c
 8007b86:	f8d0 a244 	ldr.w	sl, [r0, #580]	; 0x244
 8007b8a:	f8d0 e510 	ldr.w	lr, [r0, #1296]	; 0x510
 8007b8e:	ea98 0801 	eors.w	r8, r8, r1
 8007b92:	ea99 0902 	eors.w	r9, r9, r2
 8007b96:	ea9a 0a0e 	eors.w	sl, sl, lr
 8007b9a:	f8d0 b1d4 	ldr.w	fp, [r0, #468]	; 0x1d4
 8007b9e:	f8d0 1518 	ldr.w	r1, [r0, #1304]	; 0x518
 8007ba2:	f8d0 c228 	ldr.w	ip, [r0, #552]	; 0x228
 8007ba6:	f8d0 e524 	ldr.w	lr, [r0, #1316]	; 0x524
 8007baa:	ea9b 0b01 	eors.w	fp, fp, r1
 8007bae:	ea9c 0c0e 	eors.w	ip, ip, lr
 8007bb2:	ea5f 29b9 	movs.w	r9, r9, ror #10
 8007bb6:	ea5f 2afa 	movs.w	sl, sl, ror #11
 8007bba:	ea5f 5bbb 	movs.w	fp, fp, ror #22
 8007bbe:	ea5f 6c7c 	movs.w	ip, ip, ror #25
 8007bc2:	ea93 0105 	eors.w	r1, r3, r5
 8007bc6:	ea04 0205 	and.w	r2, r4, r5
 8007bca:	4051      	eors	r1, r2
 8007bcc:	ea04 020a 	and.w	r2, r4, sl
 8007bd0:	4051      	eors	r1, r2
 8007bd2:	ea09 0205 	and.w	r2, r9, r5
 8007bd6:	4051      	eors	r1, r2
 8007bd8:	f8c0 125c 	str.w	r1, [r0, #604]	; 0x25c
 8007bdc:	ea94 0106 	eors.w	r1, r4, r6
 8007be0:	ea05 0206 	and.w	r2, r5, r6
 8007be4:	4051      	eors	r1, r2
 8007be6:	ea05 020b 	and.w	r2, r5, fp
 8007bea:	4051      	eors	r1, r2
 8007bec:	ea0a 0206 	and.w	r2, sl, r6
 8007bf0:	4051      	eors	r1, r2
 8007bf2:	f8c0 12b0 	str.w	r1, [r0, #688]	; 0x2b0
 8007bf6:	ea95 0107 	eors.w	r1, r5, r7
 8007bfa:	ea06 0207 	and.w	r2, r6, r7
 8007bfe:	4051      	eors	r1, r2
 8007c00:	ea06 020c 	and.w	r2, r6, ip
 8007c04:	4051      	eors	r1, r2
 8007c06:	ea0b 0207 	and.w	r2, fp, r7
 8007c0a:	4051      	eors	r1, r2
 8007c0c:	f8c0 130c 	str.w	r1, [r0, #780]	; 0x30c
 8007c10:	ea96 0103 	eors.w	r1, r6, r3
 8007c14:	ea07 0203 	and.w	r2, r7, r3
 8007c18:	4051      	eors	r1, r2
 8007c1a:	ea07 0208 	and.w	r2, r7, r8
 8007c1e:	4051      	eors	r1, r2
 8007c20:	ea0c 0203 	and.w	r2, ip, r3
 8007c24:	4051      	eors	r1, r2
 8007c26:	f8c0 129c 	str.w	r1, [r0, #668]	; 0x29c
 8007c2a:	ea97 0104 	eors.w	r1, r7, r4
 8007c2e:	ea03 0204 	and.w	r2, r3, r4
 8007c32:	4051      	eors	r1, r2
 8007c34:	ea03 0209 	and.w	r2, r3, r9
 8007c38:	4051      	eors	r1, r2
 8007c3a:	ea08 0204 	and.w	r2, r8, r4
 8007c3e:	4051      	eors	r1, r2
 8007c40:	f8c0 12f0 	str.w	r1, [r0, #752]	; 0x2f0
 8007c44:	6843      	ldr	r3, [r0, #4]
 8007c46:	f8d0 14b4 	ldr.w	r1, [r0, #1204]	; 0x4b4
 8007c4a:	6d84      	ldr	r4, [r0, #88]	; 0x58
 8007c4c:	f8d0 24bc 	ldr.w	r2, [r0, #1212]	; 0x4bc
 8007c50:	f8d0 50b4 	ldr.w	r5, [r0, #180]	; 0xb4
 8007c54:	f8d0 e4c0 	ldr.w	lr, [r0, #1216]	; 0x4c0
 8007c58:	404b      	eors	r3, r1
 8007c5a:	4054      	eors	r4, r2
 8007c5c:	ea95 050e 	eors.w	r5, r5, lr
 8007c60:	6c46      	ldr	r6, [r0, #68]	; 0x44
 8007c62:	f8d0 14c8 	ldr.w	r1, [r0, #1224]	; 0x4c8
 8007c66:	f8d0 7098 	ldr.w	r7, [r0, #152]	; 0x98
 8007c6a:	f8d0 e4d4 	ldr.w	lr, [r0, #1236]	; 0x4d4
 8007c6e:	404e      	eors	r6, r1
 8007c70:	ea97 070e 	eors.w	r7, r7, lr
 8007c74:	ea5f 24b4 	movs.w	r4, r4, ror #10
 8007c78:	ea5f 25f5 	movs.w	r5, r5, ror #11
 8007c7c:	ea5f 56b6 	movs.w	r6, r6, ror #22
 8007c80:	ea5f 6777 	movs.w	r7, r7, ror #25
 8007c84:	ea98 010a 	eors.w	r1, r8, sl
 8007c88:	ea09 020a 	and.w	r2, r9, sl
 8007c8c:	4051      	eors	r1, r2
 8007c8e:	ea09 0205 	and.w	r2, r9, r5
 8007c92:	4051      	eors	r1, r2
 8007c94:	ea04 020a 	and.w	r2, r4, sl
 8007c98:	4051      	eors	r1, r2
 8007c9a:	f8c0 1324 	str.w	r1, [r0, #804]	; 0x324
 8007c9e:	ea99 010b 	eors.w	r1, r9, fp
 8007ca2:	ea0a 020b 	and.w	r2, sl, fp
 8007ca6:	4051      	eors	r1, r2
 8007ca8:	ea0a 0206 	and.w	r2, sl, r6
 8007cac:	4051      	eors	r1, r2
 8007cae:	ea05 020b 	and.w	r2, r5, fp
 8007cb2:	4051      	eors	r1, r2
 8007cb4:	f8c0 1378 	str.w	r1, [r0, #888]	; 0x378
 8007cb8:	ea9a 010c 	eors.w	r1, sl, ip
 8007cbc:	ea0b 020c 	and.w	r2, fp, ip
 8007cc0:	4051      	eors	r1, r2
 8007cc2:	ea0b 0207 	and.w	r2, fp, r7
 8007cc6:	4051      	eors	r1, r2
 8007cc8:	ea06 020c 	and.w	r2, r6, ip
 8007ccc:	4051      	eors	r1, r2
 8007cce:	f8c0 13d4 	str.w	r1, [r0, #980]	; 0x3d4
 8007cd2:	ea9b 0108 	eors.w	r1, fp, r8
 8007cd6:	ea0c 0208 	and.w	r2, ip, r8
 8007cda:	4051      	eors	r1, r2
 8007cdc:	ea0c 0203 	and.w	r2, ip, r3
 8007ce0:	4051      	eors	r1, r2
 8007ce2:	ea07 0208 	and.w	r2, r7, r8
 8007ce6:	4051      	eors	r1, r2
 8007ce8:	f8c0 1364 	str.w	r1, [r0, #868]	; 0x364
 8007cec:	ea9c 0109 	eors.w	r1, ip, r9
 8007cf0:	ea08 0209 	and.w	r2, r8, r9
 8007cf4:	4051      	eors	r1, r2
 8007cf6:	ea08 0204 	and.w	r2, r8, r4
 8007cfa:	4051      	eors	r1, r2
 8007cfc:	ea03 0209 	and.w	r2, r3, r9
 8007d00:	4051      	eors	r1, r2
 8007d02:	f8c0 13b8 	str.w	r1, [r0, #952]	; 0x3b8
 8007d06:	f8d0 80cc 	ldr.w	r8, [r0, #204]	; 0xcc
 8007d0a:	f8d0 9120 	ldr.w	r9, [r0, #288]	; 0x120
 8007d0e:	f8d0 a17c 	ldr.w	sl, [r0, #380]	; 0x17c
 8007d12:	f8d0 b10c 	ldr.w	fp, [r0, #268]	; 0x10c
 8007d16:	f8d0 c160 	ldr.w	ip, [r0, #352]	; 0x160
 8007d1a:	ea94 0106 	eors.w	r1, r4, r6
 8007d1e:	ea05 0206 	and.w	r2, r5, r6
 8007d22:	4051      	eors	r1, r2
 8007d24:	ea05 020b 	and.w	r2, r5, fp
 8007d28:	4051      	eors	r1, r2
 8007d2a:	ea0a 0206 	and.w	r2, sl, r6
 8007d2e:	4051      	eors	r1, r2
 8007d30:	f8c0 1440 	str.w	r1, [r0, #1088]	; 0x440
 8007d34:	ea95 0107 	eors.w	r1, r5, r7
 8007d38:	ea06 0207 	and.w	r2, r6, r7
 8007d3c:	4051      	eors	r1, r2
 8007d3e:	ea06 020c 	and.w	r2, r6, ip
 8007d42:	4051      	eors	r1, r2
 8007d44:	ea0b 0207 	and.w	r2, fp, r7
 8007d48:	4051      	eors	r1, r2
 8007d4a:	f8c0 149c 	str.w	r1, [r0, #1180]	; 0x49c
 8007d4e:	ea96 0103 	eors.w	r1, r6, r3
 8007d52:	ea07 0203 	and.w	r2, r7, r3
 8007d56:	4051      	eors	r1, r2
 8007d58:	ea07 0208 	and.w	r2, r7, r8
 8007d5c:	4051      	eors	r1, r2
 8007d5e:	ea0c 0203 	and.w	r2, ip, r3
 8007d62:	4051      	eors	r1, r2
 8007d64:	f8c0 142c 	str.w	r1, [r0, #1068]	; 0x42c
 8007d68:	ea97 0104 	eors.w	r1, r7, r4
 8007d6c:	ea03 0204 	and.w	r2, r3, r4
 8007d70:	4051      	eors	r1, r2
 8007d72:	ea03 0209 	and.w	r2, r3, r9
 8007d76:	4051      	eors	r1, r2
 8007d78:	ea08 0204 	and.w	r2, r8, r4
 8007d7c:	4051      	eors	r1, r2
 8007d7e:	f8c0 1480 	str.w	r1, [r0, #1152]	; 0x480
 8007d82:	f8d0 1528 	ldr.w	r1, [r0, #1320]	; 0x528
 8007d86:	ea93 0605 	eors.w	r6, r3, r5
 8007d8a:	ea04 0705 	and.w	r7, r4, r5
 8007d8e:	407e      	eors	r6, r7
 8007d90:	ea04 070a 	and.w	r7, r4, sl
 8007d94:	407e      	eors	r6, r7
 8007d96:	ea09 0705 	and.w	r7, r9, r5
 8007d9a:	407e      	eors	r6, r7
 8007d9c:	694c      	ldr	r4, [r1, #20]
 8007d9e:	4066      	eors	r6, r4
 8007da0:	f8c0 63ec 	str.w	r6, [r0, #1004]	; 0x3ec
 8007da4:	e8bd 5f04 	ldmia.w	sp!, {r2, r8, r9, sl, fp, ip, lr}
 8007da8:	f8c0 052c 	str.w	r0, [r0, #1324]	; 0x52c
 8007dac:	f8c0 1530 	str.w	r1, [r0, #1328]	; 0x530
 8007db0:	f8c0 2534 	str.w	r2, [r0, #1332]	; 0x534
 8007db4:	f8c0 3538 	str.w	r3, [r0, #1336]	; 0x538
 8007db8:	f8c0 453c 	str.w	r4, [r0, #1340]	; 0x53c
 8007dbc:	f8c0 5540 	str.w	r5, [r0, #1344]	; 0x540
 8007dc0:	f8c0 6544 	str.w	r6, [r0, #1348]	; 0x544
 8007dc4:	f8c0 7548 	str.w	r7, [r0, #1352]	; 0x548
 8007dc8:	f8c0 854c 	str.w	r8, [r0, #1356]	; 0x54c
 8007dcc:	f8c0 9550 	str.w	r9, [r0, #1360]	; 0x550
 8007dd0:	f8c0 a554 	str.w	sl, [r0, #1364]	; 0x554
 8007dd4:	f8c0 b558 	str.w	fp, [r0, #1368]	; 0x558
 8007dd8:	f8c0 c55c 	str.w	ip, [r0, #1372]	; 0x55c
 8007ddc:	f8c0 e560 	str.w	lr, [r0, #1376]	; 0x560
 8007de0:	e8bd 9ff0 	ldmia.w	sp!, {r4, r5, r6, r7, r8, r9, sl, fp, ip, pc}
 8007de4:	f3af 8000 	nop.w
 8007de8:	f3af 8000 	nop.w
 8007dec:	f3af 8000 	nop.w
 8007df0:	f3af 8000 	nop.w
 8007df4:	f3af 8000 	nop.w
 8007df8:	f3af 8000 	nop.w
 8007dfc:	f3af 8000 	nop.w

08007e00 <KeccakP1600_Permute3>:
 8007e00:	e92d 5ff0 	stmdb	sp!, {r4, r5, r6, r7, r8, r9, sl, fp, ip, lr}
 8007e04:	f8d0 1530 	ldr.w	r1, [r0, #1328]	; 0x530
 8007e08:	f8d0 2534 	ldr.w	r2, [r0, #1332]	; 0x534
 8007e0c:	f8d0 3538 	ldr.w	r3, [r0, #1336]	; 0x538
 8007e10:	f8d0 453c 	ldr.w	r4, [r0, #1340]	; 0x53c
 8007e14:	f8d0 5540 	ldr.w	r5, [r0, #1344]	; 0x540
 8007e18:	f8d0 6544 	ldr.w	r6, [r0, #1348]	; 0x544
 8007e1c:	f8d0 7548 	ldr.w	r7, [r0, #1352]	; 0x548
 8007e20:	f8d0 854c 	ldr.w	r8, [r0, #1356]	; 0x54c
 8007e24:	f8d0 9550 	ldr.w	r9, [r0, #1360]	; 0x550
 8007e28:	f8d0 a554 	ldr.w	sl, [r0, #1364]	; 0x554
 8007e2c:	f8d0 b558 	ldr.w	fp, [r0, #1368]	; 0x558
 8007e30:	f8d0 c55c 	ldr.w	ip, [r0, #1372]	; 0x55c
 8007e34:	f8d0 e560 	ldr.w	lr, [r0, #1376]	; 0x560
 8007e38:	f8d0 32f4 	ldr.w	r3, [r0, #756]	; 0x2f4
 8007e3c:	f8d0 12a0 	ldr.w	r1, [r0, #672]	; 0x2a0
 8007e40:	f8d0 231c 	ldr.w	r2, [r0, #796]	; 0x31c
 8007e44:	f8d0 c2c8 	ldr.w	ip, [r0, #712]	; 0x2c8
 8007e48:	404b      	eors	r3, r1
 8007e4a:	4053      	eors	r3, r2
 8007e4c:	ea93 030c 	eors.w	r3, r3, ip
 8007e50:	f8d0 1278 	ldr.w	r1, [r0, #632]	; 0x278
 8007e54:	404b      	eors	r3, r1
 8007e56:	f8d0 72b0 	ldr.w	r7, [r0, #688]	; 0x2b0
 8007e5a:	f8d0 1264 	ldr.w	r1, [r0, #612]	; 0x264
 8007e5e:	f8d0 22dc 	ldr.w	r2, [r0, #732]	; 0x2dc
 8007e62:	f8d0 c288 	ldr.w	ip, [r0, #648]	; 0x288
 8007e66:	404f      	eors	r7, r1
 8007e68:	4057      	eors	r7, r2
 8007e6a:	ea97 070c 	eors.w	r7, r7, ip
 8007e6e:	f8d0 1304 	ldr.w	r1, [r0, #772]	; 0x304
 8007e72:	404f      	eors	r7, r1
 8007e74:	ea83 76f7 	eor.w	r6, r3, r7, ror #31
 8007e78:	f8c0 64b0 	str.w	r6, [r0, #1200]	; 0x4b0
 8007e7c:	f8d0 62f0 	ldr.w	r6, [r0, #752]	; 0x2f0
 8007e80:	f8d0 12a4 	ldr.w	r1, [r0, #676]	; 0x2a4
 8007e84:	f8d0 2318 	ldr.w	r2, [r0, #792]	; 0x318
 8007e88:	f8d0 c2cc 	ldr.w	ip, [r0, #716]	; 0x2cc
 8007e8c:	404e      	eors	r6, r1
 8007e8e:	4056      	eors	r6, r2
 8007e90:	ea96 060c 	eors.w	r6, r6, ip
 8007e94:	f8d0 127c 	ldr.w	r1, [r0, #636]	; 0x27c
 8007e98:	404e      	eors	r6, r1
 8007e9a:	f8d0 e2b4 	ldr.w	lr, [r0, #692]	; 0x2b4
 8007e9e:	f8d0 1260 	ldr.w	r1, [r0, #608]	; 0x260
 8007ea2:	f8d0 22d8 	ldr.w	r2, [r0, #728]	; 0x2d8
 8007ea6:	f8d0 c28c 	ldr.w	ip, [r0, #652]	; 0x28c
 8007eaa:	ea9e 0e01 	eors.w	lr, lr, r1
 8007eae:	ea9e 0e02 	eors.w	lr, lr, r2
 8007eb2:	ea9e 0e0c 	eors.w	lr, lr, ip
 8007eb6:	f8d0 1300 	ldr.w	r1, [r0, #768]	; 0x300
 8007eba:	ea9e 0e01 	eors.w	lr, lr, r1
 8007ebe:	ea96 080e 	eors.w	r8, r6, lr
 8007ec2:	f8c0 84b4 	str.w	r8, [r0, #1204]	; 0x4b4
 8007ec6:	f8d0 5308 	ldr.w	r5, [r0, #776]	; 0x308
 8007eca:	f8d0 12b8 	ldr.w	r1, [r0, #696]	; 0x2b8
 8007ece:	f8d0 226c 	ldr.w	r2, [r0, #620]	; 0x26c
 8007ed2:	f8d0 c2e4 	ldr.w	ip, [r0, #740]	; 0x2e4
 8007ed6:	404d      	eors	r5, r1
 8007ed8:	4055      	eors	r5, r2
 8007eda:	ea95 050c 	eors.w	r5, r5, ip
 8007ede:	f8d0 1294 	ldr.w	r1, [r0, #660]	; 0x294
 8007ee2:	404d      	eors	r5, r1
 8007ee4:	ea85 79f6 	eor.w	r9, r5, r6, ror #31
 8007ee8:	f8c0 94c8 	str.w	r9, [r0, #1224]	; 0x4c8
 8007eec:	f8d0 430c 	ldr.w	r4, [r0, #780]	; 0x30c
 8007ef0:	f8d0 12bc 	ldr.w	r1, [r0, #700]	; 0x2bc
 8007ef4:	f8d0 2268 	ldr.w	r2, [r0, #616]	; 0x268
 8007ef8:	f8d0 c2e0 	ldr.w	ip, [r0, #736]	; 0x2e0
 8007efc:	404c      	eors	r4, r1
 8007efe:	4054      	eors	r4, r2
 8007f00:	ea94 040c 	eors.w	r4, r4, ip
 8007f04:	f8d0 1290 	ldr.w	r1, [r0, #656]	; 0x290
 8007f08:	404c      	eors	r4, r1
 8007f0a:	4063      	eors	r3, r4
 8007f0c:	f8c0 34cc 	str.w	r3, [r0, #1228]	; 0x4cc
 8007f10:	f8d0 3258 	ldr.w	r3, [r0, #600]	; 0x258
 8007f14:	f8d0 12d0 	ldr.w	r1, [r0, #720]	; 0x2d0
 8007f18:	f8d0 2284 	ldr.w	r2, [r0, #644]	; 0x284
 8007f1c:	f8d0 c2fc 	ldr.w	ip, [r0, #764]	; 0x2fc
 8007f20:	404b      	eors	r3, r1
 8007f22:	4053      	eors	r3, r2
 8007f24:	ea93 030c 	eors.w	r3, r3, ip
 8007f28:	f8d0 12a8 	ldr.w	r1, [r0, #680]	; 0x2a8
 8007f2c:	404b      	eors	r3, r1
 8007f2e:	ea83 7af4 	eor.w	sl, r3, r4, ror #31
 8007f32:	f8c0 a4b8 	str.w	sl, [r0, #1208]	; 0x4b8
 8007f36:	f8d0 625c 	ldr.w	r6, [r0, #604]	; 0x25c
 8007f3a:	f8d0 12d4 	ldr.w	r1, [r0, #724]	; 0x2d4
 8007f3e:	f8d0 2280 	ldr.w	r2, [r0, #640]	; 0x280
 8007f42:	f8d0 c2f8 	ldr.w	ip, [r0, #760]	; 0x2f8
 8007f46:	404e      	eors	r6, r1
 8007f48:	4056      	eors	r6, r2
 8007f4a:	ea96 060c 	eors.w	r6, r6, ip
 8007f4e:	f8d0 12ac 	ldr.w	r1, [r0, #684]	; 0x2ac
 8007f52:	404e      	eors	r6, r1
 8007f54:	ea96 0b05 	eors.w	fp, r6, r5
 8007f58:	f8c0 b4bc 	str.w	fp, [r0, #1212]	; 0x4bc
 8007f5c:	f8d0 429c 	ldr.w	r4, [r0, #668]	; 0x29c
 8007f60:	f8d0 1310 	ldr.w	r1, [r0, #784]	; 0x310
 8007f64:	f8d0 22c0 	ldr.w	r2, [r0, #704]	; 0x2c0
 8007f68:	f8d0 c270 	ldr.w	ip, [r0, #624]	; 0x270
 8007f6c:	404c      	eors	r4, r1
 8007f6e:	4054      	eors	r4, r2
 8007f70:	ea94 040c 	eors.w	r4, r4, ip
 8007f74:	f8d0 12ec 	ldr.w	r1, [r0, #748]	; 0x2ec
 8007f78:	404c      	eors	r4, r1
 8007f7a:	ea8e 75f4 	eor.w	r5, lr, r4, ror #31
 8007f7e:	f8c0 54c0 	str.w	r5, [r0, #1216]	; 0x4c0
 8007f82:	f8d0 5298 	ldr.w	r5, [r0, #664]	; 0x298
 8007f86:	f8d0 1314 	ldr.w	r1, [r0, #788]	; 0x314
 8007f8a:	f8d0 22c4 	ldr.w	r2, [r0, #708]	; 0x2c4
 8007f8e:	f8d0 c274 	ldr.w	ip, [r0, #628]	; 0x274
 8007f92:	404d      	eors	r5, r1
 8007f94:	4055      	eors	r5, r2
 8007f96:	ea95 050c 	eors.w	r5, r5, ip
 8007f9a:	f8d0 12e8 	ldr.w	r1, [r0, #744]	; 0x2e8
 8007f9e:	404d      	eors	r5, r1
 8007fa0:	ea97 0205 	eors.w	r2, r7, r5
 8007fa4:	f8c0 24c4 	str.w	r2, [r0, #1220]	; 0x4c4
 8007fa8:	ea85 7cf6 	eor.w	ip, r5, r6, ror #31
 8007fac:	f8c0 c4d0 	str.w	ip, [r0, #1232]	; 0x4d0
 8007fb0:	ea94 0e03 	eors.w	lr, r4, r3
 8007fb4:	f8c0 e4d4 	str.w	lr, [r0, #1236]	; 0x4d4
 8007fb8:	f8d0 3484 	ldr.w	r3, [r0, #1156]	; 0x484
 8007fbc:	f8d0 1430 	ldr.w	r1, [r0, #1072]	; 0x430
 8007fc0:	f8d0 24ac 	ldr.w	r2, [r0, #1196]	; 0x4ac
 8007fc4:	f8d0 c458 	ldr.w	ip, [r0, #1112]	; 0x458
 8007fc8:	404b      	eors	r3, r1
 8007fca:	4053      	eors	r3, r2
 8007fcc:	ea93 030c 	eors.w	r3, r3, ip
 8007fd0:	f8d0 1408 	ldr.w	r1, [r0, #1032]	; 0x408
 8007fd4:	404b      	eors	r3, r1
 8007fd6:	f8d0 7440 	ldr.w	r7, [r0, #1088]	; 0x440
 8007fda:	f8d0 13f4 	ldr.w	r1, [r0, #1012]	; 0x3f4
 8007fde:	f8d0 246c 	ldr.w	r2, [r0, #1132]	; 0x46c
 8007fe2:	f8d0 c418 	ldr.w	ip, [r0, #1048]	; 0x418
 8007fe6:	404f      	eors	r7, r1
 8007fe8:	4057      	eors	r7, r2
 8007fea:	ea97 070c 	eors.w	r7, r7, ip
 8007fee:	f8d0 1494 	ldr.w	r1, [r0, #1172]	; 0x494
 8007ff2:	404f      	eors	r7, r1
 8007ff4:	ea83 76f7 	eor.w	r6, r3, r7, ror #31
 8007ff8:	f8c0 6500 	str.w	r6, [r0, #1280]	; 0x500
 8007ffc:	f8d0 6480 	ldr.w	r6, [r0, #1152]	; 0x480
 8008000:	f8d0 1434 	ldr.w	r1, [r0, #1076]	; 0x434
 8008004:	f8d0 24a8 	ldr.w	r2, [r0, #1192]	; 0x4a8
 8008008:	f8d0 c45c 	ldr.w	ip, [r0, #1116]	; 0x45c
 800800c:	404e      	eors	r6, r1
 800800e:	4056      	eors	r6, r2
 8008010:	ea96 060c 	eors.w	r6, r6, ip
 8008014:	f8d0 140c 	ldr.w	r1, [r0, #1036]	; 0x40c
 8008018:	404e      	eors	r6, r1
 800801a:	f8d0 e444 	ldr.w	lr, [r0, #1092]	; 0x444
 800801e:	f8d0 13f0 	ldr.w	r1, [r0, #1008]	; 0x3f0
 8008022:	f8d0 2468 	ldr.w	r2, [r0, #1128]	; 0x468
 8008026:	f8d0 c41c 	ldr.w	ip, [r0, #1052]	; 0x41c
 800802a:	ea9e 0e01 	eors.w	lr, lr, r1
 800802e:	ea9e 0e02 	eors.w	lr, lr, r2
 8008032:	ea9e 0e0c 	eors.w	lr, lr, ip
 8008036:	f8d0 1490 	ldr.w	r1, [r0, #1168]	; 0x490
 800803a:	ea9e 0e01 	eors.w	lr, lr, r1
 800803e:	ea96 080e 	eors.w	r8, r6, lr
 8008042:	f8c0 8504 	str.w	r8, [r0, #1284]	; 0x504
 8008046:	f8d0 5498 	ldr.w	r5, [r0, #1176]	; 0x498
 800804a:	f8d0 1448 	ldr.w	r1, [r0, #1096]	; 0x448
 800804e:	f8d0 23fc 	ldr.w	r2, [r0, #1020]	; 0x3fc
 8008052:	f8d0 c474 	ldr.w	ip, [r0, #1140]	; 0x474
 8008056:	404d      	eors	r5, r1
 8008058:	4055      	eors	r5, r2
 800805a:	ea95 050c 	eors.w	r5, r5, ip
 800805e:	f8d0 1424 	ldr.w	r1, [r0, #1060]	; 0x424
 8008062:	404d      	eors	r5, r1
 8008064:	ea85 79f6 	eor.w	r9, r5, r6, ror #31
 8008068:	f8c0 9518 	str.w	r9, [r0, #1304]	; 0x518
 800806c:	f8d0 449c 	ldr.w	r4, [r0, #1180]	; 0x49c
 8008070:	f8d0 144c 	ldr.w	r1, [r0, #1100]	; 0x44c
 8008074:	f8d0 23f8 	ldr.w	r2, [r0, #1016]	; 0x3f8
 8008078:	f8d0 c470 	ldr.w	ip, [r0, #1136]	; 0x470
 800807c:	404c      	eors	r4, r1
 800807e:	4054      	eors	r4, r2
 8008080:	ea94 040c 	eors.w	r4, r4, ip
 8008084:	f8d0 1420 	ldr.w	r1, [r0, #1056]	; 0x420
 8008088:	404c      	eors	r4, r1
 800808a:	4063      	eors	r3, r4
 800808c:	f8c0 351c 	str.w	r3, [r0, #1308]	; 0x51c
 8008090:	f8d0 33e8 	ldr.w	r3, [r0, #1000]	; 0x3e8
 8008094:	f8d0 1460 	ldr.w	r1, [r0, #1120]	; 0x460
 8008098:	f8d0 2414 	ldr.w	r2, [r0, #1044]	; 0x414
 800809c:	f8d0 c48c 	ldr.w	ip, [r0, #1164]	; 0x48c
 80080a0:	404b      	eors	r3, r1
 80080a2:	4053      	eors	r3, r2
 80080a4:	ea93 030c 	eors.w	r3, r3, ip
 80080a8:	f8d0 1438 	ldr.w	r1, [r0, #1080]	; 0x438
 80080ac:	404b      	eors	r3, r1
 80080ae:	ea83 7af4 	eor.w	sl, r3, r4, ror #31
 80080b2:	f8c0 a508 	str.w	sl, [r0, #1288]	; 0x508
 80080b6:	f8d0 63ec 	ldr.w	r6, [r0, #1004]	; 0x3ec
 80080ba:	f8d0 1464 	ldr.w	r1, [r0, #1124]	; 0x464
 80080be:	f8d0 2410 	ldr.w	r2, [r0, #1040]	; 0x410
 80080c2:	f8d0 c488 	ldr.w	ip, [r0, #1160]	; 0x488
 80080c6:	404e      	eors	r6, r1
 80080c8:	4056      	eors	r6, r2
 80080ca:	ea96 060c 	eors.w	r6, r6, ip
 80080ce:	f8d0 143c 	ldr.w	r1, [r0, #1084]	; 0x43c
 80080d2:	404e      	eors	r6, r1
 80080d4:	ea96 0b05 	eors.w	fp, r6, r5
 80080d8:	f8c0 b50c 	str.w	fp, [r0, #1292]	; 0x50c
 80080dc:	f8d0 442c 	ldr.w	r4, [r0, #1068]	; 0x42c
 80080e0:	f8d0 14a0 	ldr.w	r1, [r0, #1184]	; 0x4a0
 80080e4:	f8d0 2450 	ldr.w	r2, [r0, #1104]	; 0x450
 80080e8:	f8d0 c400 	ldr.w	ip, [r0, #1024]	; 0x400
 80080ec:	404c      	eors	r4, r1
 80080ee:	4054      	eors	r4, r2
 80080f0:	ea94 040c 	eors.w	r4, r4, ip
 80080f4:	f8d0 147c 	ldr.w	r1, [r0, #1148]	; 0x47c
 80080f8:	404c      	eors	r4, r1
 80080fa:	ea8e 75f4 	eor.w	r5, lr, r4, ror #31
 80080fe:	f8c0 5510 	str.w	r5, [r0, #1296]	; 0x510
 8008102:	f8d0 5428 	ldr.w	r5, [r0, #1064]	; 0x428
 8008106:	f8d0 14a4 	ldr.w	r1, [r0, #1188]	; 0x4a4
 800810a:	f8d0 2454 	ldr.w	r2, [r0, #1108]	; 0x454
 800810e:	f8d0 c404 	ldr.w	ip, [r0, #1028]	; 0x404
 8008112:	404d      	eors	r5, r1
 8008114:	4055      	eors	r5, r2
 8008116:	ea95 050c 	eors.w	r5, r5, ip
 800811a:	f8d0 1478 	ldr.w	r1, [r0, #1144]	; 0x478
 800811e:	404d      	eors	r5, r1
 8008120:	ea97 0205 	eors.w	r2, r7, r5
 8008124:	f8c0 2514 	str.w	r2, [r0, #1300]	; 0x514
 8008128:	ea85 7cf6 	eor.w	ip, r5, r6, ror #31
 800812c:	f8c0 c520 	str.w	ip, [r0, #1312]	; 0x520
 8008130:	ea94 0e03 	eors.w	lr, r4, r3
 8008134:	f8c0 e524 	str.w	lr, [r0, #1316]	; 0x524
 8008138:	f8d0 33bc 	ldr.w	r3, [r0, #956]	; 0x3bc
 800813c:	f8d0 1368 	ldr.w	r1, [r0, #872]	; 0x368
 8008140:	f8d0 23e4 	ldr.w	r2, [r0, #996]	; 0x3e4
 8008144:	f8d0 c390 	ldr.w	ip, [r0, #912]	; 0x390
 8008148:	404b      	eors	r3, r1
 800814a:	4053      	eors	r3, r2
 800814c:	ea93 030c 	eors.w	r3, r3, ip
 8008150:	f8d0 1340 	ldr.w	r1, [r0, #832]	; 0x340
 8008154:	404b      	eors	r3, r1
 8008156:	f8d0 7378 	ldr.w	r7, [r0, #888]	; 0x378
 800815a:	f8d0 132c 	ldr.w	r1, [r0, #812]	; 0x32c
 800815e:	f8d0 23a4 	ldr.w	r2, [r0, #932]	; 0x3a4
 8008162:	f8d0 c350 	ldr.w	ip, [r0, #848]	; 0x350
 8008166:	404f      	eors	r7, r1
 8008168:	4057      	eors	r7, r2
 800816a:	ea97 070c 	eors.w	r7, r7, ip
 800816e:	f8d0 13cc 	ldr.w	r1, [r0, #972]	; 0x3cc
 8008172:	404f      	eors	r7, r1
 8008174:	ea83 76f7 	eor.w	r6, r3, r7, ror #31
 8008178:	f8c0 64d8 	str.w	r6, [r0, #1240]	; 0x4d8
 800817c:	f8d0 63b8 	ldr.w	r6, [r0, #952]	; 0x3b8
 8008180:	f8d0 136c 	ldr.w	r1, [r0, #876]	; 0x36c
 8008184:	f8d0 23e0 	ldr.w	r2, [r0, #992]	; 0x3e0
 8008188:	f8d0 c394 	ldr.w	ip, [r0, #916]	; 0x394
 800818c:	404e      	eors	r6, r1
 800818e:	4056      	eors	r6, r2
 8008190:	ea96 060c 	eors.w	r6, r6, ip
 8008194:	f8d0 1344 	ldr.w	r1, [r0, #836]	; 0x344
 8008198:	404e      	eors	r6, r1
 800819a:	f8d0 e37c 	ldr.w	lr, [r0, #892]	; 0x37c
 800819e:	f8d0 1328 	ldr.w	r1, [r0, #808]	; 0x328
 80081a2:	f8d0 23a0 	ldr.w	r2, [r0, #928]	; 0x3a0
 80081a6:	f8d0 c354 	ldr.w	ip, [r0, #852]	; 0x354
 80081aa:	ea9e 0e01 	eors.w	lr, lr, r1
 80081ae:	ea9e 0e02 	eors.w	lr, lr, r2
 80081b2:	ea9e 0e0c 	eors.w	lr, lr, ip
 80081b6:	f8d0 13c8 	ldr.w	r1, [r0, #968]	; 0x3c8
 80081ba:	ea9e 0e01 	eors.w	lr, lr, r1
 80081be:	ea96 080e 	eors.w	r8, r6, lr
 80081c2:	f8c0 84dc 	str.w	r8, [r0, #1244]	; 0x4dc
 80081c6:	f8d0 53d0 	ldr.w	r5, [r0, #976]	; 0x3d0
 80081ca:	f8d0 1380 	ldr.w	r1, [r0, #896]	; 0x380
 80081ce:	f8d0 2334 	ldr.w	r2, [r0, #820]	; 0x334
 80081d2:	f8d0 c3ac 	ldr.w	ip, [r0, #940]	; 0x3ac
 80081d6:	404d      	eors	r5, r1
 80081d8:	4055      	eors	r5, r2
 80081da:	ea95 050c 	eors.w	r5, r5, ip
 80081de:	f8d0 135c 	ldr.w	r1, [r0, #860]	; 0x35c
 80081e2:	404d      	eors	r5, r1
 80081e4:	ea85 79f6 	eor.w	r9, r5, r6, ror #31
 80081e8:	f8c0 94f0 	str.w	r9, [r0, #1264]	; 0x4f0
 80081ec:	f8d0 43d4 	ldr.w	r4, [r0, #980]	; 0x3d4
 80081f0:	f8d0 1384 	ldr.w	r1, [r0, #900]	; 0x384
 80081f4:	f8d0 2330 	ldr.w	r2, [r0, #816]	; 0x330
 80081f8:	f8d0 c3a8 	ldr.w	ip, [r0, #936]	; 0x3a8
 80081fc:	404c      	eors	r4, r1
 80081fe:	4054      	eors	r4, r2
 8008200:	ea94 040c 	eors.w	r4, r4, ip
 8008204:	f8d0 1358 	ldr.w	r1, [r0, #856]	; 0x358
 8008208:	404c      	eors	r4, r1
 800820a:	4063      	eors	r3, r4
 800820c:	f8c0 34f4 	str.w	r3, [r0, #1268]	; 0x4f4
 8008210:	f8d0 3320 	ldr.w	r3, [r0, #800]	; 0x320
 8008214:	f8d0 1398 	ldr.w	r1, [r0, #920]	; 0x398
 8008218:	f8d0 234c 	ldr.w	r2, [r0, #844]	; 0x34c
 800821c:	f8d0 c3c4 	ldr.w	ip, [r0, #964]	; 0x3c4
 8008220:	404b      	eors	r3, r1
 8008222:	4053      	eors	r3, r2
 8008224:	ea93 030c 	eors.w	r3, r3, ip
 8008228:	f8d0 1370 	ldr.w	r1, [r0, #880]	; 0x370
 800822c:	404b      	eors	r3, r1
 800822e:	ea83 7af4 	eor.w	sl, r3, r4, ror #31
 8008232:	f8c0 a4e0 	str.w	sl, [r0, #1248]	; 0x4e0
 8008236:	f8d0 6324 	ldr.w	r6, [r0, #804]	; 0x324
 800823a:	f8d0 139c 	ldr.w	r1, [r0, #924]	; 0x39c
 800823e:	f8d0 2348 	ldr.w	r2, [r0, #840]	; 0x348
 8008242:	f8d0 c3c0 	ldr.w	ip, [r0, #960]	; 0x3c0
 8008246:	404e      	eors	r6, r1
 8008248:	4056      	eors	r6, r2
 800824a:	ea96 060c 	eors.w	r6, r6, ip
 800824e:	f8d0 1374 	ldr.w	r1, [r0, #884]	; 0x374
 8008252:	404e      	eors	r6, r1
 8008254:	ea96 0b05 	eors.w	fp, r6, r5
 8008258:	f8c0 b4e4 	str.w	fp, [r0, #1252]	; 0x4e4
 800825c:	f8d0 4364 	ldr.w	r4, [r0, #868]	; 0x364
 8008260:	f8d0 13d8 	ldr.w	r1, [r0, #984]	; 0x3d8
 8008264:	f8d0 2388 	ldr.w	r2, [r0, #904]	; 0x388
 8008268:	f8d0 c338 	ldr.w	ip, [r0, #824]	; 0x338
 800826c:	404c      	eors	r4, r1
 800826e:	4054      	eors	r4, r2
 8008270:	ea94 040c 	eors.w	r4, r4, ip
 8008274:	f8d0 13b4 	ldr.w	r1, [r0, #948]	; 0x3b4
 8008278:	404c      	eors	r4, r1
 800827a:	ea8e 75f4 	eor.w	r5, lr, r4, ror #31
 800827e:	f8c0 54e8 	str.w	r5, [r0, #1256]	; 0x4e8
 8008282:	f8d0 5360 	ldr.w	r5, [r0, #864]	; 0x360
 8008286:	f8d0 13dc 	ldr.w	r1, [r0, #988]	; 0x3dc
 800828a:	f8d0 238c 	ldr.w	r2, [r0, #908]	; 0x38c
 800828e:	f8d0 c33c 	ldr.w	ip, [r0, #828]	; 0x33c
 8008292:	404d      	eors	r5, r1
 8008294:	4055      	eors	r5, r2
 8008296:	ea95 050c 	eors.w	r5, r5, ip
 800829a:	f8d0 13b0 	ldr.w	r1, [r0, #944]	; 0x3b0
 800829e:	404d      	eors	r5, r1
 80082a0:	ea97 0205 	eors.w	r2, r7, r5
 80082a4:	f8c0 24ec 	str.w	r2, [r0, #1260]	; 0x4ec
 80082a8:	ea85 7cf6 	eor.w	ip, r5, r6, ror #31
 80082ac:	f8c0 c4f8 	str.w	ip, [r0, #1272]	; 0x4f8
 80082b0:	ea94 0e03 	eors.w	lr, r4, r3
 80082b4:	f8c0 e4fc 	str.w	lr, [r0, #1276]	; 0x4fc
 80082b8:	e92d 5f04 	stmdb	sp!, {r2, r8, r9, sl, fp, ip, lr}
 80082bc:	f8d0 5348 	ldr.w	r5, [r0, #840]	; 0x348
 80082c0:	f8d0 6350 	ldr.w	r6, [r0, #848]	; 0x350
 80082c4:	f8d0 7358 	ldr.w	r7, [r0, #856]	; 0x358
 80082c8:	f8d0 3360 	ldr.w	r3, [r0, #864]	; 0x360
 80082cc:	f8d0 4368 	ldr.w	r4, [r0, #872]	; 0x368
 80082d0:	ea95 0508 	eors.w	r5, r5, r8
 80082d4:	ea96 060b 	eors.w	r6, r6, fp
 80082d8:	4057      	eors	r7, r2
 80082da:	ea93 0309 	eors.w	r3, r3, r9
 80082de:	ea94 040c 	eors.w	r4, r4, ip
 80082e2:	ea5f 75b5 	movs.w	r5, r5, ror #30
 80082e6:	ea5f 2676 	movs.w	r6, r6, ror #9
 80082ea:	ea5f 0777 	movs.w	r7, r7, ror #1
 80082ee:	ea5f 43b3 	movs.w	r3, r3, ror #18
 80082f2:	ea5f 54b4 	movs.w	r4, r4, ror #22
 80082f6:	f8c0 5348 	str.w	r5, [r0, #840]	; 0x348
 80082fa:	f8c0 6350 	str.w	r6, [r0, #848]	; 0x350
 80082fe:	f8c0 7358 	str.w	r7, [r0, #856]	; 0x358
 8008302:	f8c0 3360 	str.w	r3, [r0, #864]	; 0x360
 8008306:	f8c0 4368 	str.w	r4, [r0, #872]	; 0x368
 800830a:	f8d0 a410 	ldr.w	sl, [r0, #1040]	; 0x410
 800830e:	f8d0 1504 	ldr.w	r1, [r0, #1284]	; 0x504
 8008312:	f8d0 b418 	ldr.w	fp, [r0, #1048]	; 0x418
 8008316:	f8d0 250c 	ldr.w	r2, [r0, #1292]	; 0x50c
 800831a:	f8d0 c420 	ldr.w	ip, [r0, #1056]	; 0x420
 800831e:	f8d0 e514 	ldr.w	lr, [r0, #1300]	; 0x514
 8008322:	ea9a 0a01 	eors.w	sl, sl, r1
 8008326:	ea9b 0b02 	eors.w	fp, fp, r2
 800832a:	ea9c 0c0e 	eors.w	ip, ip, lr
 800832e:	f8d0 8428 	ldr.w	r8, [r0, #1064]	; 0x428
 8008332:	f8d0 1518 	ldr.w	r1, [r0, #1304]	; 0x518
 8008336:	f8d0 9430 	ldr.w	r9, [r0, #1072]	; 0x430
 800833a:	f8d0 e520 	ldr.w	lr, [r0, #1312]	; 0x520
 800833e:	ea98 0801 	eors.w	r8, r8, r1
 8008342:	ea99 090e 	eors.w	r9, r9, lr
 8008346:	ea5f 7aba 	movs.w	sl, sl, ror #30
 800834a:	ea5f 2b7b 	movs.w	fp, fp, ror #9
 800834e:	ea5f 0c7c 	movs.w	ip, ip, ror #1
 8008352:	ea5f 48b8 	movs.w	r8, r8, ror #18
 8008356:	ea5f 59b9 	movs.w	r9, r9, ror #22
 800835a:	ea93 0105 	eors.w	r1, r3, r5
 800835e:	ea04 0205 	and.w	r2, r4, r5
 8008362:	4051      	eors	r1, r2
 8008364:	ea04 020a 	and.w	r2, r4, sl
 8008368:	4051      	eors	r1, r2
 800836a:	ea09 0205 	and.w	r2, r9, r5
 800836e:	4051      	eors	r1, r2
 8008370:	6281      	str	r1, [r0, #40]	; 0x28
 8008372:	ea94 0106 	eors.w	r1, r4, r6
 8008376:	ea05 0206 	and.w	r2, r5, r6
 800837a:	4051      	eors	r1, r2
 800837c:	ea05 020b 	and.w	r2, r5, fp
 8008380:	4051      	eors	r1, r2
 8008382:	ea0a 0206 	and.w	r2, sl, r6
 8008386:	4051      	eors	r1, r2
 8008388:	6301      	str	r1, [r0, #48]	; 0x30
 800838a:	ea95 0107 	eors.w	r1, r5, r7
 800838e:	ea06 0207 	and.w	r2, r6, r7
 8008392:	4051      	eors	r1, r2
 8008394:	ea06 020c 	and.w	r2, r6, ip
 8008398:	4051      	eors	r1, r2
 800839a:	ea0b 0207 	and.w	r2, fp, r7
 800839e:	4051      	eors	r1, r2
 80083a0:	6381      	str	r1, [r0, #56]	; 0x38
 80083a2:	ea96 0103 	eors.w	r1, r6, r3
 80083a6:	ea07 0203 	and.w	r2, r7, r3
 80083aa:	4051      	eors	r1, r2
 80083ac:	ea07 0208 	and.w	r2, r7, r8
 80083b0:	4051      	eors	r1, r2
 80083b2:	ea0c 0203 	and.w	r2, ip, r3
 80083b6:	4051      	eors	r1, r2
 80083b8:	6401      	str	r1, [r0, #64]	; 0x40
 80083ba:	ea97 0104 	eors.w	r1, r7, r4
 80083be:	ea03 0204 	and.w	r2, r3, r4
 80083c2:	4051      	eors	r1, r2
 80083c4:	ea03 0209 	and.w	r2, r3, r9
 80083c8:	4051      	eors	r1, r2
 80083ca:	ea08 0204 	and.w	r2, r8, r4
 80083ce:	4051      	eors	r1, r2
 80083d0:	6481      	str	r1, [r0, #72]	; 0x48
 80083d2:	f8d0 5280 	ldr.w	r5, [r0, #640]	; 0x280
 80083d6:	f8d0 14b4 	ldr.w	r1, [r0, #1204]	; 0x4b4
 80083da:	f8d0 6288 	ldr.w	r6, [r0, #648]	; 0x288
 80083de:	f8d0 24bc 	ldr.w	r2, [r0, #1212]	; 0x4bc
 80083e2:	f8d0 7290 	ldr.w	r7, [r0, #656]	; 0x290
 80083e6:	f8d0 e4c4 	ldr.w	lr, [r0, #1220]	; 0x4c4
 80083ea:	404d      	eors	r5, r1
 80083ec:	4056      	eors	r6, r2
 80083ee:	ea97 070e 	eors.w	r7, r7, lr
 80083f2:	f8d0 3298 	ldr.w	r3, [r0, #664]	; 0x298
 80083f6:	f8d0 14c8 	ldr.w	r1, [r0, #1224]	; 0x4c8
 80083fa:	f8d0 42a0 	ldr.w	r4, [r0, #672]	; 0x2a0
 80083fe:	f8d0 e4d0 	ldr.w	lr, [r0, #1232]	; 0x4d0
 8008402:	404b      	eors	r3, r1
 8008404:	ea94 040e 	eors.w	r4, r4, lr
 8008408:	ea5f 75b5 	movs.w	r5, r5, ror #30
 800840c:	ea5f 2676 	movs.w	r6, r6, ror #9
 8008410:	ea5f 0777 	movs.w	r7, r7, ror #1
 8008414:	ea5f 43b3 	movs.w	r3, r3, ror #18
 8008418:	ea5f 54b4 	movs.w	r4, r4, ror #22
 800841c:	ea98 010a 	eors.w	r1, r8, sl
 8008420:	ea09 020a 	and.w	r2, r9, sl
 8008424:	4051      	eors	r1, r2
 8008426:	ea09 0205 	and.w	r2, r9, r5
 800842a:	4051      	eors	r1, r2
 800842c:	ea04 020a 	and.w	r2, r4, sl
 8008430:	4051      	eors	r1, r2
 8008432:	f8c0 10f0 	str.w	r1, [r0, #240]	; 0xf0
 8008436:	ea99 010b 	eors.w	r1, r9, fp
 800843a:	ea0a 020b 	and.w	r2, sl, fp
 800843e:	4051      	eors	r1, r2
 8008440:	ea0a 0206 	and.w	r2, sl, r6
 8008444:	4051      	eors	r1, r2
 8008446:	ea05 020b 	and.w	r2, r5, fp
 800844a:	4051      	eors	r1, r2
 800844c:	f8c0 10f8 	str.w	r1, [r0, #248]	; 0xf8
 8008450:	ea9a 010c 	eors.w	r1, sl, ip
 8008454:	ea0b 020c 	and.w	r2, fp, ip
 8008458:	4051      	eors	r1, r2
 800845a:	ea0b 0207 	and.w	r2, fp, r7
 800845e:	4051      	eors	r1, r2
 8008460:	ea06 020c 	and.w	r2, r6, ip
 8008464:	4051      	eors	r1, r2
 8008466:	f8c0 1100 	str.w	r1, [r0, #256]	; 0x100
 800846a:	ea9b 0108 	eors.w	r1, fp, r8
 800846e:	ea0c 0208 	and.w	r2, ip, r8
 8008472:	4051      	eors	r1, r2
 8008474:	ea0c 0203 	and.w	r2, ip, r3
 8008478:	4051      	eors	r1, r2
 800847a:	ea07 0208 	and.w	r2, r7, r8
 800847e:	4051      	eors	r1, r2
 8008480:	f8c0 1108 	str.w	r1, [r0, #264]	; 0x108
 8008484:	ea9c 0109 	eors.w	r1, ip, r9
 8008488:	ea08 0209 	and.w	r2, r8, r9
 800848c:	4051      	eors	r1, r2
 800848e:	ea08 0204 	and.w	r2, r8, r4
 8008492:	4051      	eors	r1, r2
 8008494:	ea03 0209 	and.w	r2, r3, r9
 8008498:	4051      	eors	r1, r2
 800849a:	f8c0 1110 	str.w	r1, [r0, #272]	; 0x110
 800849e:	f8d0 a348 	ldr.w	sl, [r0, #840]	; 0x348
 80084a2:	f8d0 b350 	ldr.w	fp, [r0, #848]	; 0x350
 80084a6:	f8d0 c358 	ldr.w	ip, [r0, #856]	; 0x358
 80084aa:	f8d0 8360 	ldr.w	r8, [r0, #864]	; 0x360
 80084ae:	f8d0 9368 	ldr.w	r9, [r0, #872]	; 0x368
 80084b2:	ea93 0105 	eors.w	r1, r3, r5
 80084b6:	ea04 0205 	and.w	r2, r4, r5
 80084ba:	4051      	eors	r1, r2
 80084bc:	ea04 020a 	and.w	r2, r4, sl
 80084c0:	4051      	eors	r1, r2
 80084c2:	ea09 0205 	and.w	r2, r9, r5
 80084c6:	4051      	eors	r1, r2
 80084c8:	f8c0 11b8 	str.w	r1, [r0, #440]	; 0x1b8
 80084cc:	ea94 0106 	eors.w	r1, r4, r6
 80084d0:	ea05 0206 	and.w	r2, r5, r6
 80084d4:	4051      	eors	r1, r2
 80084d6:	ea05 020b 	and.w	r2, r5, fp
 80084da:	4051      	eors	r1, r2
 80084dc:	ea0a 0206 	and.w	r2, sl, r6
 80084e0:	4051      	eors	r1, r2
 80084e2:	f8c0 11c0 	str.w	r1, [r0, #448]	; 0x1c0
 80084e6:	ea95 0107 	eors.w	r1, r5, r7
 80084ea:	ea06 0207 	and.w	r2, r6, r7
 80084ee:	4051      	eors	r1, r2
 80084f0:	ea06 020c 	and.w	r2, r6, ip
 80084f4:	4051      	eors	r1, r2
 80084f6:	ea0b 0207 	and.w	r2, fp, r7
 80084fa:	4051      	eors	r1, r2
 80084fc:	f8c0 11c8 	str.w	r1, [r0, #456]	; 0x1c8
 8008500:	ea96 0103 	eors.w	r1, r6, r3
 8008504:	ea07 0203 	and.w	r2, r7, r3
 8008508:	4051      	eors	r1, r2
 800850a:	ea07 0208 	and.w	r2, r7, r8
 800850e:	4051      	eors	r1, r2
 8008510:	ea0c 0203 	and.w	r2, ip, r3
 8008514:	4051      	eors	r1, r2
 8008516:	f8c0 11d0 	str.w	r1, [r0, #464]	; 0x1d0
 800851a:	ea97 0104 	eors.w	r1, r7, r4
 800851e:	ea03 0204 	and.w	r2, r3, r4
 8008522:	4051      	eors	r1, r2
 8008524:	ea03 0209 	and.w	r2, r3, r9
 8008528:	4051      	eors	r1, r2
 800852a:	ea08 0204 	and.w	r2, r8, r4
 800852e:	4051      	eors	r1, r2
 8008530:	f8c0 11d8 	str.w	r1, [r0, #472]	; 0x1d8
 8008534:	e8bd 5f04 	ldmia.w	sp!, {r2, r8, r9, sl, fp, ip, lr}
 8008538:	e92d 5f04 	stmdb	sp!, {r2, r8, r9, sl, fp, ip, lr}
 800853c:	f8d0 7374 	ldr.w	r7, [r0, #884]	; 0x374
 8008540:	f8d0 337c 	ldr.w	r3, [r0, #892]	; 0x37c
 8008544:	f8d0 4384 	ldr.w	r4, [r0, #900]	; 0x384
 8008548:	f8d0 538c 	ldr.w	r5, [r0, #908]	; 0x38c
 800854c:	f8d0 6394 	ldr.w	r6, [r0, #916]	; 0x394
 8008550:	ea97 0708 	eors.w	r7, r7, r8
 8008554:	ea93 030a 	eors.w	r3, r3, sl
 8008558:	4054      	eors	r4, r2
 800855a:	ea95 0509 	eors.w	r5, r5, r9
 800855e:	ea96 060e 	eors.w	r6, r6, lr
 8008562:	ea5f 57f7 	movs.w	r7, r7, ror #23
 8008566:	ea5f 7474 	movs.w	r4, r4, ror #29
 800856a:	ea5f 5535 	movs.w	r5, r5, ror #20
 800856e:	ea5f 7636 	movs.w	r6, r6, ror #28
 8008572:	f8c0 7374 	str.w	r7, [r0, #884]	; 0x374
 8008576:	f8c0 337c 	str.w	r3, [r0, #892]	; 0x37c
 800857a:	f8c0 4384 	str.w	r4, [r0, #900]	; 0x384
 800857e:	f8c0 538c 	str.w	r5, [r0, #908]	; 0x38c
 8008582:	f8c0 6394 	str.w	r6, [r0, #916]	; 0x394
 8008586:	f8d0 c43c 	ldr.w	ip, [r0, #1084]	; 0x43c
 800858a:	f8d0 1504 	ldr.w	r1, [r0, #1284]	; 0x504
 800858e:	f8d0 8444 	ldr.w	r8, [r0, #1092]	; 0x444
 8008592:	f8d0 2508 	ldr.w	r2, [r0, #1288]	; 0x508
 8008596:	f8d0 944c 	ldr.w	r9, [r0, #1100]	; 0x44c
 800859a:	f8d0 e514 	ldr.w	lr, [r0, #1300]	; 0x514
 800859e:	ea9c 0c01 	eors.w	ip, ip, r1
 80085a2:	ea98 0802 	eors.w	r8, r8, r2
 80085a6:	ea99 090e 	eors.w	r9, r9, lr
 80085aa:	f8d0 a454 	ldr.w	sl, [r0, #1108]	; 0x454
 80085ae:	f8d0 1518 	ldr.w	r1, [r0, #1304]	; 0x518
 80085b2:	f8d0 b45c 	ldr.w	fp, [r0, #1116]	; 0x45c
 80085b6:	f8d0 e524 	ldr.w	lr, [r0, #1316]	; 0x524
 80085ba:	ea9a 0a01 	eors.w	sl, sl, r1
 80085be:	ea9b 0b0e 	eors.w	fp, fp, lr
 80085c2:	ea5f 5cfc 	movs.w	ip, ip, ror #23
 80085c6:	ea5f 7979 	movs.w	r9, r9, ror #29
 80085ca:	ea5f 5a3a 	movs.w	sl, sl, ror #20
 80085ce:	ea5f 7b3b 	movs.w	fp, fp, ror #28
 80085d2:	ea93 0105 	eors.w	r1, r3, r5
 80085d6:	ea04 0205 	and.w	r2, r4, r5
 80085da:	4051      	eors	r1, r2
 80085dc:	ea04 020a 	and.w	r2, r4, sl
 80085e0:	4051      	eors	r1, r2
 80085e2:	ea09 0205 	and.w	r2, r9, r5
 80085e6:	4051      	eors	r1, r2
 80085e8:	6541      	str	r1, [r0, #84]	; 0x54
 80085ea:	ea94 0106 	eors.w	r1, r4, r6
 80085ee:	ea05 0206 	and.w	r2, r5, r6
 80085f2:	4051      	eors	r1, r2
 80085f4:	ea05 020b 	and.w	r2, r5, fp
 80085f8:	4051      	eors	r1, r2
 80085fa:	ea0a 0206 	and.w	r2, sl, r6
 80085fe:	4051      	eors	r1, r2
 8008600:	65c1      	str	r1, [r0, #92]	; 0x5c
 8008602:	ea95 0107 	eors.w	r1, r5, r7
 8008606:	ea06 0207 	and.w	r2, r6, r7
 800860a:	4051      	eors	r1, r2
 800860c:	ea06 020c 	and.w	r2, r6, ip
 8008610:	4051      	eors	r1, r2
 8008612:	ea0b 0207 	and.w	r2, fp, r7
 8008616:	4051      	eors	r1, r2
 8008618:	6641      	str	r1, [r0, #100]	; 0x64
 800861a:	ea96 0103 	eors.w	r1, r6, r3
 800861e:	ea07 0203 	and.w	r2, r7, r3
 8008622:	4051      	eors	r1, r2
 8008624:	ea07 0208 	and.w	r2, r7, r8
 8008628:	4051      	eors	r1, r2
 800862a:	ea0c 0203 	and.w	r2, ip, r3
 800862e:	4051      	eors	r1, r2
 8008630:	66c1      	str	r1, [r0, #108]	; 0x6c
 8008632:	ea97 0104 	eors.w	r1, r7, r4
 8008636:	ea03 0204 	and.w	r2, r3, r4
 800863a:	4051      	eors	r1, r2
 800863c:	ea03 0209 	and.w	r2, r3, r9
 8008640:	4051      	eors	r1, r2
 8008642:	ea08 0204 	and.w	r2, r8, r4
 8008646:	4051      	eors	r1, r2
 8008648:	6741      	str	r1, [r0, #116]	; 0x74
 800864a:	f8d0 72ac 	ldr.w	r7, [r0, #684]	; 0x2ac
 800864e:	f8d0 14b4 	ldr.w	r1, [r0, #1204]	; 0x4b4
 8008652:	f8d0 32b4 	ldr.w	r3, [r0, #692]	; 0x2b4
 8008656:	f8d0 24b8 	ldr.w	r2, [r0, #1208]	; 0x4b8
 800865a:	f8d0 42bc 	ldr.w	r4, [r0, #700]	; 0x2bc
 800865e:	f8d0 e4c4 	ldr.w	lr, [r0, #1220]	; 0x4c4
 8008662:	404f      	eors	r7, r1
 8008664:	4053      	eors	r3, r2
 8008666:	ea94 040e 	eors.w	r4, r4, lr
 800866a:	f8d0 52c4 	ldr.w	r5, [r0, #708]	; 0x2c4
 800866e:	f8d0 14c8 	ldr.w	r1, [r0, #1224]	; 0x4c8
 8008672:	f8d0 62cc 	ldr.w	r6, [r0, #716]	; 0x2cc
 8008676:	f8d0 e4d4 	ldr.w	lr, [r0, #1236]	; 0x4d4
 800867a:	404d      	eors	r5, r1
 800867c:	ea96 060e 	eors.w	r6, r6, lr
 8008680:	ea5f 57f7 	movs.w	r7, r7, ror #23
 8008684:	ea5f 7474 	movs.w	r4, r4, ror #29
 8008688:	ea5f 5535 	movs.w	r5, r5, ror #20
 800868c:	ea5f 7636 	movs.w	r6, r6, ror #28
 8008690:	ea98 010a 	eors.w	r1, r8, sl
 8008694:	ea09 020a 	and.w	r2, r9, sl
 8008698:	4051      	eors	r1, r2
 800869a:	ea09 0205 	and.w	r2, r9, r5
 800869e:	4051      	eors	r1, r2
 80086a0:	ea04 020a 	and.w	r2, r4, sl
 80086a4:	4051      	eors	r1, r2
 80086a6:	f8c0 111c 	str.w	r1, [r0, #284]	; 0x11c
 80086aa:	ea99 010b 	eors.w	r1, r9, fp
 80086ae:	ea0a 020b 	and.w	r2, sl, fp
 80086b2:	4051      	eors	r1, r2
 80086b4:	ea0a 0206 	and.w	r2, sl, r6
 80086b8:	4051      	eors	r1, r2
 80086ba:	ea05 020b 	and.w	r2, r5, fp
 80086be:	4051      	eors	r1, r2
 80086c0:	f8c0 1124 	str.w	r1, [r0, #292]	; 0x124
 80086c4:	ea9a 010c 	eors.w	r1, sl, ip
 80086c8:	ea0b 020c 	and.w	r2, fp, ip
 80086cc:	4051      	eors	r1, r2
 80086ce:	ea0b 0207 	and.w	r2, fp, r7
 80086d2:	4051      	eors	r1, r2
 80086d4:	ea06 020c 	and.w	r2, r6, ip
 80086d8:	4051      	eors	r1, r2
 80086da:	f8c0 112c 	str.w	r1, [r0, #300]	; 0x12c
 80086de:	ea9b 0108 	eors.w	r1, fp, r8
 80086e2:	ea0c 0208 	and.w	r2, ip, r8
 80086e6:	4051      	eors	r1, r2
 80086e8:	ea0c 0203 	and.w	r2, ip, r3
 80086ec:	4051      	eors	r1, r2
 80086ee:	ea07 0208 	and.w	r2, r7, r8
 80086f2:	4051      	eors	r1, r2
 80086f4:	f8c0 1134 	str.w	r1, [r0, #308]	; 0x134
 80086f8:	ea9c 0109 	eors.w	r1, ip, r9
 80086fc:	ea08 0209 	and.w	r2, r8, r9
 8008700:	4051      	eors	r1, r2
 8008702:	ea08 0204 	and.w	r2, r8, r4
 8008706:	4051      	eors	r1, r2
 8008708:	ea03 0209 	and.w	r2, r3, r9
 800870c:	4051      	eors	r1, r2
 800870e:	f8c0 113c 	str.w	r1, [r0, #316]	; 0x13c
 8008712:	f8d0 c374 	ldr.w	ip, [r0, #884]	; 0x374
 8008716:	f8d0 837c 	ldr.w	r8, [r0, #892]	; 0x37c
 800871a:	f8d0 9384 	ldr.w	r9, [r0, #900]	; 0x384
 800871e:	f8d0 a38c 	ldr.w	sl, [r0, #908]	; 0x38c
 8008722:	f8d0 b394 	ldr.w	fp, [r0, #916]	; 0x394
 8008726:	ea93 0105 	eors.w	r1, r3, r5
 800872a:	ea04 0205 	and.w	r2, r4, r5
 800872e:	4051      	eors	r1, r2
 8008730:	ea04 020a 	and.w	r2, r4, sl
 8008734:	4051      	eors	r1, r2
 8008736:	ea09 0205 	and.w	r2, r9, r5
 800873a:	4051      	eors	r1, r2
 800873c:	f8c0 11e4 	str.w	r1, [r0, #484]	; 0x1e4
 8008740:	ea94 0106 	eors.w	r1, r4, r6
 8008744:	ea05 0206 	and.w	r2, r5, r6
 8008748:	4051      	eors	r1, r2
 800874a:	ea05 020b 	and.w	r2, r5, fp
 800874e:	4051      	eors	r1, r2
 8008750:	ea0a 0206 	and.w	r2, sl, r6
 8008754:	4051      	eors	r1, r2
 8008756:	f8c0 11ec 	str.w	r1, [r0, #492]	; 0x1ec
 800875a:	ea95 0107 	eors.w	r1, r5, r7
 800875e:	ea06 0207 	and.w	r2, r6, r7
 8008762:	4051      	eors	r1, r2
 8008764:	ea06 020c 	and.w	r2, r6, ip
 8008768:	4051      	eors	r1, r2
 800876a:	ea0b 0207 	and.w	r2, fp, r7
 800876e:	4051      	eors	r1, r2
 8008770:	f8c0 11f4 	str.w	r1, [r0, #500]	; 0x1f4
 8008774:	ea96 0103 	eors.w	r1, r6, r3
 8008778:	ea07 0203 	and.w	r2, r7, r3
 800877c:	4051      	eors	r1, r2
 800877e:	ea07 0208 	and.w	r2, r7, r8
 8008782:	4051      	eors	r1, r2
 8008784:	ea0c 0203 	and.w	r2, ip, r3
 8008788:	4051      	eors	r1, r2
 800878a:	f8c0 11fc 	str.w	r1, [r0, #508]	; 0x1fc
 800878e:	ea97 0104 	eors.w	r1, r7, r4
 8008792:	ea03 0204 	and.w	r2, r3, r4
 8008796:	4051      	eors	r1, r2
 8008798:	ea03 0209 	and.w	r2, r3, r9
 800879c:	4051      	eors	r1, r2
 800879e:	ea08 0204 	and.w	r2, r8, r4
 80087a2:	4051      	eors	r1, r2
 80087a4:	f8c0 1204 	str.w	r1, [r0, #516]	; 0x204
 80087a8:	e8bd 5f04 	ldmia.w	sp!, {r2, r8, r9, sl, fp, ip, lr}
 80087ac:	f8d0 84d8 	ldr.w	r8, [r0, #1240]	; 0x4d8
 80087b0:	e92d 5f04 	stmdb	sp!, {r2, r8, r9, sl, fp, ip, lr}
 80087b4:	f8d0 4398 	ldr.w	r4, [r0, #920]	; 0x398
 80087b8:	f8d0 53a0 	ldr.w	r5, [r0, #928]	; 0x3a0
 80087bc:	f8d0 63a8 	ldr.w	r6, [r0, #936]	; 0x3a8
 80087c0:	f8d0 73b0 	ldr.w	r7, [r0, #944]	; 0x3b0
 80087c4:	f8d0 33b8 	ldr.w	r3, [r0, #952]	; 0x3b8
 80087c8:	ea94 0408 	eors.w	r4, r4, r8
 80087cc:	ea95 050a 	eors.w	r5, r5, sl
 80087d0:	4056      	eors	r6, r2
 80087d2:	ea97 0709 	eors.w	r7, r7, r9
 80087d6:	ea93 030e 	eors.w	r3, r3, lr
 80087da:	ea5f 34b4 	movs.w	r4, r4, ror #14
 80087de:	ea5f 65f5 	movs.w	r5, r5, ror #27
 80087e2:	ea5f 6636 	movs.w	r6, r6, ror #24
 80087e6:	ea5f 1737 	movs.w	r7, r7, ror #4
 80087ea:	ea5f 43b3 	movs.w	r3, r3, ror #18
 80087ee:	f8c0 4398 	str.w	r4, [r0, #920]	; 0x398
 80087f2:	f8c0 53a0 	str.w	r5, [r0, #928]	; 0x3a0
 80087f6:	f8c0 63a8 	str.w	r6, [r0, #936]	; 0x3a8
 80087fa:	f8c0 73b0 	str.w	r7, [r0, #944]	; 0x3b0
 80087fe:	f8c0 33b8 	str.w	r3, [r0, #952]	; 0x3b8
 8008802:	f8d0 9460 	ldr.w	r9, [r0, #1120]	; 0x460
 8008806:	f8d0 1500 	ldr.w	r1, [r0, #1280]	; 0x500
 800880a:	f8d0 a468 	ldr.w	sl, [r0, #1128]	; 0x468
 800880e:	f8d0 2508 	ldr.w	r2, [r0, #1288]	; 0x508
 8008812:	f8d0 b470 	ldr.w	fp, [r0, #1136]	; 0x470
 8008816:	f8d0 e514 	ldr.w	lr, [r0, #1300]	; 0x514
 800881a:	ea99 0901 	eors.w	r9, r9, r1
 800881e:	ea9a 0a02 	eors.w	sl, sl, r2
 8008822:	ea9b 0b0e 	eors.w	fp, fp, lr
 8008826:	f8d0 c478 	ldr.w	ip, [r0, #1144]	; 0x478
 800882a:	f8d0 1518 	ldr.w	r1, [r0, #1304]	; 0x518
 800882e:	f8d0 8480 	ldr.w	r8, [r0, #1152]	; 0x480
 8008832:	f8d0 e524 	ldr.w	lr, [r0, #1316]	; 0x524
 8008836:	ea9c 0c01 	eors.w	ip, ip, r1
 800883a:	ea98 080e 	eors.w	r8, r8, lr
 800883e:	ea5f 39b9 	movs.w	r9, r9, ror #14
 8008842:	ea5f 6afa 	movs.w	sl, sl, ror #27
 8008846:	ea5f 6b3b 	movs.w	fp, fp, ror #24
 800884a:	ea5f 1c3c 	movs.w	ip, ip, ror #4
 800884e:	ea5f 48b8 	movs.w	r8, r8, ror #18
 8008852:	ea93 0105 	eors.w	r1, r3, r5
 8008856:	ea04 0205 	and.w	r2, r4, r5
 800885a:	4051      	eors	r1, r2
 800885c:	ea04 020a 	and.w	r2, r4, sl
 8008860:	4051      	eors	r1, r2
 8008862:	ea09 0205 	and.w	r2, r9, r5
 8008866:	4051      	eors	r1, r2
 8008868:	6781      	str	r1, [r0, #120]	; 0x78
 800886a:	ea94 0106 	eors.w	r1, r4, r6
 800886e:	ea05 0206 	and.w	r2, r5, r6
 8008872:	4051      	eors	r1, r2
 8008874:	ea05 020b 	and.w	r2, r5, fp
 8008878:	4051      	eors	r1, r2
 800887a:	ea0a 0206 	and.w	r2, sl, r6
 800887e:	4051      	eors	r1, r2
 8008880:	f8c0 1080 	str.w	r1, [r0, #128]	; 0x80
 8008884:	ea95 0107 	eors.w	r1, r5, r7
 8008888:	ea06 0207 	and.w	r2, r6, r7
 800888c:	4051      	eors	r1, r2
 800888e:	ea06 020c 	and.w	r2, r6, ip
 8008892:	4051      	eors	r1, r2
 8008894:	ea0b 0207 	and.w	r2, fp, r7
 8008898:	4051      	eors	r1, r2
 800889a:	f8c0 1088 	str.w	r1, [r0, #136]	; 0x88
 800889e:	ea96 0103 	eors.w	r1, r6, r3
 80088a2:	ea07 0203 	and.w	r2, r7, r3
 80088a6:	4051      	eors	r1, r2
 80088a8:	ea07 0208 	and.w	r2, r7, r8
 80088ac:	4051      	eors	r1, r2
 80088ae:	ea0c 0203 	and.w	r2, ip, r3
 80088b2:	4051      	eors	r1, r2
 80088b4:	f8c0 1090 	str.w	r1, [r0, #144]	; 0x90
 80088b8:	ea97 0104 	eors.w	r1, r7, r4
 80088bc:	ea03 0204 	and.w	r2, r3, r4
 80088c0:	4051      	eors	r1, r2
 80088c2:	ea03 0209 	and.w	r2, r3, r9
 80088c6:	4051      	eors	r1, r2
 80088c8:	ea08 0204 	and.w	r2, r8, r4
 80088cc:	4051      	eors	r1, r2
 80088ce:	f8c0 1098 	str.w	r1, [r0, #152]	; 0x98
 80088d2:	f8d0 42d0 	ldr.w	r4, [r0, #720]	; 0x2d0
 80088d6:	f8d0 14b0 	ldr.w	r1, [r0, #1200]	; 0x4b0
 80088da:	f8d0 52d8 	ldr.w	r5, [r0, #728]	; 0x2d8
 80088de:	f8d0 24b8 	ldr.w	r2, [r0, #1208]	; 0x4b8
 80088e2:	f8d0 62e0 	ldr.w	r6, [r0, #736]	; 0x2e0
 80088e6:	f8d0 e4c4 	ldr.w	lr, [r0, #1220]	; 0x4c4
 80088ea:	404c      	eors	r4, r1
 80088ec:	4055      	eors	r5, r2
 80088ee:	ea96 060e 	eors.w	r6, r6, lr
 80088f2:	f8d0 72e8 	ldr.w	r7, [r0, #744]	; 0x2e8
 80088f6:	f8d0 14c8 	ldr.w	r1, [r0, #1224]	; 0x4c8
 80088fa:	f8d0 32f0 	ldr.w	r3, [r0, #752]	; 0x2f0
 80088fe:	f8d0 e4d4 	ldr.w	lr, [r0, #1236]	; 0x4d4
 8008902:	404f      	eors	r7, r1
 8008904:	ea93 030e 	eors.w	r3, r3, lr
 8008908:	ea5f 34b4 	movs.w	r4, r4, ror #14
 800890c:	ea5f 65f5 	movs.w	r5, r5, ror #27
 8008910:	ea5f 6636 	movs.w	r6, r6, ror #24
 8008914:	ea5f 1737 	movs.w	r7, r7, ror #4
 8008918:	ea5f 43b3 	movs.w	r3, r3, ror #18
 800891c:	ea98 010a 	eors.w	r1, r8, sl
 8008920:	ea09 020a 	and.w	r2, r9, sl
 8008924:	4051      	eors	r1, r2
 8008926:	ea09 0205 	and.w	r2, r9, r5
 800892a:	4051      	eors	r1, r2
 800892c:	ea04 020a 	and.w	r2, r4, sl
 8008930:	4051      	eors	r1, r2
 8008932:	f8c0 1140 	str.w	r1, [r0, #320]	; 0x140
 8008936:	ea99 010b 	eors.w	r1, r9, fp
 800893a:	ea0a 020b 	and.w	r2, sl, fp
 800893e:	4051      	eors	r1, r2
 8008940:	ea0a 0206 	and.w	r2, sl, r6
 8008944:	4051      	eors	r1, r2
 8008946:	ea05 020b 	and.w	r2, r5, fp
 800894a:	4051      	eors	r1, r2
 800894c:	f8c0 1148 	str.w	r1, [r0, #328]	; 0x148
 8008950:	ea9a 010c 	eors.w	r1, sl, ip
 8008954:	ea0b 020c 	and.w	r2, fp, ip
 8008958:	4051      	eors	r1, r2
 800895a:	ea0b 0207 	and.w	r2, fp, r7
 800895e:	4051      	eors	r1, r2
 8008960:	ea06 020c 	and.w	r2, r6, ip
 8008964:	4051      	eors	r1, r2
 8008966:	f8c0 1150 	str.w	r1, [r0, #336]	; 0x150
 800896a:	ea9b 0108 	eors.w	r1, fp, r8
 800896e:	ea0c 0208 	and.w	r2, ip, r8
 8008972:	4051      	eors	r1, r2
 8008974:	ea0c 0203 	and.w	r2, ip, r3
 8008978:	4051      	eors	r1, r2
 800897a:	ea07 0208 	and.w	r2, r7, r8
 800897e:	4051      	eors	r1, r2
 8008980:	f8c0 1158 	str.w	r1, [r0, #344]	; 0x158
 8008984:	ea9c 0109 	eors.w	r1, ip, r9
 8008988:	ea08 0209 	and.w	r2, r8, r9
 800898c:	4051      	eors	r1, r2
 800898e:	ea08 0204 	and.w	r2, r8, r4
 8008992:	4051      	eors	r1, r2
 8008994:	ea03 0209 	and.w	r2, r3, r9
 8008998:	4051      	eors	r1, r2
 800899a:	f8c0 1160 	str.w	r1, [r0, #352]	; 0x160
 800899e:	f8d0 9398 	ldr.w	r9, [r0, #920]	; 0x398
 80089a2:	f8d0 a3a0 	ldr.w	sl, [r0, #928]	; 0x3a0
 80089a6:	f8d0 b3a8 	ldr.w	fp, [r0, #936]	; 0x3a8
 80089aa:	f8d0 c3b0 	ldr.w	ip, [r0, #944]	; 0x3b0
 80089ae:	f8d0 83b8 	ldr.w	r8, [r0, #952]	; 0x3b8
 80089b2:	ea93 0105 	eors.w	r1, r3, r5
 80089b6:	ea04 0205 	and.w	r2, r4, r5
 80089ba:	4051      	eors	r1, r2
 80089bc:	ea04 020a 	and.w	r2, r4, sl
 80089c0:	4051      	eors	r1, r2
 80089c2:	ea09 0205 	and.w	r2, r9, r5
 80089c6:	4051      	eors	r1, r2
 80089c8:	f8c0 1208 	str.w	r1, [r0, #520]	; 0x208
 80089cc:	ea94 0106 	eors.w	r1, r4, r6
 80089d0:	ea05 0206 	and.w	r2, r5, r6
 80089d4:	4051      	eors	r1, r2
 80089d6:	ea05 020b 	and.w	r2, r5, fp
 80089da:	4051      	eors	r1, r2
 80089dc:	ea0a 0206 	and.w	r2, sl, r6
 80089e0:	4051      	eors	r1, r2
 80089e2:	f8c0 1210 	str.w	r1, [r0, #528]	; 0x210
 80089e6:	ea95 0107 	eors.w	r1, r5, r7
 80089ea:	ea06 0207 	and.w	r2, r6, r7
 80089ee:	4051      	eors	r1, r2
 80089f0:	ea06 020c 	and.w	r2, r6, ip
 80089f4:	4051      	eors	r1, r2
 80089f6:	ea0b 0207 	and.w	r2, fp, r7
 80089fa:	4051      	eors	r1, r2
 80089fc:	f8c0 1218 	str.w	r1, [r0, #536]	; 0x218
 8008a00:	ea96 0103 	eors.w	r1, r6, r3
 8008a04:	ea07 0203 	and.w	r2, r7, r3
 8008a08:	4051      	eors	r1, r2
 8008a0a:	ea07 0208 	and.w	r2, r7, r8
 8008a0e:	4051      	eors	r1, r2
 8008a10:	ea0c 0203 	and.w	r2, ip, r3
 8008a14:	4051      	eors	r1, r2
 8008a16:	f8c0 1220 	str.w	r1, [r0, #544]	; 0x220
 8008a1a:	ea97 0104 	eors.w	r1, r7, r4
 8008a1e:	ea03 0204 	and.w	r2, r3, r4
 8008a22:	4051      	eors	r1, r2
 8008a24:	ea03 0209 	and.w	r2, r3, r9
 8008a28:	4051      	eors	r1, r2
 8008a2a:	ea08 0204 	and.w	r2, r8, r4
 8008a2e:	4051      	eors	r1, r2
 8008a30:	f8c0 1228 	str.w	r1, [r0, #552]	; 0x228
 8008a34:	e8bd 5f04 	ldmia.w	sp!, {r2, r8, r9, sl, fp, ip, lr}
 8008a38:	e92d 5f04 	stmdb	sp!, {r2, r8, r9, sl, fp, ip, lr}
 8008a3c:	f8d0 63c4 	ldr.w	r6, [r0, #964]	; 0x3c4
 8008a40:	f8d0 73cc 	ldr.w	r7, [r0, #972]	; 0x3cc
 8008a44:	f8d0 33d4 	ldr.w	r3, [r0, #980]	; 0x3d4
 8008a48:	f8d0 43dc 	ldr.w	r4, [r0, #988]	; 0x3dc
 8008a4c:	f8d0 53e4 	ldr.w	r5, [r0, #996]	; 0x3e4
 8008a50:	ea96 0608 	eors.w	r6, r6, r8
 8008a54:	ea97 070b 	eors.w	r7, r7, fp
 8008a58:	4053      	eors	r3, r2
 8008a5a:	ea94 0409 	eors.w	r4, r4, r9
 8008a5e:	ea95 050c 	eors.w	r5, r5, ip
 8008a62:	ea5f 3636 	movs.w	r6, r6, ror #12
 8008a66:	ea5f 77f7 	movs.w	r7, r7, ror #31
 8008a6a:	ea5f 0373 	movs.w	r3, r3, ror #1
 8008a6e:	ea5f 1474 	movs.w	r4, r4, ror #5
 8008a72:	ea5f 3575 	movs.w	r5, r5, ror #13
 8008a76:	f8c0 63c4 	str.w	r6, [r0, #964]	; 0x3c4
 8008a7a:	f8c0 73cc 	str.w	r7, [r0, #972]	; 0x3cc
 8008a7e:	f8c0 33d4 	str.w	r3, [r0, #980]	; 0x3d4
 8008a82:	f8c0 43dc 	str.w	r4, [r0, #988]	; 0x3dc
 8008a86:	f8c0 53e4 	str.w	r5, [r0, #996]	; 0x3e4
 8008a8a:	f8d0 b48c 	ldr.w	fp, [r0, #1164]	; 0x48c
 8008a8e:	f8d0 1500 	ldr.w	r1, [r0, #1280]	; 0x500
 8008a92:	f8d0 c494 	ldr.w	ip, [r0, #1172]	; 0x494
 8008a96:	f8d0 250c 	ldr.w	r2, [r0, #1292]	; 0x50c
 8008a9a:	f8d0 849c 	ldr.w	r8, [r0, #1180]	; 0x49c
 8008a9e:	f8d0 e514 	ldr.w	lr, [r0, #1300]	; 0x514
 8008aa2:	ea9b 0b01 	eors.w	fp, fp, r1
 8008aa6:	ea9c 0c02 	eors.w	ip, ip, r2
 8008aaa:	ea98 080e 	eors.w	r8, r8, lr
 8008aae:	f8d0 94a4 	ldr.w	r9, [r0, #1188]	; 0x4a4
 8008ab2:	f8d0 1518 	ldr.w	r1, [r0, #1304]	; 0x518
 8008ab6:	f8d0 a4ac 	ldr.w	sl, [r0, #1196]	; 0x4ac
 8008aba:	f8d0 e520 	ldr.w	lr, [r0, #1312]	; 0x520
 8008abe:	ea99 0901 	eors.w	r9, r9, r1
 8008ac2:	ea9a 0a0e 	eors.w	sl, sl, lr
 8008ac6:	ea5f 3b3b 	movs.w	fp, fp, ror #12
 8008aca:	ea5f 7cfc 	movs.w	ip, ip, ror #31
 8008ace:	ea5f 0878 	movs.w	r8, r8, ror #1
 8008ad2:	ea5f 1979 	movs.w	r9, r9, ror #5
 8008ad6:	ea5f 3a7a 	movs.w	sl, sl, ror #13
 8008ada:	ea93 0105 	eors.w	r1, r3, r5
 8008ade:	ea04 0205 	and.w	r2, r4, r5
 8008ae2:	4051      	eors	r1, r2
 8008ae4:	ea04 020a 	and.w	r2, r4, sl
 8008ae8:	4051      	eors	r1, r2
 8008aea:	ea09 0205 	and.w	r2, r9, r5
 8008aee:	4051      	eors	r1, r2
 8008af0:	f8c0 10a4 	str.w	r1, [r0, #164]	; 0xa4
 8008af4:	ea94 0106 	eors.w	r1, r4, r6
 8008af8:	ea05 0206 	and.w	r2, r5, r6
 8008afc:	4051      	eors	r1, r2
 8008afe:	ea05 020b 	and.w	r2, r5, fp
 8008b02:	4051      	eors	r1, r2
 8008b04:	ea0a 0206 	and.w	r2, sl, r6
 8008b08:	4051      	eors	r1, r2
 8008b0a:	f8c0 10ac 	str.w	r1, [r0, #172]	; 0xac
 8008b0e:	ea95 0107 	eors.w	r1, r5, r7
 8008b12:	ea06 0207 	and.w	r2, r6, r7
 8008b16:	4051      	eors	r1, r2
 8008b18:	ea06 020c 	and.w	r2, r6, ip
 8008b1c:	4051      	eors	r1, r2
 8008b1e:	ea0b 0207 	and.w	r2, fp, r7
 8008b22:	4051      	eors	r1, r2
 8008b24:	f8c0 10b4 	str.w	r1, [r0, #180]	; 0xb4
 8008b28:	ea96 0103 	eors.w	r1, r6, r3
 8008b2c:	ea07 0203 	and.w	r2, r7, r3
 8008b30:	4051      	eors	r1, r2
 8008b32:	ea07 0208 	and.w	r2, r7, r8
 8008b36:	4051      	eors	r1, r2
 8008b38:	ea0c 0203 	and.w	r2, ip, r3
 8008b3c:	4051      	eors	r1, r2
 8008b3e:	f8c0 10bc 	str.w	r1, [r0, #188]	; 0xbc
 8008b42:	ea97 0104 	eors.w	r1, r7, r4
 8008b46:	ea03 0204 	and.w	r2, r3, r4
 8008b4a:	4051      	eors	r1, r2
 8008b4c:	ea03 0209 	and.w	r2, r3, r9
 8008b50:	4051      	eors	r1, r2
 8008b52:	ea08 0204 	and.w	r2, r8, r4
 8008b56:	4051      	eors	r1, r2
 8008b58:	f8c0 10c4 	str.w	r1, [r0, #196]	; 0xc4
 8008b5c:	f8d0 62fc 	ldr.w	r6, [r0, #764]	; 0x2fc
 8008b60:	f8d0 14b0 	ldr.w	r1, [r0, #1200]	; 0x4b0
 8008b64:	f8d0 7304 	ldr.w	r7, [r0, #772]	; 0x304
 8008b68:	f8d0 24bc 	ldr.w	r2, [r0, #1212]	; 0x4bc
 8008b6c:	f8d0 330c 	ldr.w	r3, [r0, #780]	; 0x30c
 8008b70:	f8d0 e4c4 	ldr.w	lr, [r0, #1220]	; 0x4c4
 8008b74:	404e      	eors	r6, r1
 8008b76:	4057      	eors	r7, r2
 8008b78:	ea93 030e 	eors.w	r3, r3, lr
 8008b7c:	f8d0 4314 	ldr.w	r4, [r0, #788]	; 0x314
 8008b80:	f8d0 14c8 	ldr.w	r1, [r0, #1224]	; 0x4c8
 8008b84:	f8d0 531c 	ldr.w	r5, [r0, #796]	; 0x31c
 8008b88:	f8d0 e4d0 	ldr.w	lr, [r0, #1232]	; 0x4d0
 8008b8c:	404c      	eors	r4, r1
 8008b8e:	ea95 050e 	eors.w	r5, r5, lr
 8008b92:	ea5f 3636 	movs.w	r6, r6, ror #12
 8008b96:	ea5f 77f7 	movs.w	r7, r7, ror #31
 8008b9a:	ea5f 0373 	movs.w	r3, r3, ror #1
 8008b9e:	ea5f 1474 	movs.w	r4, r4, ror #5
 8008ba2:	ea5f 3575 	movs.w	r5, r5, ror #13
 8008ba6:	ea98 010a 	eors.w	r1, r8, sl
 8008baa:	ea09 020a 	and.w	r2, r9, sl
 8008bae:	4051      	eors	r1, r2
 8008bb0:	ea09 0205 	and.w	r2, r9, r5
 8008bb4:	4051      	eors	r1, r2
 8008bb6:	ea04 020a 	and.w	r2, r4, sl
 8008bba:	4051      	eors	r1, r2
 8008bbc:	f8c0 116c 	str.w	r1, [r0, #364]	; 0x16c
 8008bc0:	ea99 010b 	eors.w	r1, r9, fp
 8008bc4:	ea0a 020b 	and.w	r2, sl, fp
 8008bc8:	4051      	eors	r1, r2
 8008bca:	ea0a 0206 	and.w	r2, sl, r6
 8008bce:	4051      	eors	r1, r2
 8008bd0:	ea05 020b 	and.w	r2, r5, fp
 8008bd4:	4051      	eors	r1, r2
 8008bd6:	f8c0 1174 	str.w	r1, [r0, #372]	; 0x174
 8008bda:	ea9a 010c 	eors.w	r1, sl, ip
 8008bde:	ea0b 020c 	and.w	r2, fp, ip
 8008be2:	4051      	eors	r1, r2
 8008be4:	ea0b 0207 	and.w	r2, fp, r7
 8008be8:	4051      	eors	r1, r2
 8008bea:	ea06 020c 	and.w	r2, r6, ip
 8008bee:	4051      	eors	r1, r2
 8008bf0:	f8c0 117c 	str.w	r1, [r0, #380]	; 0x17c
 8008bf4:	ea9b 0108 	eors.w	r1, fp, r8
 8008bf8:	ea0c 0208 	and.w	r2, ip, r8
 8008bfc:	4051      	eors	r1, r2
 8008bfe:	ea0c 0203 	and.w	r2, ip, r3
 8008c02:	4051      	eors	r1, r2
 8008c04:	ea07 0208 	and.w	r2, r7, r8
 8008c08:	4051      	eors	r1, r2
 8008c0a:	f8c0 1184 	str.w	r1, [r0, #388]	; 0x184
 8008c0e:	ea9c 0109 	eors.w	r1, ip, r9
 8008c12:	ea08 0209 	and.w	r2, r8, r9
 8008c16:	4051      	eors	r1, r2
 8008c18:	ea08 0204 	and.w	r2, r8, r4
 8008c1c:	4051      	eors	r1, r2
 8008c1e:	ea03 0209 	and.w	r2, r3, r9
 8008c22:	4051      	eors	r1, r2
 8008c24:	f8c0 118c 	str.w	r1, [r0, #396]	; 0x18c
 8008c28:	f8d0 b3c4 	ldr.w	fp, [r0, #964]	; 0x3c4
 8008c2c:	f8d0 c3cc 	ldr.w	ip, [r0, #972]	; 0x3cc
 8008c30:	f8d0 83d4 	ldr.w	r8, [r0, #980]	; 0x3d4
 8008c34:	f8d0 93dc 	ldr.w	r9, [r0, #988]	; 0x3dc
 8008c38:	f8d0 a3e4 	ldr.w	sl, [r0, #996]	; 0x3e4
 8008c3c:	ea93 0105 	eors.w	r1, r3, r5
 8008c40:	ea04 0205 	and.w	r2, r4, r5
 8008c44:	4051      	eors	r1, r2
 8008c46:	ea04 020a 	and.w	r2, r4, sl
 8008c4a:	4051      	eors	r1, r2
 8008c4c:	ea09 0205 	and.w	r2, r9, r5
 8008c50:	4051      	eors	r1, r2
 8008c52:	f8c0 1234 	str.w	r1, [r0, #564]	; 0x234
 8008c56:	ea94 0106 	eors.w	r1, r4, r6
 8008c5a:	ea05 0206 	and.w	r2, r5, r6
 8008c5e:	4051      	eors	r1, r2
 8008c60:	ea05 020b 	and.w	r2, r5, fp
 8008c64:	4051      	eors	r1, r2
 8008c66:	ea0a 0206 	and.w	r2, sl, r6
 8008c6a:	4051      	eors	r1, r2
 8008c6c:	f8c0 123c 	str.w	r1, [r0, #572]	; 0x23c
 8008c70:	ea95 0107 	eors.w	r1, r5, r7
 8008c74:	ea06 0207 	and.w	r2, r6, r7
 8008c78:	4051      	eors	r1, r2
 8008c7a:	ea06 020c 	and.w	r2, r6, ip
 8008c7e:	4051      	eors	r1, r2
 8008c80:	ea0b 0207 	and.w	r2, fp, r7
 8008c84:	4051      	eors	r1, r2
 8008c86:	f8c0 1244 	str.w	r1, [r0, #580]	; 0x244
 8008c8a:	ea96 0103 	eors.w	r1, r6, r3
 8008c8e:	ea07 0203 	and.w	r2, r7, r3
 8008c92:	4051      	eors	r1, r2
 8008c94:	ea07 0208 	and.w	r2, r7, r8
 8008c98:	4051      	eors	r1, r2
 8008c9a:	ea0c 0203 	and.w	r2, ip, r3
 8008c9e:	4051      	eors	r1, r2
 8008ca0:	f8c0 124c 	str.w	r1, [r0, #588]	; 0x24c
 8008ca4:	ea97 0104 	eors.w	r1, r7, r4
 8008ca8:	ea03 0204 	and.w	r2, r3, r4
 8008cac:	4051      	eors	r1, r2
 8008cae:	ea03 0209 	and.w	r2, r3, r9
 8008cb2:	4051      	eors	r1, r2
 8008cb4:	ea08 0204 	and.w	r2, r8, r4
 8008cb8:	4051      	eors	r1, r2
 8008cba:	f8c0 1254 	str.w	r1, [r0, #596]	; 0x254
 8008cbe:	e8bd 5f04 	ldmia.w	sp!, {r2, r8, r9, sl, fp, ip, lr}
 8008cc2:	f8d0 94f4 	ldr.w	r9, [r0, #1268]	; 0x4f4
 8008cc6:	e92d 5f04 	stmdb	sp!, {r2, r8, r9, sl, fp, ip, lr}
 8008cca:	f8d0 3320 	ldr.w	r3, [r0, #800]	; 0x320
 8008cce:	f8d0 4328 	ldr.w	r4, [r0, #808]	; 0x328
 8008cd2:	f8d0 5330 	ldr.w	r5, [r0, #816]	; 0x330
 8008cd6:	f8d0 6338 	ldr.w	r6, [r0, #824]	; 0x338
 8008cda:	f8d0 7340 	ldr.w	r7, [r0, #832]	; 0x340
 8008cde:	ea93 0308 	eors.w	r3, r3, r8
 8008ce2:	ea94 040a 	eors.w	r4, r4, sl
 8008ce6:	4055      	eors	r5, r2
 8008ce8:	ea96 0609 	eors.w	r6, r6, r9
 8008cec:	ea97 070c 	eors.w	r7, r7, ip
 8008cf0:	ea5f 24b4 	movs.w	r4, r4, ror #10
 8008cf4:	ea5f 25b5 	movs.w	r5, r5, ror #10
 8008cf8:	ea5f 5676 	movs.w	r6, r6, ror #21
 8008cfc:	ea5f 6777 	movs.w	r7, r7, ror #25
 8008d00:	f8c0 3320 	str.w	r3, [r0, #800]	; 0x320
 8008d04:	f8c0 4328 	str.w	r4, [r0, #808]	; 0x328
 8008d08:	f8c0 5330 	str.w	r5, [r0, #816]	; 0x330
 8008d0c:	f8c0 6338 	str.w	r6, [r0, #824]	; 0x338
 8008d10:	f8c0 7340 	str.w	r7, [r0, #832]	; 0x340
 8008d14:	f8d0 83e8 	ldr.w	r8, [r0, #1000]	; 0x3e8
 8008d18:	f8d0 1500 	ldr.w	r1, [r0, #1280]	; 0x500
 8008d1c:	f8d0 93f0 	ldr.w	r9, [r0, #1008]	; 0x3f0
 8008d20:	f8d0 2508 	ldr.w	r2, [r0, #1288]	; 0x508
 8008d24:	f8d0 a3f8 	ldr.w	sl, [r0, #1016]	; 0x3f8
 8008d28:	f8d0 e514 	ldr.w	lr, [r0, #1300]	; 0x514
 8008d2c:	ea98 0801 	eors.w	r8, r8, r1
 8008d30:	ea99 0902 	eors.w	r9, r9, r2
 8008d34:	ea9a 0a0e 	eors.w	sl, sl, lr
 8008d38:	f8d0 b400 	ldr.w	fp, [r0, #1024]	; 0x400
 8008d3c:	f8d0 151c 	ldr.w	r1, [r0, #1308]	; 0x51c
 8008d40:	f8d0 c408 	ldr.w	ip, [r0, #1032]	; 0x408
 8008d44:	f8d0 e520 	ldr.w	lr, [r0, #1312]	; 0x520
 8008d48:	ea9b 0b01 	eors.w	fp, fp, r1
 8008d4c:	ea9c 0c0e 	eors.w	ip, ip, lr
 8008d50:	ea5f 29b9 	movs.w	r9, r9, ror #10
 8008d54:	ea5f 2aba 	movs.w	sl, sl, ror #10
 8008d58:	ea5f 5b7b 	movs.w	fp, fp, ror #21
 8008d5c:	ea5f 6c7c 	movs.w	ip, ip, ror #25
 8008d60:	ea93 0105 	eors.w	r1, r3, r5
 8008d64:	ea04 0205 	and.w	r2, r4, r5
 8008d68:	4051      	eors	r1, r2
 8008d6a:	ea04 020a 	and.w	r2, r4, sl
 8008d6e:	4051      	eors	r1, r2
 8008d70:	ea09 0205 	and.w	r2, r9, r5
 8008d74:	4051      	eors	r1, r2
 8008d76:	6001      	str	r1, [r0, #0]
 8008d78:	ea94 0106 	eors.w	r1, r4, r6
 8008d7c:	ea05 0206 	and.w	r2, r5, r6
 8008d80:	4051      	eors	r1, r2
 8008d82:	ea05 020b 	and.w	r2, r5, fp
 8008d86:	4051      	eors	r1, r2
 8008d88:	ea0a 0206 	and.w	r2, sl, r6
 8008d8c:	4051      	eors	r1, r2
 8008d8e:	6081      	str	r1, [r0, #8]
 8008d90:	ea95 0107 	eors.w	r1, r5, r7
 8008d94:	ea06 0207 	and.w	r2, r6, r7
 8008d98:	4051      	eors	r1, r2
 8008d9a:	ea06 020c 	and.w	r2, r6, ip
 8008d9e:	4051      	eors	r1, r2
 8008da0:	ea0b 0207 	and.w	r2, fp, r7
 8008da4:	4051      	eors	r1, r2
 8008da6:	6101      	str	r1, [r0, #16]
 8008da8:	ea96 0103 	eors.w	r1, r6, r3
 8008dac:	ea07 0203 	and.w	r2, r7, r3
 8008db0:	4051      	eors	r1, r2
 8008db2:	ea07 0208 	and.w	r2, r7, r8
 8008db6:	4051      	eors	r1, r2
 8008db8:	ea0c 0203 	and.w	r2, ip, r3
 8008dbc:	4051      	eors	r1, r2
 8008dbe:	6181      	str	r1, [r0, #24]
 8008dc0:	ea97 0104 	eors.w	r1, r7, r4
 8008dc4:	ea03 0204 	and.w	r2, r3, r4
 8008dc8:	4051      	eors	r1, r2
 8008dca:	ea03 0209 	and.w	r2, r3, r9
 8008dce:	4051      	eors	r1, r2
 8008dd0:	ea08 0204 	and.w	r2, r8, r4
 8008dd4:	4051      	eors	r1, r2
 8008dd6:	6201      	str	r1, [r0, #32]
 8008dd8:	f8d0 3258 	ldr.w	r3, [r0, #600]	; 0x258
 8008ddc:	f8d0 14b0 	ldr.w	r1, [r0, #1200]	; 0x4b0
 8008de0:	f8d0 4260 	ldr.w	r4, [r0, #608]	; 0x260
 8008de4:	f8d0 24b8 	ldr.w	r2, [r0, #1208]	; 0x4b8
 8008de8:	f8d0 5268 	ldr.w	r5, [r0, #616]	; 0x268
 8008dec:	f8d0 e4c4 	ldr.w	lr, [r0, #1220]	; 0x4c4
 8008df0:	404b      	eors	r3, r1
 8008df2:	4054      	eors	r4, r2
 8008df4:	ea95 050e 	eors.w	r5, r5, lr
 8008df8:	f8d0 6270 	ldr.w	r6, [r0, #624]	; 0x270
 8008dfc:	f8d0 14cc 	ldr.w	r1, [r0, #1228]	; 0x4cc
 8008e00:	f8d0 7278 	ldr.w	r7, [r0, #632]	; 0x278
 8008e04:	f8d0 e4d0 	ldr.w	lr, [r0, #1232]	; 0x4d0
 8008e08:	404e      	eors	r6, r1
 8008e0a:	ea97 070e 	eors.w	r7, r7, lr
 8008e0e:	ea5f 24b4 	movs.w	r4, r4, ror #10
 8008e12:	ea5f 25b5 	movs.w	r5, r5, ror #10
 8008e16:	ea5f 5676 	movs.w	r6, r6, ror #21
 8008e1a:	ea5f 6777 	movs.w	r7, r7, ror #25
 8008e1e:	ea98 010a 	eors.w	r1, r8, sl
 8008e22:	ea09 020a 	and.w	r2, r9, sl
 8008e26:	4051      	eors	r1, r2
 8008e28:	ea09 0205 	and.w	r2, r9, r5
 8008e2c:	4051      	eors	r1, r2
 8008e2e:	ea04 020a 	and.w	r2, r4, sl
 8008e32:	4051      	eors	r1, r2
 8008e34:	f8c0 10c8 	str.w	r1, [r0, #200]	; 0xc8
 8008e38:	ea99 010b 	eors.w	r1, r9, fp
 8008e3c:	ea0a 020b 	and.w	r2, sl, fp
 8008e40:	4051      	eors	r1, r2
 8008e42:	ea0a 0206 	and.w	r2, sl, r6
 8008e46:	4051      	eors	r1, r2
 8008e48:	ea05 020b 	and.w	r2, r5, fp
 8008e4c:	4051      	eors	r1, r2
 8008e4e:	f8c0 10d0 	str.w	r1, [r0, #208]	; 0xd0
 8008e52:	ea9a 010c 	eors.w	r1, sl, ip
 8008e56:	ea0b 020c 	and.w	r2, fp, ip
 8008e5a:	4051      	eors	r1, r2
 8008e5c:	ea0b 0207 	and.w	r2, fp, r7
 8008e60:	4051      	eors	r1, r2
 8008e62:	ea06 020c 	and.w	r2, r6, ip
 8008e66:	4051      	eors	r1, r2
 8008e68:	f8c0 10d8 	str.w	r1, [r0, #216]	; 0xd8
 8008e6c:	ea9b 0108 	eors.w	r1, fp, r8
 8008e70:	ea0c 0208 	and.w	r2, ip, r8
 8008e74:	4051      	eors	r1, r2
 8008e76:	ea0c 0203 	and.w	r2, ip, r3
 8008e7a:	4051      	eors	r1, r2
 8008e7c:	ea07 0208 	and.w	r2, r7, r8
 8008e80:	4051      	eors	r1, r2
 8008e82:	f8c0 10e0 	str.w	r1, [r0, #224]	; 0xe0
 8008e86:	ea9c 0109 	eors.w	r1, ip, r9
 8008e8a:	ea08 0209 	and.w	r2, r8, r9
 8008e8e:	4051      	eors	r1, r2
 8008e90:	ea08 0204 	and.w	r2, r8, r4
 8008e94:	4051      	eors	r1, r2
 8008e96:	ea03 0209 	and.w	r2, r3, r9
 8008e9a:	4051      	eors	r1, r2
 8008e9c:	f8c0 10e8 	str.w	r1, [r0, #232]	; 0xe8
 8008ea0:	f8d0 8320 	ldr.w	r8, [r0, #800]	; 0x320
 8008ea4:	f8d0 9328 	ldr.w	r9, [r0, #808]	; 0x328
 8008ea8:	f8d0 a330 	ldr.w	sl, [r0, #816]	; 0x330
 8008eac:	f8d0 b338 	ldr.w	fp, [r0, #824]	; 0x338
 8008eb0:	f8d0 c340 	ldr.w	ip, [r0, #832]	; 0x340
 8008eb4:	ea94 0106 	eors.w	r1, r4, r6
 8008eb8:	ea05 0206 	and.w	r2, r5, r6
 8008ebc:	4051      	eors	r1, r2
 8008ebe:	ea05 020b 	and.w	r2, r5, fp
 8008ec2:	4051      	eors	r1, r2
 8008ec4:	ea0a 0206 	and.w	r2, sl, r6
 8008ec8:	4051      	eors	r1, r2
 8008eca:	f8c0 1198 	str.w	r1, [r0, #408]	; 0x198
 8008ece:	ea95 0107 	eors.w	r1, r5, r7
 8008ed2:	ea06 0207 	and.w	r2, r6, r7
 8008ed6:	4051      	eors	r1, r2
 8008ed8:	ea06 020c 	and.w	r2, r6, ip
 8008edc:	4051      	eors	r1, r2
 8008ede:	ea0b 0207 	and.w	r2, fp, r7
 8008ee2:	4051      	eors	r1, r2
 8008ee4:	f8c0 11a0 	str.w	r1, [r0, #416]	; 0x1a0
 8008ee8:	ea96 0103 	eors.w	r1, r6, r3
 8008eec:	ea07 0203 	and.w	r2, r7, r3
 8008ef0:	4051      	eors	r1, r2
 8008ef2:	ea07 0208 	and.w	r2, r7, r8
 8008ef6:	4051      	eors	r1, r2
 8008ef8:	ea0c 0203 	and.w	r2, ip, r3
 8008efc:	4051      	eors	r1, r2
 8008efe:	f8c0 11a8 	str.w	r1, [r0, #424]	; 0x1a8
 8008f02:	ea97 0104 	eors.w	r1, r7, r4
 8008f06:	ea03 0204 	and.w	r2, r3, r4
 8008f0a:	4051      	eors	r1, r2
 8008f0c:	ea03 0209 	and.w	r2, r3, r9
 8008f10:	4051      	eors	r1, r2
 8008f12:	ea08 0204 	and.w	r2, r8, r4
 8008f16:	4051      	eors	r1, r2
 8008f18:	f8c0 11b0 	str.w	r1, [r0, #432]	; 0x1b0
 8008f1c:	f8d0 1528 	ldr.w	r1, [r0, #1320]	; 0x528
 8008f20:	ea93 0605 	eors.w	r6, r3, r5
 8008f24:	ea04 0705 	and.w	r7, r4, r5
 8008f28:	407e      	eors	r6, r7
 8008f2a:	ea04 070a 	and.w	r7, r4, sl
 8008f2e:	407e      	eors	r6, r7
 8008f30:	ea09 0705 	and.w	r7, r9, r5
 8008f34:	407e      	eors	r6, r7
 8008f36:	698c      	ldr	r4, [r1, #24]
 8008f38:	4066      	eors	r6, r4
 8008f3a:	f8c0 6190 	str.w	r6, [r0, #400]	; 0x190
 8008f3e:	e8bd 5f04 	ldmia.w	sp!, {r2, r8, r9, sl, fp, ip, lr}
 8008f42:	f8d0 24e8 	ldr.w	r2, [r0, #1256]	; 0x4e8
 8008f46:	e92d 5f04 	stmdb	sp!, {r2, r8, r9, sl, fp, ip, lr}
 8008f4a:	f8d0 534c 	ldr.w	r5, [r0, #844]	; 0x34c
 8008f4e:	f8d0 6354 	ldr.w	r6, [r0, #852]	; 0x354
 8008f52:	f8d0 735c 	ldr.w	r7, [r0, #860]	; 0x35c
 8008f56:	f8d0 3364 	ldr.w	r3, [r0, #868]	; 0x364
 8008f5a:	f8d0 436c 	ldr.w	r4, [r0, #876]	; 0x36c
 8008f5e:	ea95 0508 	eors.w	r5, r5, r8
 8008f62:	ea96 060a 	eors.w	r6, r6, sl
 8008f66:	4057      	eors	r7, r2
 8008f68:	ea93 0309 	eors.w	r3, r3, r9
 8008f6c:	ea94 040e 	eors.w	r4, r4, lr
 8008f70:	ea5f 75f5 	movs.w	r5, r5, ror #31
 8008f74:	ea5f 26b6 	movs.w	r6, r6, ror #10
 8008f78:	ea5f 07b7 	movs.w	r7, r7, ror #2
 8008f7c:	ea5f 43b3 	movs.w	r3, r3, ror #18
 8008f80:	ea5f 54b4 	movs.w	r4, r4, ror #22
 8008f84:	f8c0 534c 	str.w	r5, [r0, #844]	; 0x34c
 8008f88:	f8c0 6354 	str.w	r6, [r0, #852]	; 0x354
 8008f8c:	f8c0 735c 	str.w	r7, [r0, #860]	; 0x35c
 8008f90:	f8c0 3364 	str.w	r3, [r0, #868]	; 0x364
 8008f94:	f8c0 436c 	str.w	r4, [r0, #876]	; 0x36c
 8008f98:	f8d0 a414 	ldr.w	sl, [r0, #1044]	; 0x414
 8008f9c:	f8d0 1500 	ldr.w	r1, [r0, #1280]	; 0x500
 8008fa0:	f8d0 b41c 	ldr.w	fp, [r0, #1052]	; 0x41c
 8008fa4:	f8d0 2508 	ldr.w	r2, [r0, #1288]	; 0x508
 8008fa8:	f8d0 c424 	ldr.w	ip, [r0, #1060]	; 0x424
 8008fac:	f8d0 e510 	ldr.w	lr, [r0, #1296]	; 0x510
 8008fb0:	ea9a 0a01 	eors.w	sl, sl, r1
 8008fb4:	ea9b 0b02 	eors.w	fp, fp, r2
 8008fb8:	ea9c 0c0e 	eors.w	ip, ip, lr
 8008fbc:	f8d0 842c 	ldr.w	r8, [r0, #1068]	; 0x42c
 8008fc0:	f8d0 151c 	ldr.w	r1, [r0, #1308]	; 0x51c
 8008fc4:	f8d0 9434 	ldr.w	r9, [r0, #1076]	; 0x434
 8008fc8:	f8d0 e524 	ldr.w	lr, [r0, #1316]	; 0x524
 8008fcc:	ea98 0801 	eors.w	r8, r8, r1
 8008fd0:	ea99 090e 	eors.w	r9, r9, lr
 8008fd4:	ea5f 7afa 	movs.w	sl, sl, ror #31
 8008fd8:	ea5f 2bbb 	movs.w	fp, fp, ror #10
 8008fdc:	ea5f 0cbc 	movs.w	ip, ip, ror #2
 8008fe0:	ea5f 48b8 	movs.w	r8, r8, ror #18
 8008fe4:	ea5f 59b9 	movs.w	r9, r9, ror #22
 8008fe8:	ea93 0105 	eors.w	r1, r3, r5
 8008fec:	ea04 0205 	and.w	r2, r4, r5
 8008ff0:	4051      	eors	r1, r2
 8008ff2:	ea04 020a 	and.w	r2, r4, sl
 8008ff6:	4051      	eors	r1, r2
 8008ff8:	ea09 0205 	and.w	r2, r9, r5
 8008ffc:	4051      	eors	r1, r2
 8008ffe:	62c1      	str	r1, [r0, #44]	; 0x2c
 8009000:	ea94 0106 	eors.w	r1, r4, r6
 8009004:	ea05 0206 	and.w	r2, r5, r6
 8009008:	4051      	eors	r1, r2
 800900a:	ea05 020b 	and.w	r2, r5, fp
 800900e:	4051      	eors	r1, r2
 8009010:	ea0a 0206 	and.w	r2, sl, r6
 8009014:	4051      	eors	r1, r2
 8009016:	6341      	str	r1, [r0, #52]	; 0x34
 8009018:	ea95 0107 	eors.w	r1, r5, r7
 800901c:	ea06 0207 	and.w	r2, r6, r7
 8009020:	4051      	eors	r1, r2
 8009022:	ea06 020c 	and.w	r2, r6, ip
 8009026:	4051      	eors	r1, r2
 8009028:	ea0b 0207 	and.w	r2, fp, r7
 800902c:	4051      	eors	r1, r2
 800902e:	63c1      	str	r1, [r0, #60]	; 0x3c
 8009030:	ea96 0103 	eors.w	r1, r6, r3
 8009034:	ea07 0203 	and.w	r2, r7, r3
 8009038:	4051      	eors	r1, r2
 800903a:	ea07 0208 	and.w	r2, r7, r8
 800903e:	4051      	eors	r1, r2
 8009040:	ea0c 0203 	and.w	r2, ip, r3
 8009044:	4051      	eors	r1, r2
 8009046:	6441      	str	r1, [r0, #68]	; 0x44
 8009048:	ea97 0104 	eors.w	r1, r7, r4
 800904c:	ea03 0204 	and.w	r2, r3, r4
 8009050:	4051      	eors	r1, r2
 8009052:	ea03 0209 	and.w	r2, r3, r9
 8009056:	4051      	eors	r1, r2
 8009058:	ea08 0204 	and.w	r2, r8, r4
 800905c:	4051      	eors	r1, r2
 800905e:	64c1      	str	r1, [r0, #76]	; 0x4c
 8009060:	f8d0 5284 	ldr.w	r5, [r0, #644]	; 0x284
 8009064:	f8d0 14b0 	ldr.w	r1, [r0, #1200]	; 0x4b0
 8009068:	f8d0 628c 	ldr.w	r6, [r0, #652]	; 0x28c
 800906c:	f8d0 24b8 	ldr.w	r2, [r0, #1208]	; 0x4b8
 8009070:	f8d0 7294 	ldr.w	r7, [r0, #660]	; 0x294
 8009074:	f8d0 e4c0 	ldr.w	lr, [r0, #1216]	; 0x4c0
 8009078:	404d      	eors	r5, r1
 800907a:	4056      	eors	r6, r2
 800907c:	ea97 070e 	eors.w	r7, r7, lr
 8009080:	f8d0 329c 	ldr.w	r3, [r0, #668]	; 0x29c
 8009084:	f8d0 14cc 	ldr.w	r1, [r0, #1228]	; 0x4cc
 8009088:	f8d0 42a4 	ldr.w	r4, [r0, #676]	; 0x2a4
 800908c:	f8d0 e4d4 	ldr.w	lr, [r0, #1236]	; 0x4d4
 8009090:	404b      	eors	r3, r1
 8009092:	ea94 040e 	eors.w	r4, r4, lr
 8009096:	ea5f 75f5 	movs.w	r5, r5, ror #31
 800909a:	ea5f 26b6 	movs.w	r6, r6, ror #10
 800909e:	ea5f 07b7 	movs.w	r7, r7, ror #2
 80090a2:	ea5f 43b3 	movs.w	r3, r3, ror #18
 80090a6:	ea5f 54b4 	movs.w	r4, r4, ror #22
 80090aa:	ea98 010a 	eors.w	r1, r8, sl
 80090ae:	ea09 020a 	and.w	r2, r9, sl
 80090b2:	4051      	eors	r1, r2
 80090b4:	ea09 0205 	and.w	r2, r9, r5
 80090b8:	4051      	eors	r1, r2
 80090ba:	ea04 020a 	and.w	r2, r4, sl
 80090be:	4051      	eors	r1, r2
 80090c0:	f8c0 10f4 	str.w	r1, [r0, #244]	; 0xf4
 80090c4:	ea99 010b 	eors.w	r1, r9, fp
 80090c8:	ea0a 020b 	and.w	r2, sl, fp
 80090cc:	4051      	eors	r1, r2
 80090ce:	ea0a 0206 	and.w	r2, sl, r6
 80090d2:	4051      	eors	r1, r2
 80090d4:	ea05 020b 	and.w	r2, r5, fp
 80090d8:	4051      	eors	r1, r2
 80090da:	f8c0 10fc 	str.w	r1, [r0, #252]	; 0xfc
 80090de:	ea9a 010c 	eors.w	r1, sl, ip
 80090e2:	ea0b 020c 	and.w	r2, fp, ip
 80090e6:	4051      	eors	r1, r2
 80090e8:	ea0b 0207 	and.w	r2, fp, r7
 80090ec:	4051      	eors	r1, r2
 80090ee:	ea06 020c 	and.w	r2, r6, ip
 80090f2:	4051      	eors	r1, r2
 80090f4:	f8c0 1104 	str.w	r1, [r0, #260]	; 0x104
 80090f8:	ea9b 0108 	eors.w	r1, fp, r8
 80090fc:	ea0c 0208 	and.w	r2, ip, r8
 8009100:	4051      	eors	r1, r2
 8009102:	ea0c 0203 	and.w	r2, ip, r3
 8009106:	4051      	eors	r1, r2
 8009108:	ea07 0208 	and.w	r2, r7, r8
 800910c:	4051      	eors	r1, r2
 800910e:	f8c0 110c 	str.w	r1, [r0, #268]	; 0x10c
 8009112:	ea9c 0109 	eors.w	r1, ip, r9
 8009116:	ea08 0209 	and.w	r2, r8, r9
 800911a:	4051      	eors	r1, r2
 800911c:	ea08 0204 	and.w	r2, r8, r4
 8009120:	4051      	eors	r1, r2
 8009122:	ea03 0209 	and.w	r2, r3, r9
 8009126:	4051      	eors	r1, r2
 8009128:	f8c0 1114 	str.w	r1, [r0, #276]	; 0x114
 800912c:	f8d0 a34c 	ldr.w	sl, [r0, #844]	; 0x34c
 8009130:	f8d0 b354 	ldr.w	fp, [r0, #852]	; 0x354
 8009134:	f8d0 c35c 	ldr.w	ip, [r0, #860]	; 0x35c
 8009138:	f8d0 8364 	ldr.w	r8, [r0, #868]	; 0x364
 800913c:	f8d0 936c 	ldr.w	r9, [r0, #876]	; 0x36c
 8009140:	ea93 0105 	eors.w	r1, r3, r5
 8009144:	ea04 0205 	and.w	r2, r4, r5
 8009148:	4051      	eors	r1, r2
 800914a:	ea04 020a 	and.w	r2, r4, sl
 800914e:	4051      	eors	r1, r2
 8009150:	ea09 0205 	and.w	r2, r9, r5
 8009154:	4051      	eors	r1, r2
 8009156:	f8c0 11bc 	str.w	r1, [r0, #444]	; 0x1bc
 800915a:	ea94 0106 	eors.w	r1, r4, r6
 800915e:	ea05 0206 	and.w	r2, r5, r6
 8009162:	4051      	eors	r1, r2
 8009164:	ea05 020b 	and.w	r2, r5, fp
 8009168:	4051      	eors	r1, r2
 800916a:	ea0a 0206 	and.w	r2, sl, r6
 800916e:	4051      	eors	r1, r2
 8009170:	f8c0 11c4 	str.w	r1, [r0, #452]	; 0x1c4
 8009174:	ea95 0107 	eors.w	r1, r5, r7
 8009178:	ea06 0207 	and.w	r2, r6, r7
 800917c:	4051      	eors	r1, r2
 800917e:	ea06 020c 	and.w	r2, r6, ip
 8009182:	4051      	eors	r1, r2
 8009184:	ea0b 0207 	and.w	r2, fp, r7
 8009188:	4051      	eors	r1, r2
 800918a:	f8c0 11cc 	str.w	r1, [r0, #460]	; 0x1cc
 800918e:	ea96 0103 	eors.w	r1, r6, r3
 8009192:	ea07 0203 	and.w	r2, r7, r3
 8009196:	4051      	eors	r1, r2
 8009198:	ea07 0208 	and.w	r2, r7, r8
 800919c:	4051      	eors	r1, r2
 800919e:	ea0c 0203 	and.w	r2, ip, r3
 80091a2:	4051      	eors	r1, r2
 80091a4:	f8c0 11d4 	str.w	r1, [r0, #468]	; 0x1d4
 80091a8:	ea97 0104 	eors.w	r1, r7, r4
 80091ac:	ea03 0204 	and.w	r2, r3, r4
 80091b0:	4051      	eors	r1, r2
 80091b2:	ea03 0209 	and.w	r2, r3, r9
 80091b6:	4051      	eors	r1, r2
 80091b8:	ea08 0204 	and.w	r2, r8, r4
 80091bc:	4051      	eors	r1, r2
 80091be:	f8c0 11dc 	str.w	r1, [r0, #476]	; 0x1dc
 80091c2:	e8bd 5f04 	ldmia.w	sp!, {r2, r8, r9, sl, fp, ip, lr}
 80091c6:	e92d 5f04 	stmdb	sp!, {r2, r8, r9, sl, fp, ip, lr}
 80091ca:	f8d0 7370 	ldr.w	r7, [r0, #880]	; 0x370
 80091ce:	f8d0 3378 	ldr.w	r3, [r0, #888]	; 0x378
 80091d2:	f8d0 4380 	ldr.w	r4, [r0, #896]	; 0x380
 80091d6:	f8d0 5388 	ldr.w	r5, [r0, #904]	; 0x388
 80091da:	f8d0 6390 	ldr.w	r6, [r0, #912]	; 0x390
 80091de:	ea97 0708 	eors.w	r7, r7, r8
 80091e2:	ea93 030b 	eors.w	r3, r3, fp
 80091e6:	4054      	eors	r4, r2
 80091e8:	ea95 0509 	eors.w	r5, r5, r9
 80091ec:	ea96 060c 	eors.w	r6, r6, ip
 80091f0:	ea5f 57f7 	movs.w	r7, r7, ror #23
 80091f4:	ea5f 73f3 	movs.w	r3, r3, ror #31
 80091f8:	ea5f 7474 	movs.w	r4, r4, ror #29
 80091fc:	ea5f 45f5 	movs.w	r5, r5, ror #19
 8009200:	ea5f 7636 	movs.w	r6, r6, ror #28
 8009204:	f8c0 7370 	str.w	r7, [r0, #880]	; 0x370
 8009208:	f8c0 3378 	str.w	r3, [r0, #888]	; 0x378
 800920c:	f8c0 4380 	str.w	r4, [r0, #896]	; 0x380
 8009210:	f8c0 5388 	str.w	r5, [r0, #904]	; 0x388
 8009214:	f8c0 6390 	str.w	r6, [r0, #912]	; 0x390
 8009218:	f8d0 c438 	ldr.w	ip, [r0, #1080]	; 0x438
 800921c:	f8d0 1500 	ldr.w	r1, [r0, #1280]	; 0x500
 8009220:	f8d0 8440 	ldr.w	r8, [r0, #1088]	; 0x440
 8009224:	f8d0 250c 	ldr.w	r2, [r0, #1292]	; 0x50c
 8009228:	f8d0 9448 	ldr.w	r9, [r0, #1096]	; 0x448
 800922c:	f8d0 e510 	ldr.w	lr, [r0, #1296]	; 0x510
 8009230:	ea9c 0c01 	eors.w	ip, ip, r1
 8009234:	ea98 0802 	eors.w	r8, r8, r2
 8009238:	ea99 090e 	eors.w	r9, r9, lr
 800923c:	f8d0 a450 	ldr.w	sl, [r0, #1104]	; 0x450
 8009240:	f8d0 151c 	ldr.w	r1, [r0, #1308]	; 0x51c
 8009244:	f8d0 b458 	ldr.w	fp, [r0, #1112]	; 0x458
 8009248:	f8d0 e520 	ldr.w	lr, [r0, #1312]	; 0x520
 800924c:	ea9a 0a01 	eors.w	sl, sl, r1
 8009250:	ea9b 0b0e 	eors.w	fp, fp, lr
 8009254:	ea5f 5cfc 	movs.w	ip, ip, ror #23
 8009258:	ea5f 78f8 	movs.w	r8, r8, ror #31
 800925c:	ea5f 7979 	movs.w	r9, r9, ror #29
 8009260:	ea5f 4afa 	movs.w	sl, sl, ror #19
 8009264:	ea5f 7b3b 	movs.w	fp, fp, ror #28
 8009268:	ea93 0105 	eors.w	r1, r3, r5
 800926c:	ea04 0205 	and.w	r2, r4, r5
 8009270:	4051      	eors	r1, r2
 8009272:	ea04 020a 	and.w	r2, r4, sl
 8009276:	4051      	eors	r1, r2
 8009278:	ea09 0205 	and.w	r2, r9, r5
 800927c:	4051      	eors	r1, r2
 800927e:	6501      	str	r1, [r0, #80]	; 0x50
 8009280:	ea94 0106 	eors.w	r1, r4, r6
 8009284:	ea05 0206 	and.w	r2, r5, r6
 8009288:	4051      	eors	r1, r2
 800928a:	ea05 020b 	and.w	r2, r5, fp
 800928e:	4051      	eors	r1, r2
 8009290:	ea0a 0206 	and.w	r2, sl, r6
 8009294:	4051      	eors	r1, r2
 8009296:	6581      	str	r1, [r0, #88]	; 0x58
 8009298:	ea95 0107 	eors.w	r1, r5, r7
 800929c:	ea06 0207 	and.w	r2, r6, r7
 80092a0:	4051      	eors	r1, r2
 80092a2:	ea06 020c 	and.w	r2, r6, ip
 80092a6:	4051      	eors	r1, r2
 80092a8:	ea0b 0207 	and.w	r2, fp, r7
 80092ac:	4051      	eors	r1, r2
 80092ae:	6601      	str	r1, [r0, #96]	; 0x60
 80092b0:	ea96 0103 	eors.w	r1, r6, r3
 80092b4:	ea07 0203 	and.w	r2, r7, r3
 80092b8:	4051      	eors	r1, r2
 80092ba:	ea07 0208 	and.w	r2, r7, r8
 80092be:	4051      	eors	r1, r2
 80092c0:	ea0c 0203 	and.w	r2, ip, r3
 80092c4:	4051      	eors	r1, r2
 80092c6:	6681      	str	r1, [r0, #104]	; 0x68
 80092c8:	ea97 0104 	eors.w	r1, r7, r4
 80092cc:	ea03 0204 	and.w	r2, r3, r4
 80092d0:	4051      	eors	r1, r2
 80092d2:	ea03 0209 	and.w	r2, r3, r9
 80092d6:	4051      	eors	r1, r2
 80092d8:	ea08 0204 	and.w	r2, r8, r4
 80092dc:	4051      	eors	r1, r2
 80092de:	6701      	str	r1, [r0, #112]	; 0x70
 80092e0:	f8d0 72a8 	ldr.w	r7, [r0, #680]	; 0x2a8
 80092e4:	f8d0 14b0 	ldr.w	r1, [r0, #1200]	; 0x4b0
 80092e8:	f8d0 32b0 	ldr.w	r3, [r0, #688]	; 0x2b0
 80092ec:	f8d0 24bc 	ldr.w	r2, [r0, #1212]	; 0x4bc
 80092f0:	f8d0 42b8 	ldr.w	r4, [r0, #696]	; 0x2b8
 80092f4:	f8d0 e4c0 	ldr.w	lr, [r0, #1216]	; 0x4c0
 80092f8:	404f      	eors	r7, r1
 80092fa:	4053      	eors	r3, r2
 80092fc:	ea94 040e 	eors.w	r4, r4, lr
 8009300:	f8d0 52c0 	ldr.w	r5, [r0, #704]	; 0x2c0
 8009304:	f8d0 14cc 	ldr.w	r1, [r0, #1228]	; 0x4cc
 8009308:	f8d0 62c8 	ldr.w	r6, [r0, #712]	; 0x2c8
 800930c:	f8d0 e4d0 	ldr.w	lr, [r0, #1232]	; 0x4d0
 8009310:	404d      	eors	r5, r1
 8009312:	ea96 060e 	eors.w	r6, r6, lr
 8009316:	ea5f 57f7 	movs.w	r7, r7, ror #23
 800931a:	ea5f 73f3 	movs.w	r3, r3, ror #31
 800931e:	ea5f 7474 	movs.w	r4, r4, ror #29
 8009322:	ea5f 45f5 	movs.w	r5, r5, ror #19
 8009326:	ea5f 7636 	movs.w	r6, r6, ror #28
 800932a:	ea98 010a 	eors.w	r1, r8, sl
 800932e:	ea09 020a 	and.w	r2, r9, sl
 8009332:	4051      	eors	r1, r2
 8009334:	ea09 0205 	and.w	r2, r9, r5
 8009338:	4051      	eors	r1, r2
 800933a:	ea04 020a 	and.w	r2, r4, sl
 800933e:	4051      	eors	r1, r2
 8009340:	f8c0 1118 	str.w	r1, [r0, #280]	; 0x118
 8009344:	ea99 010b 	eors.w	r1, r9, fp
 8009348:	ea0a 020b 	and.w	r2, sl, fp
 800934c:	4051      	eors	r1, r2
 800934e:	ea0a 0206 	and.w	r2, sl, r6
 8009352:	4051      	eors	r1, r2
 8009354:	ea05 020b 	and.w	r2, r5, fp
 8009358:	4051      	eors	r1, r2
 800935a:	f8c0 1120 	str.w	r1, [r0, #288]	; 0x120
 800935e:	ea9a 010c 	eors.w	r1, sl, ip
 8009362:	ea0b 020c 	and.w	r2, fp, ip
 8009366:	4051      	eors	r1, r2
 8009368:	ea0b 0207 	and.w	r2, fp, r7
 800936c:	4051      	eors	r1, r2
 800936e:	ea06 020c 	and.w	r2, r6, ip
 8009372:	4051      	eors	r1, r2
 8009374:	f8c0 1128 	str.w	r1, [r0, #296]	; 0x128
 8009378:	ea9b 0108 	eors.w	r1, fp, r8
 800937c:	ea0c 0208 	and.w	r2, ip, r8
 8009380:	4051      	eors	r1, r2
 8009382:	ea0c 0203 	and.w	r2, ip, r3
 8009386:	4051      	eors	r1, r2
 8009388:	ea07 0208 	and.w	r2, r7, r8
 800938c:	4051      	eors	r1, r2
 800938e:	f8c0 1130 	str.w	r1, [r0, #304]	; 0x130
 8009392:	ea9c 0109 	eors.w	r1, ip, r9
 8009396:	ea08 0209 	and.w	r2, r8, r9
 800939a:	4051      	eors	r1, r2
 800939c:	ea08 0204 	and.w	r2, r8, r4
 80093a0:	4051      	eors	r1, r2
 80093a2:	ea03 0209 	and.w	r2, r3, r9
 80093a6:	4051      	eors	r1, r2
 80093a8:	f8c0 1138 	str.w	r1, [r0, #312]	; 0x138
 80093ac:	f8d0 c370 	ldr.w	ip, [r0, #880]	; 0x370
 80093b0:	f8d0 8378 	ldr.w	r8, [r0, #888]	; 0x378
 80093b4:	f8d0 9380 	ldr.w	r9, [r0, #896]	; 0x380
 80093b8:	f8d0 a388 	ldr.w	sl, [r0, #904]	; 0x388
 80093bc:	f8d0 b390 	ldr.w	fp, [r0, #912]	; 0x390
 80093c0:	ea93 0105 	eors.w	r1, r3, r5
 80093c4:	ea04 0205 	and.w	r2, r4, r5
 80093c8:	4051      	eors	r1, r2
 80093ca:	ea04 020a 	and.w	r2, r4, sl
 80093ce:	4051      	eors	r1, r2
 80093d0:	ea09 0205 	and.w	r2, r9, r5
 80093d4:	4051      	eors	r1, r2
 80093d6:	f8c0 11e0 	str.w	r1, [r0, #480]	; 0x1e0
 80093da:	ea94 0106 	eors.w	r1, r4, r6
 80093de:	ea05 0206 	and.w	r2, r5, r6
 80093e2:	4051      	eors	r1, r2
 80093e4:	ea05 020b 	and.w	r2, r5, fp
 80093e8:	4051      	eors	r1, r2
 80093ea:	ea0a 0206 	and.w	r2, sl, r6
 80093ee:	4051      	eors	r1, r2
 80093f0:	f8c0 11e8 	str.w	r1, [r0, #488]	; 0x1e8
 80093f4:	ea95 0107 	eors.w	r1, r5, r7
 80093f8:	ea06 0207 	and.w	r2, r6, r7
 80093fc:	4051      	eors	r1, r2
 80093fe:	ea06 020c 	and.w	r2, r6, ip
 8009402:	4051      	eors	r1, r2
 8009404:	ea0b 0207 	and.w	r2, fp, r7
 8009408:	4051      	eors	r1, r2
 800940a:	f8c0 11f0 	str.w	r1, [r0, #496]	; 0x1f0
 800940e:	ea96 0103 	eors.w	r1, r6, r3
 8009412:	ea07 0203 	and.w	r2, r7, r3
 8009416:	4051      	eors	r1, r2
 8009418:	ea07 0208 	and.w	r2, r7, r8
 800941c:	4051      	eors	r1, r2
 800941e:	ea0c 0203 	and.w	r2, ip, r3
 8009422:	4051      	eors	r1, r2
 8009424:	f8c0 11f8 	str.w	r1, [r0, #504]	; 0x1f8
 8009428:	ea97 0104 	eors.w	r1, r7, r4
 800942c:	ea03 0204 	and.w	r2, r3, r4
 8009430:	4051      	eors	r1, r2
 8009432:	ea03 0209 	and.w	r2, r3, r9
 8009436:	4051      	eors	r1, r2
 8009438:	ea08 0204 	and.w	r2, r8, r4
 800943c:	4051      	eors	r1, r2
 800943e:	f8c0 1200 	str.w	r1, [r0, #512]	; 0x200
 8009442:	e8bd 5f04 	ldmia.w	sp!, {r2, r8, r9, sl, fp, ip, lr}
 8009446:	f8d0 84dc 	ldr.w	r8, [r0, #1244]	; 0x4dc
 800944a:	e92d 5f04 	stmdb	sp!, {r2, r8, r9, sl, fp, ip, lr}
 800944e:	f8d0 439c 	ldr.w	r4, [r0, #924]	; 0x39c
 8009452:	f8d0 53a4 	ldr.w	r5, [r0, #932]	; 0x3a4
 8009456:	f8d0 63ac 	ldr.w	r6, [r0, #940]	; 0x3ac
 800945a:	f8d0 73b4 	ldr.w	r7, [r0, #948]	; 0x3b4
 800945e:	f8d0 33bc 	ldr.w	r3, [r0, #956]	; 0x3bc
 8009462:	ea94 0408 	eors.w	r4, r4, r8
 8009466:	ea95 050b 	eors.w	r5, r5, fp
 800946a:	4056      	eors	r6, r2
 800946c:	ea97 0709 	eors.w	r7, r7, r9
 8009470:	ea93 030c 	eors.w	r3, r3, ip
 8009474:	ea5f 34b4 	movs.w	r4, r4, ror #14
 8009478:	ea5f 65f5 	movs.w	r5, r5, ror #27
 800947c:	ea5f 6676 	movs.w	r6, r6, ror #25
 8009480:	ea5f 1737 	movs.w	r7, r7, ror #4
 8009484:	ea5f 43f3 	movs.w	r3, r3, ror #19
 8009488:	f8c0 439c 	str.w	r4, [r0, #924]	; 0x39c
 800948c:	f8c0 53a4 	str.w	r5, [r0, #932]	; 0x3a4
 8009490:	f8c0 63ac 	str.w	r6, [r0, #940]	; 0x3ac
 8009494:	f8c0 73b4 	str.w	r7, [r0, #948]	; 0x3b4
 8009498:	f8c0 33bc 	str.w	r3, [r0, #956]	; 0x3bc
 800949c:	f8d0 9464 	ldr.w	r9, [r0, #1124]	; 0x464
 80094a0:	f8d0 1504 	ldr.w	r1, [r0, #1284]	; 0x504
 80094a4:	f8d0 a46c 	ldr.w	sl, [r0, #1132]	; 0x46c
 80094a8:	f8d0 250c 	ldr.w	r2, [r0, #1292]	; 0x50c
 80094ac:	f8d0 b474 	ldr.w	fp, [r0, #1140]	; 0x474
 80094b0:	f8d0 e510 	ldr.w	lr, [r0, #1296]	; 0x510
 80094b4:	ea99 0901 	eors.w	r9, r9, r1
 80094b8:	ea9a 0a02 	eors.w	sl, sl, r2
 80094bc:	ea9b 0b0e 	eors.w	fp, fp, lr
 80094c0:	f8d0 c47c 	ldr.w	ip, [r0, #1148]	; 0x47c
 80094c4:	f8d0 151c 	ldr.w	r1, [r0, #1308]	; 0x51c
 80094c8:	f8d0 8484 	ldr.w	r8, [r0, #1156]	; 0x484
 80094cc:	f8d0 e520 	ldr.w	lr, [r0, #1312]	; 0x520
 80094d0:	ea9c 0c01 	eors.w	ip, ip, r1
 80094d4:	ea98 080e 	eors.w	r8, r8, lr
 80094d8:	ea5f 39b9 	movs.w	r9, r9, ror #14
 80094dc:	ea5f 6afa 	movs.w	sl, sl, ror #27
 80094e0:	ea5f 6b7b 	movs.w	fp, fp, ror #25
 80094e4:	ea5f 1c3c 	movs.w	ip, ip, ror #4
 80094e8:	ea5f 48f8 	movs.w	r8, r8, ror #19
 80094ec:	ea93 0105 	eors.w	r1, r3, r5
 80094f0:	ea04 0205 	and.w	r2, r4, r5
 80094f4:	4051      	eors	r1, r2
 80094f6:	ea04 020a 	and.w	r2, r4, sl
 80094fa:	4051      	eors	r1, r2
 80094fc:	ea09 0205 	and.w	r2, r9, r5
 8009500:	4051      	eors	r1, r2
 8009502:	67c1      	str	r1, [r0, #124]	; 0x7c
 8009504:	ea94 0106 	eors.w	r1, r4, r6
 8009508:	ea05 0206 	and.w	r2, r5, r6
 800950c:	4051      	eors	r1, r2
 800950e:	ea05 020b 	and.w	r2, r5, fp
 8009512:	4051      	eors	r1, r2
 8009514:	ea0a 0206 	and.w	r2, sl, r6
 8009518:	4051      	eors	r1, r2
 800951a:	f8c0 1084 	str.w	r1, [r0, #132]	; 0x84
 800951e:	ea95 0107 	eors.w	r1, r5, r7
 8009522:	ea06 0207 	and.w	r2, r6, r7
 8009526:	4051      	eors	r1, r2
 8009528:	ea06 020c 	and.w	r2, r6, ip
 800952c:	4051      	eors	r1, r2
 800952e:	ea0b 0207 	and.w	r2, fp, r7
 8009532:	4051      	eors	r1, r2
 8009534:	f8c0 108c 	str.w	r1, [r0, #140]	; 0x8c
 8009538:	ea96 0103 	eors.w	r1, r6, r3
 800953c:	ea07 0203 	and.w	r2, r7, r3
 8009540:	4051      	eors	r1, r2
 8009542:	ea07 0208 	and.w	r2, r7, r8
 8009546:	4051      	eors	r1, r2
 8009548:	ea0c 0203 	and.w	r2, ip, r3
 800954c:	4051      	eors	r1, r2
 800954e:	f8c0 1094 	str.w	r1, [r0, #148]	; 0x94
 8009552:	ea97 0104 	eors.w	r1, r7, r4
 8009556:	ea03 0204 	and.w	r2, r3, r4
 800955a:	4051      	eors	r1, r2
 800955c:	ea03 0209 	and.w	r2, r3, r9
 8009560:	4051      	eors	r1, r2
 8009562:	ea08 0204 	and.w	r2, r8, r4
 8009566:	4051      	eors	r1, r2
 8009568:	f8c0 109c 	str.w	r1, [r0, #156]	; 0x9c
 800956c:	f8d0 42d4 	ldr.w	r4, [r0, #724]	; 0x2d4
 8009570:	f8d0 14b4 	ldr.w	r1, [r0, #1204]	; 0x4b4
 8009574:	f8d0 52dc 	ldr.w	r5, [r0, #732]	; 0x2dc
 8009578:	f8d0 24bc 	ldr.w	r2, [r0, #1212]	; 0x4bc
 800957c:	f8d0 62e4 	ldr.w	r6, [r0, #740]	; 0x2e4
 8009580:	f8d0 e4c0 	ldr.w	lr, [r0, #1216]	; 0x4c0
 8009584:	404c      	eors	r4, r1
 8009586:	4055      	eors	r5, r2
 8009588:	ea96 060e 	eors.w	r6, r6, lr
 800958c:	f8d0 72ec 	ldr.w	r7, [r0, #748]	; 0x2ec
 8009590:	f8d0 14cc 	ldr.w	r1, [r0, #1228]	; 0x4cc
 8009594:	f8d0 32f4 	ldr.w	r3, [r0, #756]	; 0x2f4
 8009598:	f8d0 e4d0 	ldr.w	lr, [r0, #1232]	; 0x4d0
 800959c:	404f      	eors	r7, r1
 800959e:	ea93 030e 	eors.w	r3, r3, lr
 80095a2:	ea5f 34b4 	movs.w	r4, r4, ror #14
 80095a6:	ea5f 65f5 	movs.w	r5, r5, ror #27
 80095aa:	ea5f 6676 	movs.w	r6, r6, ror #25
 80095ae:	ea5f 1737 	movs.w	r7, r7, ror #4
 80095b2:	ea5f 43f3 	movs.w	r3, r3, ror #19
 80095b6:	ea98 010a 	eors.w	r1, r8, sl
 80095ba:	ea09 020a 	and.w	r2, r9, sl
 80095be:	4051      	eors	r1, r2
 80095c0:	ea09 0205 	and.w	r2, r9, r5
 80095c4:	4051      	eors	r1, r2
 80095c6:	ea04 020a 	and.w	r2, r4, sl
 80095ca:	4051      	eors	r1, r2
 80095cc:	f8c0 1144 	str.w	r1, [r0, #324]	; 0x144
 80095d0:	ea99 010b 	eors.w	r1, r9, fp
 80095d4:	ea0a 020b 	and.w	r2, sl, fp
 80095d8:	4051      	eors	r1, r2
 80095da:	ea0a 0206 	and.w	r2, sl, r6
 80095de:	4051      	eors	r1, r2
 80095e0:	ea05 020b 	and.w	r2, r5, fp
 80095e4:	4051      	eors	r1, r2
 80095e6:	f8c0 114c 	str.w	r1, [r0, #332]	; 0x14c
 80095ea:	ea9a 010c 	eors.w	r1, sl, ip
 80095ee:	ea0b 020c 	and.w	r2, fp, ip
 80095f2:	4051      	eors	r1, r2
 80095f4:	ea0b 0207 	and.w	r2, fp, r7
 80095f8:	4051      	eors	r1, r2
 80095fa:	ea06 020c 	and.w	r2, r6, ip
 80095fe:	4051      	eors	r1, r2
 8009600:	f8c0 1154 	str.w	r1, [r0, #340]	; 0x154
 8009604:	ea9b 0108 	eors.w	r1, fp, r8
 8009608:	ea0c 0208 	and.w	r2, ip, r8
 800960c:	4051      	eors	r1, r2
 800960e:	ea0c 0203 	and.w	r2, ip, r3
 8009612:	4051      	eors	r1, r2
 8009614:	ea07 0208 	and.w	r2, r7, r8
 8009618:	4051      	eors	r1, r2
 800961a:	f8c0 115c 	str.w	r1, [r0, #348]	; 0x15c
 800961e:	ea9c 0109 	eors.w	r1, ip, r9
 8009622:	ea08 0209 	and.w	r2, r8, r9
 8009626:	4051      	eors	r1, r2
 8009628:	ea08 0204 	and.w	r2, r8, r4
 800962c:	4051      	eors	r1, r2
 800962e:	ea03 0209 	and.w	r2, r3, r9
 8009632:	4051      	eors	r1, r2
 8009634:	f8c0 1164 	str.w	r1, [r0, #356]	; 0x164
 8009638:	f8d0 939c 	ldr.w	r9, [r0, #924]	; 0x39c
 800963c:	f8d0 a3a4 	ldr.w	sl, [r0, #932]	; 0x3a4
 8009640:	f8d0 b3ac 	ldr.w	fp, [r0, #940]	; 0x3ac
 8009644:	f8d0 c3b4 	ldr.w	ip, [r0, #948]	; 0x3b4
 8009648:	f8d0 83bc 	ldr.w	r8, [r0, #956]	; 0x3bc
 800964c:	ea93 0105 	eors.w	r1, r3, r5
 8009650:	ea04 0205 	and.w	r2, r4, r5
 8009654:	4051      	eors	r1, r2
 8009656:	ea04 020a 	and.w	r2, r4, sl
 800965a:	4051      	eors	r1, r2
 800965c:	ea09 0205 	and.w	r2, r9, r5
 8009660:	4051      	eors	r1, r2
 8009662:	f8c0 120c 	str.w	r1, [r0, #524]	; 0x20c
 8009666:	ea94 0106 	eors.w	r1, r4, r6
 800966a:	ea05 0206 	and.w	r2, r5, r6
 800966e:	4051      	eors	r1, r2
 8009670:	ea05 020b 	and.w	r2, r5, fp
 8009674:	4051      	eors	r1, r2
 8009676:	ea0a 0206 	and.w	r2, sl, r6
 800967a:	4051      	eors	r1, r2
 800967c:	f8c0 1214 	str.w	r1, [r0, #532]	; 0x214
 8009680:	ea95 0107 	eors.w	r1, r5, r7
 8009684:	ea06 0207 	and.w	r2, r6, r7
 8009688:	4051      	eors	r1, r2
 800968a:	ea06 020c 	and.w	r2, r6, ip
 800968e:	4051      	eors	r1, r2
 8009690:	ea0b 0207 	and.w	r2, fp, r7
 8009694:	4051      	eors	r1, r2
 8009696:	f8c0 121c 	str.w	r1, [r0, #540]	; 0x21c
 800969a:	ea96 0103 	eors.w	r1, r6, r3
 800969e:	ea07 0203 	and.w	r2, r7, r3
 80096a2:	4051      	eors	r1, r2
 80096a4:	ea07 0208 	and.w	r2, r7, r8
 80096a8:	4051      	eors	r1, r2
 80096aa:	ea0c 0203 	and.w	r2, ip, r3
 80096ae:	4051      	eors	r1, r2
 80096b0:	f8c0 1224 	str.w	r1, [r0, #548]	; 0x224
 80096b4:	ea97 0104 	eors.w	r1, r7, r4
 80096b8:	ea03 0204 	and.w	r2, r3, r4
 80096bc:	4051      	eors	r1, r2
 80096be:	ea03 0209 	and.w	r2, r3, r9
 80096c2:	4051      	eors	r1, r2
 80096c4:	ea08 0204 	and.w	r2, r8, r4
 80096c8:	4051      	eors	r1, r2
 80096ca:	f8c0 122c 	str.w	r1, [r0, #556]	; 0x22c
 80096ce:	e8bd 5f04 	ldmia.w	sp!, {r2, r8, r9, sl, fp, ip, lr}
 80096d2:	e92d 5f04 	stmdb	sp!, {r2, r8, r9, sl, fp, ip, lr}
 80096d6:	f8d0 63c0 	ldr.w	r6, [r0, #960]	; 0x3c0
 80096da:	f8d0 73c8 	ldr.w	r7, [r0, #968]	; 0x3c8
 80096de:	f8d0 33d0 	ldr.w	r3, [r0, #976]	; 0x3d0
 80096e2:	f8d0 43d8 	ldr.w	r4, [r0, #984]	; 0x3d8
 80096e6:	f8d0 53e0 	ldr.w	r5, [r0, #992]	; 0x3e0
 80096ea:	ea96 0608 	eors.w	r6, r6, r8
 80096ee:	ea97 070a 	eors.w	r7, r7, sl
 80096f2:	4053      	eors	r3, r2
 80096f4:	ea94 0409 	eors.w	r4, r4, r9
 80096f8:	ea95 050e 	eors.w	r5, r5, lr
 80096fc:	ea5f 26f6 	movs.w	r6, r6, ror #11
 8009700:	ea5f 77f7 	movs.w	r7, r7, ror #31
 8009704:	ea5f 0373 	movs.w	r3, r3, ror #1
 8009708:	ea5f 1434 	movs.w	r4, r4, ror #4
 800970c:	ea5f 3535 	movs.w	r5, r5, ror #12
 8009710:	f8c0 63c0 	str.w	r6, [r0, #960]	; 0x3c0
 8009714:	f8c0 73c8 	str.w	r7, [r0, #968]	; 0x3c8
 8009718:	f8c0 33d0 	str.w	r3, [r0, #976]	; 0x3d0
 800971c:	f8c0 43d8 	str.w	r4, [r0, #984]	; 0x3d8
 8009720:	f8c0 53e0 	str.w	r5, [r0, #992]	; 0x3e0
 8009724:	f8d0 b488 	ldr.w	fp, [r0, #1160]	; 0x488
 8009728:	f8d0 1504 	ldr.w	r1, [r0, #1284]	; 0x504
 800972c:	f8d0 c490 	ldr.w	ip, [r0, #1168]	; 0x490
 8009730:	f8d0 2508 	ldr.w	r2, [r0, #1288]	; 0x508
 8009734:	f8d0 8498 	ldr.w	r8, [r0, #1176]	; 0x498
 8009738:	f8d0 e510 	ldr.w	lr, [r0, #1296]	; 0x510
 800973c:	ea9b 0b01 	eors.w	fp, fp, r1
 8009740:	ea9c 0c02 	eors.w	ip, ip, r2
 8009744:	ea98 080e 	eors.w	r8, r8, lr
 8009748:	f8d0 94a0 	ldr.w	r9, [r0, #1184]	; 0x4a0
 800974c:	f8d0 151c 	ldr.w	r1, [r0, #1308]	; 0x51c
 8009750:	f8d0 a4a8 	ldr.w	sl, [r0, #1192]	; 0x4a8
 8009754:	f8d0 e524 	ldr.w	lr, [r0, #1316]	; 0x524
 8009758:	ea99 0901 	eors.w	r9, r9, r1
 800975c:	ea9a 0a0e 	eors.w	sl, sl, lr
 8009760:	ea5f 2bfb 	movs.w	fp, fp, ror #11
 8009764:	ea5f 7cfc 	movs.w	ip, ip, ror #31
 8009768:	ea5f 0878 	movs.w	r8, r8, ror #1
 800976c:	ea5f 1939 	movs.w	r9, r9, ror #4
 8009770:	ea5f 3a3a 	movs.w	sl, sl, ror #12
 8009774:	ea93 0105 	eors.w	r1, r3, r5
 8009778:	ea04 0205 	and.w	r2, r4, r5
 800977c:	4051      	eors	r1, r2
 800977e:	ea04 020a 	and.w	r2, r4, sl
 8009782:	4051      	eors	r1, r2
 8009784:	ea09 0205 	and.w	r2, r9, r5
 8009788:	4051      	eors	r1, r2
 800978a:	f8c0 10a0 	str.w	r1, [r0, #160]	; 0xa0
 800978e:	ea94 0106 	eors.w	r1, r4, r6
 8009792:	ea05 0206 	and.w	r2, r5, r6
 8009796:	4051      	eors	r1, r2
 8009798:	ea05 020b 	and.w	r2, r5, fp
 800979c:	4051      	eors	r1, r2
 800979e:	ea0a 0206 	and.w	r2, sl, r6
 80097a2:	4051      	eors	r1, r2
 80097a4:	f8c0 10a8 	str.w	r1, [r0, #168]	; 0xa8
 80097a8:	ea95 0107 	eors.w	r1, r5, r7
 80097ac:	ea06 0207 	and.w	r2, r6, r7
 80097b0:	4051      	eors	r1, r2
 80097b2:	ea06 020c 	and.w	r2, r6, ip
 80097b6:	4051      	eors	r1, r2
 80097b8:	ea0b 0207 	and.w	r2, fp, r7
 80097bc:	4051      	eors	r1, r2
 80097be:	f8c0 10b0 	str.w	r1, [r0, #176]	; 0xb0
 80097c2:	ea96 0103 	eors.w	r1, r6, r3
 80097c6:	ea07 0203 	and.w	r2, r7, r3
 80097ca:	4051      	eors	r1, r2
 80097cc:	ea07 0208 	and.w	r2, r7, r8
 80097d0:	4051      	eors	r1, r2
 80097d2:	ea0c 0203 	and.w	r2, ip, r3
 80097d6:	4051      	eors	r1, r2
 80097d8:	f8c0 10b8 	str.w	r1, [r0, #184]	; 0xb8
 80097dc:	ea97 0104 	eors.w	r1, r7, r4
 80097e0:	ea03 0204 	and.w	r2, r3, r4
 80097e4:	4051      	eors	r1, r2
 80097e6:	ea03 0209 	and.w	r2, r3, r9
 80097ea:	4051      	eors	r1, r2
 80097ec:	ea08 0204 	and.w	r2, r8, r4
 80097f0:	4051      	eors	r1, r2
 80097f2:	f8c0 10c0 	str.w	r1, [r0, #192]	; 0xc0
 80097f6:	f8d0 62f8 	ldr.w	r6, [r0, #760]	; 0x2f8
 80097fa:	f8d0 14b4 	ldr.w	r1, [r0, #1204]	; 0x4b4
 80097fe:	f8d0 7300 	ldr.w	r7, [r0, #768]	; 0x300
 8009802:	f8d0 24b8 	ldr.w	r2, [r0, #1208]	; 0x4b8
 8009806:	f8d0 3308 	ldr.w	r3, [r0, #776]	; 0x308
 800980a:	f8d0 e4c0 	ldr.w	lr, [r0, #1216]	; 0x4c0
 800980e:	404e      	eors	r6, r1
 8009810:	4057      	eors	r7, r2
 8009812:	ea93 030e 	eors.w	r3, r3, lr
 8009816:	f8d0 4310 	ldr.w	r4, [r0, #784]	; 0x310
 800981a:	f8d0 14cc 	ldr.w	r1, [r0, #1228]	; 0x4cc
 800981e:	f8d0 5318 	ldr.w	r5, [r0, #792]	; 0x318
 8009822:	f8d0 e4d4 	ldr.w	lr, [r0, #1236]	; 0x4d4
 8009826:	404c      	eors	r4, r1
 8009828:	ea95 050e 	eors.w	r5, r5, lr
 800982c:	ea5f 26f6 	movs.w	r6, r6, ror #11
 8009830:	ea5f 77f7 	movs.w	r7, r7, ror #31
 8009834:	ea5f 0373 	movs.w	r3, r3, ror #1
 8009838:	ea5f 1434 	movs.w	r4, r4, ror #4
 800983c:	ea5f 3535 	movs.w	r5, r5, ror #12
 8009840:	ea98 010a 	eors.w	r1, r8, sl
 8009844:	ea09 020a 	and.w	r2, r9, sl
 8009848:	4051      	eors	r1, r2
 800984a:	ea09 0205 	and.w	r2, r9, r5
 800984e:	4051      	eors	r1, r2
 8009850:	ea04 020a 	and.w	r2, r4, sl
 8009854:	4051      	eors	r1, r2
 8009856:	f8c0 1168 	str.w	r1, [r0, #360]	; 0x168
 800985a:	ea99 010b 	eors.w	r1, r9, fp
 800985e:	ea0a 020b 	and.w	r2, sl, fp
 8009862:	4051      	eors	r1, r2
 8009864:	ea0a 0206 	and.w	r2, sl, r6
 8009868:	4051      	eors	r1, r2
 800986a:	ea05 020b 	and.w	r2, r5, fp
 800986e:	4051      	eors	r1, r2
 8009870:	f8c0 1170 	str.w	r1, [r0, #368]	; 0x170
 8009874:	ea9a 010c 	eors.w	r1, sl, ip
 8009878:	ea0b 020c 	and.w	r2, fp, ip
 800987c:	4051      	eors	r1, r2
 800987e:	ea0b 0207 	and.w	r2, fp, r7
 8009882:	4051      	eors	r1, r2
 8009884:	ea06 020c 	and.w	r2, r6, ip
 8009888:	4051      	eors	r1, r2
 800988a:	f8c0 1178 	str.w	r1, [r0, #376]	; 0x178
 800988e:	ea9b 0108 	eors.w	r1, fp, r8
 8009892:	ea0c 0208 	and.w	r2, ip, r8
 8009896:	4051      	eors	r1, r2
 8009898:	ea0c 0203 	and.w	r2, ip, r3
 800989c:	4051      	eors	r1, r2
 800989e:	ea07 0208 	and.w	r2, r7, r8
 80098a2:	4051      	eors	r1, r2
 80098a4:	f8c0 1180 	str.w	r1, [r0, #384]	; 0x180
 80098a8:	ea9c 0109 	eors.w	r1, ip, r9
 80098ac:	ea08 0209 	and.w	r2, r8, r9
 80098b0:	4051      	eors	r1, r2
 80098b2:	ea08 0204 	and.w	r2, r8, r4
 80098b6:	4051      	eors	r1, r2
 80098b8:	ea03 0209 	and.w	r2, r3, r9
 80098bc:	4051      	eors	r1, r2
 80098be:	f8c0 1188 	str.w	r1, [r0, #392]	; 0x188
 80098c2:	f8d0 b3c0 	ldr.w	fp, [r0, #960]	; 0x3c0
 80098c6:	f8d0 c3c8 	ldr.w	ip, [r0, #968]	; 0x3c8
 80098ca:	f8d0 83d0 	ldr.w	r8, [r0, #976]	; 0x3d0
 80098ce:	f8d0 93d8 	ldr.w	r9, [r0, #984]	; 0x3d8
 80098d2:	f8d0 a3e0 	ldr.w	sl, [r0, #992]	; 0x3e0
 80098d6:	ea93 0105 	eors.w	r1, r3, r5
 80098da:	ea04 0205 	and.w	r2, r4, r5
 80098de:	4051      	eors	r1, r2
 80098e0:	ea04 020a 	and.w	r2, r4, sl
 80098e4:	4051      	eors	r1, r2
 80098e6:	ea09 0205 	and.w	r2, r9, r5
 80098ea:	4051      	eors	r1, r2
 80098ec:	f8c0 1230 	str.w	r1, [r0, #560]	; 0x230
 80098f0:	ea94 0106 	eors.w	r1, r4, r6
 80098f4:	ea05 0206 	and.w	r2, r5, r6
 80098f8:	4051      	eors	r1, r2
 80098fa:	ea05 020b 	and.w	r2, r5, fp
 80098fe:	4051      	eors	r1, r2
 8009900:	ea0a 0206 	and.w	r2, sl, r6
 8009904:	4051      	eors	r1, r2
 8009906:	f8c0 1238 	str.w	r1, [r0, #568]	; 0x238
 800990a:	ea95 0107 	eors.w	r1, r5, r7
 800990e:	ea06 0207 	and.w	r2, r6, r7
 8009912:	4051      	eors	r1, r2
 8009914:	ea06 020c 	and.w	r2, r6, ip
 8009918:	4051      	eors	r1, r2
 800991a:	ea0b 0207 	and.w	r2, fp, r7
 800991e:	4051      	eors	r1, r2
 8009920:	f8c0 1240 	str.w	r1, [r0, #576]	; 0x240
 8009924:	ea96 0103 	eors.w	r1, r6, r3
 8009928:	ea07 0203 	and.w	r2, r7, r3
 800992c:	4051      	eors	r1, r2
 800992e:	ea07 0208 	and.w	r2, r7, r8
 8009932:	4051      	eors	r1, r2
 8009934:	ea0c 0203 	and.w	r2, ip, r3
 8009938:	4051      	eors	r1, r2
 800993a:	f8c0 1248 	str.w	r1, [r0, #584]	; 0x248
 800993e:	ea97 0104 	eors.w	r1, r7, r4
 8009942:	ea03 0204 	and.w	r2, r3, r4
 8009946:	4051      	eors	r1, r2
 8009948:	ea03 0209 	and.w	r2, r3, r9
 800994c:	4051      	eors	r1, r2
 800994e:	ea08 0204 	and.w	r2, r8, r4
 8009952:	4051      	eors	r1, r2
 8009954:	f8c0 1250 	str.w	r1, [r0, #592]	; 0x250
 8009958:	e8bd 5f04 	ldmia.w	sp!, {r2, r8, r9, sl, fp, ip, lr}
 800995c:	f8d0 94f0 	ldr.w	r9, [r0, #1264]	; 0x4f0
 8009960:	e92d 5f04 	stmdb	sp!, {r2, r8, r9, sl, fp, ip, lr}
 8009964:	f8d0 3324 	ldr.w	r3, [r0, #804]	; 0x324
 8009968:	f8d0 432c 	ldr.w	r4, [r0, #812]	; 0x32c
 800996c:	f8d0 5334 	ldr.w	r5, [r0, #820]	; 0x334
 8009970:	f8d0 633c 	ldr.w	r6, [r0, #828]	; 0x33c
 8009974:	f8d0 7344 	ldr.w	r7, [r0, #836]	; 0x344
 8009978:	ea93 0308 	eors.w	r3, r3, r8
 800997c:	ea94 040b 	eors.w	r4, r4, fp
 8009980:	4055      	eors	r5, r2
 8009982:	ea96 0609 	eors.w	r6, r6, r9
 8009986:	ea97 070e 	eors.w	r7, r7, lr
 800998a:	ea5f 24b4 	movs.w	r4, r4, ror #10
 800998e:	ea5f 25f5 	movs.w	r5, r5, ror #11
 8009992:	ea5f 56b6 	movs.w	r6, r6, ror #22
 8009996:	ea5f 6777 	movs.w	r7, r7, ror #25
 800999a:	f8c0 3324 	str.w	r3, [r0, #804]	; 0x324
 800999e:	f8c0 432c 	str.w	r4, [r0, #812]	; 0x32c
 80099a2:	f8c0 5334 	str.w	r5, [r0, #820]	; 0x334
 80099a6:	f8c0 633c 	str.w	r6, [r0, #828]	; 0x33c
 80099aa:	f8c0 7344 	str.w	r7, [r0, #836]	; 0x344
 80099ae:	f8d0 83ec 	ldr.w	r8, [r0, #1004]	; 0x3ec
 80099b2:	f8d0 1504 	ldr.w	r1, [r0, #1284]	; 0x504
 80099b6:	f8d0 93f4 	ldr.w	r9, [r0, #1012]	; 0x3f4
 80099ba:	f8d0 250c 	ldr.w	r2, [r0, #1292]	; 0x50c
 80099be:	f8d0 a3fc 	ldr.w	sl, [r0, #1020]	; 0x3fc
 80099c2:	f8d0 e510 	ldr.w	lr, [r0, #1296]	; 0x510
 80099c6:	ea98 0801 	eors.w	r8, r8, r1
 80099ca:	ea99 0902 	eors.w	r9, r9, r2
 80099ce:	ea9a 0a0e 	eors.w	sl, sl, lr
 80099d2:	f8d0 b404 	ldr.w	fp, [r0, #1028]	; 0x404
 80099d6:	f8d0 1518 	ldr.w	r1, [r0, #1304]	; 0x518
 80099da:	f8d0 c40c 	ldr.w	ip, [r0, #1036]	; 0x40c
 80099de:	f8d0 e524 	ldr.w	lr, [r0, #1316]	; 0x524
 80099e2:	ea9b 0b01 	eors.w	fp, fp, r1
 80099e6:	ea9c 0c0e 	eors.w	ip, ip, lr
 80099ea:	ea5f 29b9 	movs.w	r9, r9, ror #10
 80099ee:	ea5f 2afa 	movs.w	sl, sl, ror #11
 80099f2:	ea5f 5bbb 	movs.w	fp, fp, ror #22
 80099f6:	ea5f 6c7c 	movs.w	ip, ip, ror #25
 80099fa:	ea93 0105 	eors.w	r1, r3, r5
 80099fe:	ea04 0205 	and.w	r2, r4, r5
 8009a02:	4051      	eors	r1, r2
 8009a04:	ea04 020a 	and.w	r2, r4, sl
 8009a08:	4051      	eors	r1, r2
 8009a0a:	ea09 0205 	and.w	r2, r9, r5
 8009a0e:	4051      	eors	r1, r2
 8009a10:	6041      	str	r1, [r0, #4]
 8009a12:	ea94 0106 	eors.w	r1, r4, r6
 8009a16:	ea05 0206 	and.w	r2, r5, r6
 8009a1a:	4051      	eors	r1, r2
 8009a1c:	ea05 020b 	and.w	r2, r5, fp
 8009a20:	4051      	eors	r1, r2
 8009a22:	ea0a 0206 	and.w	r2, sl, r6
 8009a26:	4051      	eors	r1, r2
 8009a28:	60c1      	str	r1, [r0, #12]
 8009a2a:	ea95 0107 	eors.w	r1, r5, r7
 8009a2e:	ea06 0207 	and.w	r2, r6, r7
 8009a32:	4051      	eors	r1, r2
 8009a34:	ea06 020c 	and.w	r2, r6, ip
 8009a38:	4051      	eors	r1, r2
 8009a3a:	ea0b 0207 	and.w	r2, fp, r7
 8009a3e:	4051      	eors	r1, r2
 8009a40:	6141      	str	r1, [r0, #20]
 8009a42:	ea96 0103 	eors.w	r1, r6, r3
 8009a46:	ea07 0203 	and.w	r2, r7, r3
 8009a4a:	4051      	eors	r1, r2
 8009a4c:	ea07 0208 	and.w	r2, r7, r8
 8009a50:	4051      	eors	r1, r2
 8009a52:	ea0c 0203 	and.w	r2, ip, r3
 8009a56:	4051      	eors	r1, r2
 8009a58:	61c1      	str	r1, [r0, #28]
 8009a5a:	ea97 0104 	eors.w	r1, r7, r4
 8009a5e:	ea03 0204 	and.w	r2, r3, r4
 8009a62:	4051      	eors	r1, r2
 8009a64:	ea03 0209 	and.w	r2, r3, r9
 8009a68:	4051      	eors	r1, r2
 8009a6a:	ea08 0204 	and.w	r2, r8, r4
 8009a6e:	4051      	eors	r1, r2
 8009a70:	6241      	str	r1, [r0, #36]	; 0x24
 8009a72:	f8d0 325c 	ldr.w	r3, [r0, #604]	; 0x25c
 8009a76:	f8d0 14b4 	ldr.w	r1, [r0, #1204]	; 0x4b4
 8009a7a:	f8d0 4264 	ldr.w	r4, [r0, #612]	; 0x264
 8009a7e:	f8d0 24bc 	ldr.w	r2, [r0, #1212]	; 0x4bc
 8009a82:	f8d0 526c 	ldr.w	r5, [r0, #620]	; 0x26c
 8009a86:	f8d0 e4c0 	ldr.w	lr, [r0, #1216]	; 0x4c0
 8009a8a:	404b      	eors	r3, r1
 8009a8c:	4054      	eors	r4, r2
 8009a8e:	ea95 050e 	eors.w	r5, r5, lr
 8009a92:	f8d0 6274 	ldr.w	r6, [r0, #628]	; 0x274
 8009a96:	f8d0 14c8 	ldr.w	r1, [r0, #1224]	; 0x4c8
 8009a9a:	f8d0 727c 	ldr.w	r7, [r0, #636]	; 0x27c
 8009a9e:	f8d0 e4d4 	ldr.w	lr, [r0, #1236]	; 0x4d4
 8009aa2:	404e      	eors	r6, r1
 8009aa4:	ea97 070e 	eors.w	r7, r7, lr
 8009aa8:	ea5f 24b4 	movs.w	r4, r4, ror #10
 8009aac:	ea5f 25f5 	movs.w	r5, r5, ror #11
 8009ab0:	ea5f 56b6 	movs.w	r6, r6, ror #22
 8009ab4:	ea5f 6777 	movs.w	r7, r7, ror #25
 8009ab8:	ea98 010a 	eors.w	r1, r8, sl
 8009abc:	ea09 020a 	and.w	r2, r9, sl
 8009ac0:	4051      	eors	r1, r2
 8009ac2:	ea09 0205 	and.w	r2, r9, r5
 8009ac6:	4051      	eors	r1, r2
 8009ac8:	ea04 020a 	and.w	r2, r4, sl
 8009acc:	4051      	eors	r1, r2
 8009ace:	f8c0 10cc 	str.w	r1, [r0, #204]	; 0xcc
 8009ad2:	ea99 010b 	eors.w	r1, r9, fp
 8009ad6:	ea0a 020b 	and.w	r2, sl, fp
 8009ada:	4051      	eors	r1, r2
 8009adc:	ea0a 0206 	and.w	r2, sl, r6
 8009ae0:	4051      	eors	r1, r2
 8009ae2:	ea05 020b 	and.w	r2, r5, fp
 8009ae6:	4051      	eors	r1, r2
 8009ae8:	f8c0 10d4 	str.w	r1, [r0, #212]	; 0xd4
 8009aec:	ea9a 010c 	eors.w	r1, sl, ip
 8009af0:	ea0b 020c 	and.w	r2, fp, ip
 8009af4:	4051      	eors	r1, r2
 8009af6:	ea0b 0207 	and.w	r2, fp, r7
 8009afa:	4051      	eors	r1, r2
 8009afc:	ea06 020c 	and.w	r2, r6, ip
 8009b00:	4051      	eors	r1, r2
 8009b02:	f8c0 10dc 	str.w	r1, [r0, #220]	; 0xdc
 8009b06:	ea9b 0108 	eors.w	r1, fp, r8
 8009b0a:	ea0c 0208 	and.w	r2, ip, r8
 8009b0e:	4051      	eors	r1, r2
 8009b10:	ea0c 0203 	and.w	r2, ip, r3
 8009b14:	4051      	eors	r1, r2
 8009b16:	ea07 0208 	and.w	r2, r7, r8
 8009b1a:	4051      	eors	r1, r2
 8009b1c:	f8c0 10e4 	str.w	r1, [r0, #228]	; 0xe4
 8009b20:	ea9c 0109 	eors.w	r1, ip, r9
 8009b24:	ea08 0209 	and.w	r2, r8, r9
 8009b28:	4051      	eors	r1, r2
 8009b2a:	ea08 0204 	and.w	r2, r8, r4
 8009b2e:	4051      	eors	r1, r2
 8009b30:	ea03 0209 	and.w	r2, r3, r9
 8009b34:	4051      	eors	r1, r2
 8009b36:	f8c0 10ec 	str.w	r1, [r0, #236]	; 0xec
 8009b3a:	f8d0 8324 	ldr.w	r8, [r0, #804]	; 0x324
 8009b3e:	f8d0 932c 	ldr.w	r9, [r0, #812]	; 0x32c
 8009b42:	f8d0 a334 	ldr.w	sl, [r0, #820]	; 0x334
 8009b46:	f8d0 b33c 	ldr.w	fp, [r0, #828]	; 0x33c
 8009b4a:	f8d0 c344 	ldr.w	ip, [r0, #836]	; 0x344
 8009b4e:	ea94 0106 	eors.w	r1, r4, r6
 8009b52:	ea05 0206 	and.w	r2, r5, r6
 8009b56:	4051      	eors	r1, r2
 8009b58:	ea05 020b 	and.w	r2, r5, fp
 8009b5c:	4051      	eors	r1, r2
 8009b5e:	ea0a 0206 	and.w	r2, sl, r6
 8009b62:	4051      	eors	r1, r2
 8009b64:	f8c0 119c 	str.w	r1, [r0, #412]	; 0x19c
 8009b68:	ea95 0107 	eors.w	r1, r5, r7
 8009b6c:	ea06 0207 	and.w	r2, r6, r7
 8009b70:	4051      	eors	r1, r2
 8009b72:	ea06 020c 	and.w	r2, r6, ip
 8009b76:	4051      	eors	r1, r2
 8009b78:	ea0b 0207 	and.w	r2, fp, r7
 8009b7c:	4051      	eors	r1, r2
 8009b7e:	f8c0 11a4 	str.w	r1, [r0, #420]	; 0x1a4
 8009b82:	ea96 0103 	eors.w	r1, r6, r3
 8009b86:	ea07 0203 	and.w	r2, r7, r3
 8009b8a:	4051      	eors	r1, r2
 8009b8c:	ea07 0208 	and.w	r2, r7, r8
 8009b90:	4051      	eors	r1, r2
 8009b92:	ea0c 0203 	and.w	r2, ip, r3
 8009b96:	4051      	eors	r1, r2
 8009b98:	f8c0 11ac 	str.w	r1, [r0, #428]	; 0x1ac
 8009b9c:	ea97 0104 	eors.w	r1, r7, r4
 8009ba0:	ea03 0204 	and.w	r2, r3, r4
 8009ba4:	4051      	eors	r1, r2
 8009ba6:	ea03 0209 	and.w	r2, r3, r9
 8009baa:	4051      	eors	r1, r2
 8009bac:	ea08 0204 	and.w	r2, r8, r4
 8009bb0:	4051      	eors	r1, r2
 8009bb2:	f8c0 11b4 	str.w	r1, [r0, #436]	; 0x1b4
 8009bb6:	f8d0 1528 	ldr.w	r1, [r0, #1320]	; 0x528
 8009bba:	ea93 0605 	eors.w	r6, r3, r5
 8009bbe:	ea04 0705 	and.w	r7, r4, r5
 8009bc2:	407e      	eors	r6, r7
 8009bc4:	ea04 070a 	and.w	r7, r4, sl
 8009bc8:	407e      	eors	r6, r7
 8009bca:	ea09 0705 	and.w	r7, r9, r5
 8009bce:	407e      	eors	r6, r7
 8009bd0:	69cc      	ldr	r4, [r1, #28]
 8009bd2:	4066      	eors	r6, r4
 8009bd4:	f851 4f20 	ldr.w	r4, [r1, #32]!
 8009bd8:	f8c0 1528 	str.w	r1, [r0, #1320]	; 0x528
 8009bdc:	2cff      	cmp	r4, #255	; 0xff
 8009bde:	f8c0 6194 	str.w	r6, [r0, #404]	; 0x194
 8009be2:	e8bd 5f04 	ldmia.w	sp!, {r2, r8, r9, sl, fp, ip, lr}
 8009be6:	f8c0 052c 	str.w	r0, [r0, #1324]	; 0x52c
 8009bea:	f8c0 1530 	str.w	r1, [r0, #1328]	; 0x530
 8009bee:	f8c0 2534 	str.w	r2, [r0, #1332]	; 0x534
 8009bf2:	f8c0 3538 	str.w	r3, [r0, #1336]	; 0x538
 8009bf6:	f8c0 453c 	str.w	r4, [r0, #1340]	; 0x53c
 8009bfa:	f8c0 5540 	str.w	r5, [r0, #1344]	; 0x540
 8009bfe:	f8c0 6544 	str.w	r6, [r0, #1348]	; 0x544
 8009c02:	f8c0 7548 	str.w	r7, [r0, #1352]	; 0x548
 8009c06:	f8c0 854c 	str.w	r8, [r0, #1356]	; 0x54c
 8009c0a:	f8c0 9550 	str.w	r9, [r0, #1360]	; 0x550
 8009c0e:	f8c0 a554 	str.w	sl, [r0, #1364]	; 0x554
 8009c12:	f8c0 b558 	str.w	fp, [r0, #1368]	; 0x558
 8009c16:	f8c0 c55c 	str.w	ip, [r0, #1372]	; 0x55c
 8009c1a:	f8c0 e560 	str.w	lr, [r0, #1376]	; 0x560
 8009c1e:	e8bd 9ff0 	ldmia.w	sp!, {r4, r5, r6, r7, r8, r9, sl, fp, ip, pc}
 8009c22:	bf00      	nop

08009c24 <__libc_init_array>:
 8009c24:	b570      	push	{r4, r5, r6, lr}
 8009c26:	4e0d      	ldr	r6, [pc, #52]	; (8009c5c <__libc_init_array+0x38>)
 8009c28:	4d0d      	ldr	r5, [pc, #52]	; (8009c60 <__libc_init_array+0x3c>)
 8009c2a:	1b76      	subs	r6, r6, r5
 8009c2c:	10b6      	asrs	r6, r6, #2
 8009c2e:	d006      	beq.n	8009c3e <__libc_init_array+0x1a>
 8009c30:	2400      	movs	r4, #0
 8009c32:	3401      	adds	r4, #1
 8009c34:	f855 3b04 	ldr.w	r3, [r5], #4
 8009c38:	4798      	blx	r3
 8009c3a:	42a6      	cmp	r6, r4
 8009c3c:	d1f9      	bne.n	8009c32 <__libc_init_array+0xe>
 8009c3e:	4e09      	ldr	r6, [pc, #36]	; (8009c64 <__libc_init_array+0x40>)
 8009c40:	4d09      	ldr	r5, [pc, #36]	; (8009c68 <__libc_init_array+0x44>)
 8009c42:	1b76      	subs	r6, r6, r5
 8009c44:	f001 fc24 	bl	800b490 <_init>
 8009c48:	10b6      	asrs	r6, r6, #2
 8009c4a:	d006      	beq.n	8009c5a <__libc_init_array+0x36>
 8009c4c:	2400      	movs	r4, #0
 8009c4e:	3401      	adds	r4, #1
 8009c50:	f855 3b04 	ldr.w	r3, [r5], #4
 8009c54:	4798      	blx	r3
 8009c56:	42a6      	cmp	r6, r4
 8009c58:	d1f9      	bne.n	8009c4e <__libc_init_array+0x2a>
 8009c5a:	bd70      	pop	{r4, r5, r6, pc}
 8009c5c:	0800b4bc 	.word	0x0800b4bc
 8009c60:	0800b4bc 	.word	0x0800b4bc
 8009c64:	0800b4c0 	.word	0x0800b4c0
 8009c68:	0800b4bc 	.word	0x0800b4bc

08009c6c <get_mask>:
    simpleserial_put('r', 16, seed);
    return 0x00;
}

uint8_t get_mask(uint8_t* mask, uint8_t len)
{   
 8009c6c:	b510      	push	{r4, lr}
    int i;
    memcpy(&initial_mask[0], &mask[0], 16);
 8009c6e:	4908      	ldr	r1, [pc, #32]	; (8009c90 <get_mask+0x24>)
{   
 8009c70:	4602      	mov	r2, r0
    memcpy(&initial_mask[0], &mask[0], 16);
 8009c72:	4603      	mov	r3, r0
 8009c74:	3010      	adds	r0, #16
 8009c76:	f853 4b04 	ldr.w	r4, [r3], #4
 8009c7a:	f841 4b04 	str.w	r4, [r1], #4
 8009c7e:	4283      	cmp	r3, r0
 8009c80:	d1f9      	bne.n	8009c76 <get_mask+0xa>
	simpleserial_put('r', 16, mask);
 8009c82:	2110      	movs	r1, #16
 8009c84:	2072      	movs	r0, #114	; 0x72
 8009c86:	f000 fe89 	bl	800a99c <simpleserial_put>
	return 0x00;
}
 8009c8a:	2000      	movs	r0, #0
 8009c8c:	bd10      	pop	{r4, pc}
 8009c8e:	bf00      	nop
 8009c90:	200007e0 	.word	0x200007e0

08009c94 <get_registers>:


uint8_t get_registers(uint8_t* sig, uint8_t len)
{
 8009c94:	b507      	push	{r0, r1, r2, lr}
    int i;
    uint8_t reg[4];
    for(i=0;i<4;i++)
    {
        reg[i]=ISHARES[1324+i+4*(int)sig[0]];
 8009c96:	7803      	ldrb	r3, [r0, #0]
 8009c98:	4a0f      	ldr	r2, [pc, #60]	; (8009cd8 <get_registers+0x44>)
 8009c9a:	009b      	lsls	r3, r3, #2
 8009c9c:	f203 512c 	addw	r1, r3, #1324	; 0x52c
    }
    simpleserial_put('t', 4, reg); 
 8009ca0:	2074      	movs	r0, #116	; 0x74
        reg[i]=ISHARES[1324+i+4*(int)sig[0]];
 8009ca2:	5c51      	ldrb	r1, [r2, r1]
 8009ca4:	f88d 1004 	strb.w	r1, [sp, #4]
 8009ca8:	f203 512d 	addw	r1, r3, #1325	; 0x52d
 8009cac:	5c51      	ldrb	r1, [r2, r1]
 8009cae:	f88d 1005 	strb.w	r1, [sp, #5]
 8009cb2:	f203 512e 	addw	r1, r3, #1326	; 0x52e
 8009cb6:	f203 532f 	addw	r3, r3, #1327	; 0x52f
 8009cba:	5c51      	ldrb	r1, [r2, r1]
 8009cbc:	f88d 1006 	strb.w	r1, [sp, #6]
 8009cc0:	5cd3      	ldrb	r3, [r2, r3]
 8009cc2:	f88d 3007 	strb.w	r3, [sp, #7]
    simpleserial_put('t', 4, reg); 
 8009cc6:	aa01      	add	r2, sp, #4
 8009cc8:	2104      	movs	r1, #4
 8009cca:	f000 fe67 	bl	800a99c <simpleserial_put>
    return 0x00;  
}
 8009cce:	2000      	movs	r0, #0
 8009cd0:	b003      	add	sp, #12
 8009cd2:	f85d fb04 	ldr.w	pc, [sp], #4
 8009cd6:	bf00      	nop
 8009cd8:	2000027c 	.word	0x2000027c

08009cdc <get_cycles>:
    simpleserial_put('m', 8, bytes_st_msg);
	return 0x00;
}

uint8_t get_cycles(uint8_t* cmd, uint8_t len)
{   
 8009cdc:	b508      	push	{r3, lr}
    num_cycles_bytes[0] = (uint8_t)(delta & 0xFF);        
 8009cde:	4b08      	ldr	r3, [pc, #32]	; (8009d00 <get_cycles+0x24>)
 8009ce0:	4a08      	ldr	r2, [pc, #32]	; (8009d04 <get_cycles+0x28>)
 8009ce2:	681b      	ldr	r3, [r3, #0]
 8009ce4:	7013      	strb	r3, [r2, #0]
    num_cycles_bytes[1] = (uint8_t)((delta >> 8) & 0xFF);
 8009ce6:	0a19      	lsrs	r1, r3, #8
 8009ce8:	7051      	strb	r1, [r2, #1]
    num_cycles_bytes[2] = (uint8_t)((delta >> 16) & 0xFF);
 8009cea:	0c19      	lsrs	r1, r3, #16
 8009cec:	7091      	strb	r1, [r2, #2]
    num_cycles_bytes[3] = (uint8_t)((delta >> 24) & 0xFF); 
 8009cee:	0e1b      	lsrs	r3, r3, #24
	simpleserial_put('r', 4, num_cycles_bytes);
 8009cf0:	2104      	movs	r1, #4
 8009cf2:	2072      	movs	r0, #114	; 0x72
    num_cycles_bytes[3] = (uint8_t)((delta >> 24) & 0xFF); 
 8009cf4:	70d3      	strb	r3, [r2, #3]
	simpleserial_put('r', 4, num_cycles_bytes);
 8009cf6:	f000 fe51 	bl	800a99c <simpleserial_put>
	return 0x00;
}
 8009cfa:	2000      	movs	r0, #0
 8009cfc:	bd08      	pop	{r3, pc}
 8009cfe:	bf00      	nop
 8009d00:	20000cb8 	.word	0x20000cb8
 8009d04:	20000d98 	.word	0x20000d98

08009d08 <get_round>:
{
 8009d08:	b510      	push	{r4, lr}
 8009d0a:	7803      	ldrb	r3, [r0, #0]
 8009d0c:	4604      	mov	r4, r0
 8009d0e:	2b03      	cmp	r3, #3
 8009d10:	d806      	bhi.n	8009d20 <get_round+0x18>
 8009d12:	e8df f003 	tbb	[pc, r3]
 8009d16:	0c02      	.short	0x0c02
 8009d18:	1410      	.short	0x1410
            KeccakP1600_Permute0(ISHARES);
 8009d1a:	480b      	ldr	r0, [pc, #44]	; (8009d48 <get_round+0x40>)
 8009d1c:	f7f8 faf0 	bl	8002300 <KeccakP1600_Permute0>
    simpleserial_put('r', 16, round); 
 8009d20:	4622      	mov	r2, r4
 8009d22:	2110      	movs	r1, #16
 8009d24:	2072      	movs	r0, #114	; 0x72
 8009d26:	f000 fe39 	bl	800a99c <simpleserial_put>
}
 8009d2a:	2000      	movs	r0, #0
 8009d2c:	bd10      	pop	{r4, pc}
            KeccakP1600_Permute1(ISHARES);
 8009d2e:	4806      	ldr	r0, [pc, #24]	; (8009d48 <get_round+0x40>)
 8009d30:	f7fa f9e6 	bl	8004100 <KeccakP1600_Permute1>
            break;
 8009d34:	e7f4      	b.n	8009d20 <get_round+0x18>
            KeccakP1600_Permute2(ISHARES);
 8009d36:	4804      	ldr	r0, [pc, #16]	; (8009d48 <get_round+0x40>)
 8009d38:	f7fc f962 	bl	8006000 <KeccakP1600_Permute2>
            break;
 8009d3c:	e7f0      	b.n	8009d20 <get_round+0x18>
            KeccakP1600_Permute3(ISHARES);
 8009d3e:	4802      	ldr	r0, [pc, #8]	; (8009d48 <get_round+0x40>)
 8009d40:	f7fe f85e 	bl	8007e00 <KeccakP1600_Permute3>
            break;
 8009d44:	e7ec      	b.n	8009d20 <get_round+0x18>
 8009d46:	bf00      	nop
 8009d48:	2000027c 	.word	0x2000027c

08009d4c <prng_init>:
    prng.state[0] = chacha20_constants[0];
 8009d4c:	4b15      	ldr	r3, [pc, #84]	; (8009da4 <prng_init+0x58>)
    prng.state[1] = chacha20_constants[1];
 8009d4e:	4916      	ldr	r1, [pc, #88]	; (8009da8 <prng_init+0x5c>)
 8009d50:	4a16      	ldr	r2, [pc, #88]	; (8009dac <prng_init+0x60>)
void prng_init(const uint8_t seed[32]) {
 8009d52:	b530      	push	{r4, r5, lr}
    prng.state[1] = chacha20_constants[1];
 8009d54:	e9c3 1200 	strd	r1, r2, [r3]
    prng.state[2] = chacha20_constants[2];
 8009d58:	4a15      	ldr	r2, [pc, #84]	; (8009db0 <prng_init+0x64>)
 8009d5a:	609a      	str	r2, [r3, #8]
    prng.state[3] = chacha20_constants[3];
 8009d5c:	f1a2 6264 	sub.w	r2, r2, #239075328	; 0xe400000
 8009d60:	f5a2 32e3 	sub.w	r2, r2, #116224	; 0x1c600
 8009d64:	f5a2 72df 	sub.w	r2, r2, #446	; 0x1be
 8009d68:	60da      	str	r2, [r3, #12]
    for (int i = 0; i < 8; i++) {
 8009d6a:	f103 0110 	add.w	r1, r3, #16
 8009d6e:	f100 0420 	add.w	r4, r0, #32
            ((uint32_t)seed[i*4+2] << 16) |
 8009d72:	7882      	ldrb	r2, [r0, #2]
            ((uint32_t)seed[i*4+1] << 8) |
 8009d74:	7845      	ldrb	r5, [r0, #1]
            ((uint32_t)seed[i*4+2] << 16) |
 8009d76:	0412      	lsls	r2, r2, #16
            ((uint32_t)seed[i*4+1] << 8) |
 8009d78:	ea42 2205 	orr.w	r2, r2, r5, lsl #8
            ((uint32_t)seed[i*4]) |
 8009d7c:	7805      	ldrb	r5, [r0, #0]
            ((uint32_t)seed[i*4+1] << 8) |
 8009d7e:	432a      	orrs	r2, r5
            ((uint32_t)seed[i*4+3] << 24);
 8009d80:	78c5      	ldrb	r5, [r0, #3]
 8009d82:	3004      	adds	r0, #4
            ((uint32_t)seed[i*4+2] << 16) |
 8009d84:	ea42 6205 	orr.w	r2, r2, r5, lsl #24
    for (int i = 0; i < 8; i++) {
 8009d88:	4284      	cmp	r4, r0
        prng.state[4 + i] =
 8009d8a:	f841 2b04 	str.w	r2, [r1], #4
    for (int i = 0; i < 8; i++) {
 8009d8e:	d1f0      	bne.n	8009d72 <prng_init+0x26>
    prng.state[12] = 0; // counter
 8009d90:	2200      	movs	r2, #0
    prng.state[13] = 0; prng.state[14] = 0; prng.state[15] = 0; // nonce
 8009d92:	e9c3 220c 	strd	r2, r2, [r3, #48]	; 0x30
 8009d96:	e9c3 220e 	strd	r2, r2, [r3, #56]	; 0x38
    prng.keystream_pos = CHACHA20_BLOCK_SIZE;
 8009d9a:	2240      	movs	r2, #64	; 0x40
 8009d9c:	f8c3 2080 	str.w	r2, [r3, #128]	; 0x80
}
 8009da0:	bd30      	pop	{r4, r5, pc}
 8009da2:	bf00      	nop
 8009da4:	2000001c 	.word	0x2000001c
 8009da8:	61707865 	.word	0x61707865
 8009dac:	3320646e 	.word	0x3320646e
 8009db0:	79622d32 	.word	0x79622d32

08009db4 <get_seed>:
        seed_chacha20[i+(seed_counter*16)] = seed[i]; 
 8009db4:	4a11      	ldr	r2, [pc, #68]	; (8009dfc <get_seed+0x48>)
 8009db6:	4912      	ldr	r1, [pc, #72]	; (8009e00 <get_seed+0x4c>)
 8009db8:	f8d2 3084 	ldr.w	r3, [r2, #132]	; 0x84
{
 8009dbc:	b570      	push	{r4, r5, r6, lr}
 8009dbe:	4604      	mov	r4, r0
 8009dc0:	eb01 1103 	add.w	r1, r1, r3, lsl #4
 8009dc4:	3801      	subs	r0, #1
 8009dc6:	f104 050f 	add.w	r5, r4, #15
        seed_chacha20[i+(seed_counter*16)] = seed[i]; 
 8009dca:	f810 6f01 	ldrb.w	r6, [r0, #1]!
 8009dce:	f801 6b01 	strb.w	r6, [r1], #1
    for(i=0; i<16; i++)
 8009dd2:	42a8      	cmp	r0, r5
 8009dd4:	d1f9      	bne.n	8009dca <get_seed+0x16>
    seed_counter = (seed_counter + 1) % 2;
 8009dd6:	3301      	adds	r3, #1
 8009dd8:	f003 0301 	and.w	r3, r3, #1
 8009ddc:	4619      	mov	r1, r3
 8009dde:	bf48      	it	mi
 8009de0:	4259      	negmi	r1, r3
 8009de2:	f8c2 1084 	str.w	r1, [r2, #132]	; 0x84
    if(seed_counter == 0)
 8009de6:	b913      	cbnz	r3, 8009dee <get_seed+0x3a>
        prng_init(seed_chacha20);
 8009de8:	4805      	ldr	r0, [pc, #20]	; (8009e00 <get_seed+0x4c>)
 8009dea:	f7ff ffaf 	bl	8009d4c <prng_init>
    simpleserial_put('r', 16, seed);
 8009dee:	4622      	mov	r2, r4
 8009df0:	2110      	movs	r1, #16
 8009df2:	2072      	movs	r0, #114	; 0x72
 8009df4:	f000 fdd2 	bl	800a99c <simpleserial_put>
}
 8009df8:	2000      	movs	r0, #0
 8009dfa:	bd70      	pop	{r4, r5, r6, pc}
 8009dfc:	2000001c 	.word	0x2000001c
 8009e00:	20000c98 	.word	0x20000c98

08009e04 <prng_get_byte>:
uint8_t prng_get_byte() {
 8009e04:	e92d 4ff0 	stmdb	sp!, {r4, r5, r6, r7, r8, r9, sl, fp, lr}
    if (prng.keystream_pos >= CHACHA20_BLOCK_SIZE) {
 8009e08:	4c81      	ldr	r4, [pc, #516]	; (800a010 <prng_get_byte+0x20c>)
 8009e0a:	f8d4 3080 	ldr.w	r3, [r4, #128]	; 0x80
 8009e0e:	2b3f      	cmp	r3, #63	; 0x3f
uint8_t prng_get_byte() {
 8009e10:	b099      	sub	sp, #100	; 0x64
    if (prng.keystream_pos >= CHACHA20_BLOCK_SIZE) {
 8009e12:	f340 80f0 	ble.w	8009ff6 <prng_get_byte+0x1f2>
    memcpy(x, in, sizeof(uint32_t) * 16);
 8009e16:	cc0f      	ldmia	r4!, {r0, r1, r2, r3}
 8009e18:	ad08      	add	r5, sp, #32
 8009e1a:	c50f      	stmia	r5!, {r0, r1, r2, r3}
 8009e1c:	cc0f      	ldmia	r4!, {r0, r1, r2, r3}
 8009e1e:	c50f      	stmia	r5!, {r0, r1, r2, r3}
 8009e20:	cc0f      	ldmia	r4!, {r0, r1, r2, r3}
 8009e22:	c50f      	stmia	r5!, {r0, r1, r2, r3}
 8009e24:	e894 000f 	ldmia.w	r4, {r0, r1, r2, r3}
 8009e28:	e885 000f 	stmia.w	r5, {r0, r1, r2, r3}
    for (int i = 0; i < 10; i++) {
 8009e2c:	f8dd c020 	ldr.w	ip, [sp, #32]
 8009e30:	9b12      	ldr	r3, [sp, #72]	; 0x48
 8009e32:	9301      	str	r3, [sp, #4]
 8009e34:	9b0f      	ldr	r3, [sp, #60]	; 0x3c
 8009e36:	9303      	str	r3, [sp, #12]
 8009e38:	9b17      	ldr	r3, [sp, #92]	; 0x5c
 8009e3a:	9304      	str	r3, [sp, #16]
 8009e3c:	9b13      	ldr	r3, [sp, #76]	; 0x4c
 8009e3e:	9302      	str	r3, [sp, #8]
 8009e40:	980c      	ldr	r0, [sp, #48]	; 0x30
 8009e42:	f8dd a050 	ldr.w	sl, [sp, #80]	; 0x50
 8009e46:	f8dd e040 	ldr.w	lr, [sp, #64]	; 0x40
 8009e4a:	9f09      	ldr	r7, [sp, #36]	; 0x24
 8009e4c:	990d      	ldr	r1, [sp, #52]	; 0x34
 8009e4e:	f8dd 9054 	ldr.w	r9, [sp, #84]	; 0x54
 8009e52:	9e11      	ldr	r6, [sp, #68]	; 0x44
 8009e54:	9d0a      	ldr	r5, [sp, #40]	; 0x28
 8009e56:	9a0e      	ldr	r2, [sp, #56]	; 0x38
 8009e58:	f8dd 8058 	ldr.w	r8, [sp, #88]	; 0x58
 8009e5c:	9c0b      	ldr	r4, [sp, #44]	; 0x2c
    memcpy(x, in, sizeof(uint32_t) * 16);
 8009e5e:	230a      	movs	r3, #10
 8009e60:	9305      	str	r3, [sp, #20]
        QUARTERROUND(x[0], x[4], x[8], x[12])
 8009e62:	4484      	add	ip, r0
 8009e64:	ea8c 0a0a 	eor.w	sl, ip, sl
 8009e68:	eb0e 4e3a 	add.w	lr, lr, sl, ror #16
 8009e6c:	ea8e 0000 	eor.w	r0, lr, r0
 8009e70:	eb0c 5c30 	add.w	ip, ip, r0, ror #20
        QUARTERROUND(x[1], x[5], x[9], x[13])
 8009e74:	440f      	add	r7, r1
        QUARTERROUND(x[0], x[4], x[8], x[12])
 8009e76:	ea8c 4a3a 	eor.w	sl, ip, sl, ror #16
        QUARTERROUND(x[1], x[5], x[9], x[13])
 8009e7a:	ea87 0909 	eor.w	r9, r7, r9
        QUARTERROUND(x[0], x[4], x[8], x[12])
 8009e7e:	eb0e 633a 	add.w	r3, lr, sl, ror #24
        QUARTERROUND(x[1], x[5], x[9], x[13])
 8009e82:	eb06 4639 	add.w	r6, r6, r9, ror #16
 8009e86:	4071      	eors	r1, r6
        QUARTERROUND(x[0], x[4], x[8], x[12])
 8009e88:	9306      	str	r3, [sp, #24]
 8009e8a:	ea83 5330 	eor.w	r3, r3, r0, ror #20
        QUARTERROUND(x[1], x[5], x[9], x[13])
 8009e8e:	eb07 5731 	add.w	r7, r7, r1, ror #20
        QUARTERROUND(x[2], x[6], x[10], x[14])
 8009e92:	4415      	add	r5, r2
        QUARTERROUND(x[0], x[4], x[8], x[12])
 8009e94:	9307      	str	r3, [sp, #28]
        QUARTERROUND(x[2], x[6], x[10], x[14])
 8009e96:	9b01      	ldr	r3, [sp, #4]
        QUARTERROUND(x[1], x[5], x[9], x[13])
 8009e98:	ea87 4939 	eor.w	r9, r7, r9, ror #16
        QUARTERROUND(x[2], x[6], x[10], x[14])
 8009e9c:	ea85 0808 	eor.w	r8, r5, r8
        QUARTERROUND(x[1], x[5], x[9], x[13])
 8009ea0:	eb06 6b39 	add.w	fp, r6, r9, ror #24
        QUARTERROUND(x[2], x[6], x[10], x[14])
 8009ea4:	eb03 4638 	add.w	r6, r3, r8, ror #16
        QUARTERROUND(x[3], x[7], x[11], x[15])
 8009ea8:	9b03      	ldr	r3, [sp, #12]
 8009eaa:	441c      	add	r4, r3
 8009eac:	9b04      	ldr	r3, [sp, #16]
 8009eae:	ea84 0e03 	eor.w	lr, r4, r3
 8009eb2:	9b02      	ldr	r3, [sp, #8]
 8009eb4:	eb03 403e 	add.w	r0, r3, lr, ror #16
 8009eb8:	9b03      	ldr	r3, [sp, #12]
        QUARTERROUND(x[2], x[6], x[10], x[14])
 8009eba:	4072      	eors	r2, r6
 8009ebc:	eb05 5532 	add.w	r5, r5, r2, ror #20
        QUARTERROUND(x[3], x[7], x[11], x[15])
 8009ec0:	4043      	eors	r3, r0
        QUARTERROUND(x[2], x[6], x[10], x[14])
 8009ec2:	ea85 4838 	eor.w	r8, r5, r8, ror #16
        QUARTERROUND(x[1], x[5], x[9], x[13])
 8009ec6:	ea8b 5131 	eor.w	r1, fp, r1, ror #20
        QUARTERROUND(x[3], x[7], x[11], x[15])
 8009eca:	eb04 5433 	add.w	r4, r4, r3, ror #20
        QUARTERROUND(x[2], x[6], x[10], x[14])
 8009ece:	eb06 6638 	add.w	r6, r6, r8, ror #24
        QUARTERROUND(x[3], x[7], x[11], x[15])
 8009ed2:	ea84 4e3e 	eor.w	lr, r4, lr, ror #16
        QUARTERROUND(x[0], x[5], x[10], x[15])
 8009ed6:	eb0c 6c71 	add.w	ip, ip, r1, ror #25
        QUARTERROUND(x[2], x[6], x[10], x[14])
 8009eda:	ea86 5232 	eor.w	r2, r6, r2, ror #20
        QUARTERROUND(x[3], x[7], x[11], x[15])
 8009ede:	eb00 603e 	add.w	r0, r0, lr, ror #24
        QUARTERROUND(x[0], x[5], x[10], x[15])
 8009ee2:	ea8c 6e3e 	eor.w	lr, ip, lr, ror #24
 8009ee6:	eb06 463e 	add.w	r6, r6, lr, ror #16
        QUARTERROUND(x[1], x[6], x[11], x[12])
 8009eea:	eb07 6772 	add.w	r7, r7, r2, ror #25
 8009eee:	ea87 6a3a 	eor.w	sl, r7, sl, ror #24
        QUARTERROUND(x[0], x[5], x[10], x[15])
 8009ef2:	ea86 6171 	eor.w	r1, r6, r1, ror #25
        QUARTERROUND(x[3], x[7], x[11], x[15])
 8009ef6:	ea80 5333 	eor.w	r3, r0, r3, ror #20
        QUARTERROUND(x[0], x[5], x[10], x[15])
 8009efa:	eb0c 5c31 	add.w	ip, ip, r1, ror #20
        QUARTERROUND(x[1], x[6], x[11], x[12])
 8009efe:	eb00 403a 	add.w	r0, r0, sl, ror #16
        QUARTERROUND(x[0], x[5], x[10], x[15])
 8009f02:	ea8c 4e3e 	eor.w	lr, ip, lr, ror #16
        QUARTERROUND(x[1], x[6], x[11], x[12])
 8009f06:	ea80 6272 	eor.w	r2, r0, r2, ror #25
        QUARTERROUND(x[3], x[7], x[11], x[15])
 8009f0a:	9303      	str	r3, [sp, #12]
        QUARTERROUND(x[1], x[6], x[11], x[12])
 8009f0c:	eb07 5732 	add.w	r7, r7, r2, ror #20
        QUARTERROUND(x[0], x[5], x[10], x[15])
 8009f10:	ea4f 633e 	mov.w	r3, lr, ror #24
 8009f14:	9304      	str	r3, [sp, #16]
 8009f16:	eb06 633e 	add.w	r3, r6, lr, ror #24
        QUARTERROUND(x[1], x[6], x[11], x[12])
 8009f1a:	ea87 463a 	eor.w	r6, r7, sl, ror #16
        QUARTERROUND(x[0], x[5], x[10], x[15])
 8009f1e:	ea83 5131 	eor.w	r1, r3, r1, ror #20
 8009f22:	9301      	str	r3, [sp, #4]
        QUARTERROUND(x[1], x[6], x[11], x[12])
 8009f24:	eb00 6336 	add.w	r3, r0, r6, ror #24
 8009f28:	ea83 5232 	eor.w	r2, r3, r2, ror #20
 8009f2c:	9302      	str	r3, [sp, #8]
        QUARTERROUND(x[2], x[7], x[8], x[13])
 8009f2e:	9b03      	ldr	r3, [sp, #12]
 8009f30:	eb05 6573 	add.w	r5, r5, r3, ror #25
 8009f34:	9b06      	ldr	r3, [sp, #24]
 8009f36:	ea85 6939 	eor.w	r9, r5, r9, ror #24
 8009f3a:	eb03 4e39 	add.w	lr, r3, r9, ror #16
 8009f3e:	9b03      	ldr	r3, [sp, #12]
 8009f40:	ea8e 6373 	eor.w	r3, lr, r3, ror #25
 8009f44:	eb05 5533 	add.w	r5, r5, r3, ror #20
 8009f48:	ea85 4039 	eor.w	r0, r5, r9, ror #16
 8009f4c:	eb0e 6e30 	add.w	lr, lr, r0, ror #24
 8009f50:	ea8e 5333 	eor.w	r3, lr, r3, ror #20
 8009f54:	ea4f 6373 	mov.w	r3, r3, ror #25
 8009f58:	9303      	str	r3, [sp, #12]
        QUARTERROUND(x[3], x[4], x[9], x[14])
 8009f5a:	9b07      	ldr	r3, [sp, #28]
 8009f5c:	eb04 6473 	add.w	r4, r4, r3, ror #25
        QUARTERROUND(x[1], x[6], x[11], x[12])
 8009f60:	ea4f 6a36 	mov.w	sl, r6, ror #24
        QUARTERROUND(x[3], x[4], x[9], x[14])
 8009f64:	ea84 6638 	eor.w	r6, r4, r8, ror #24
 8009f68:	eb0b 4b36 	add.w	fp, fp, r6, ror #16
        QUARTERROUND(x[2], x[7], x[8], x[13])
 8009f6c:	ea4f 6930 	mov.w	r9, r0, ror #24
        QUARTERROUND(x[3], x[4], x[9], x[14])
 8009f70:	ea8b 6073 	eor.w	r0, fp, r3, ror #25
 8009f74:	eb04 5430 	add.w	r4, r4, r0, ror #20
    for (int i = 0; i < 10; i++) {
 8009f78:	9b05      	ldr	r3, [sp, #20]
        QUARTERROUND(x[3], x[4], x[9], x[14])
 8009f7a:	ea84 4636 	eor.w	r6, r4, r6, ror #16
 8009f7e:	ea4f 6836 	mov.w	r8, r6, ror #24
 8009f82:	eb0b 6636 	add.w	r6, fp, r6, ror #24
 8009f86:	ea86 5030 	eor.w	r0, r6, r0, ror #20
    for (int i = 0; i < 10; i++) {
 8009f8a:	3b01      	subs	r3, #1
        QUARTERROUND(x[0], x[5], x[10], x[15])
 8009f8c:	ea4f 6171 	mov.w	r1, r1, ror #25
        QUARTERROUND(x[1], x[6], x[11], x[12])
 8009f90:	ea4f 6272 	mov.w	r2, r2, ror #25
        QUARTERROUND(x[3], x[4], x[9], x[14])
 8009f94:	ea4f 6070 	mov.w	r0, r0, ror #25
    for (int i = 0; i < 10; i++) {
 8009f98:	9305      	str	r3, [sp, #20]
 8009f9a:	f47f af62 	bne.w	8009e62 <prng_get_byte+0x5e>
 8009f9e:	9b01      	ldr	r3, [sp, #4]
 8009fa0:	9312      	str	r3, [sp, #72]	; 0x48
 8009fa2:	9b03      	ldr	r3, [sp, #12]
 8009fa4:	930f      	str	r3, [sp, #60]	; 0x3c
 8009fa6:	9b04      	ldr	r3, [sp, #16]
 8009fa8:	920e      	str	r2, [sp, #56]	; 0x38
 8009faa:	9317      	str	r3, [sp, #92]	; 0x5c
 8009fac:	4a18      	ldr	r2, [pc, #96]	; (800a010 <prng_get_byte+0x20c>)
 8009fae:	9b02      	ldr	r3, [sp, #8]
 8009fb0:	9313      	str	r3, [sp, #76]	; 0x4c
    for (int i = 0; i < 16; i++) {
 8009fb2:	9b05      	ldr	r3, [sp, #20]
 8009fb4:	910d      	str	r1, [sp, #52]	; 0x34
 8009fb6:	940b      	str	r4, [sp, #44]	; 0x2c
 8009fb8:	f8cd c020 	str.w	ip, [sp, #32]
 8009fbc:	900c      	str	r0, [sp, #48]	; 0x30
 8009fbe:	f8cd a050 	str.w	sl, [sp, #80]	; 0x50
 8009fc2:	f8cd e040 	str.w	lr, [sp, #64]	; 0x40
 8009fc6:	9709      	str	r7, [sp, #36]	; 0x24
 8009fc8:	f8cd 9054 	str.w	r9, [sp, #84]	; 0x54
 8009fcc:	9611      	str	r6, [sp, #68]	; 0x44
 8009fce:	950a      	str	r5, [sp, #40]	; 0x28
 8009fd0:	f8cd 8058 	str.w	r8, [sp, #88]	; 0x58
 8009fd4:	ac08      	add	r4, sp, #32
 8009fd6:	4611      	mov	r1, r2
        out[i] = x[i] + in[i];
 8009fd8:	f852 5b04 	ldr.w	r5, [r2], #4
 8009fdc:	f854 0b04 	ldr.w	r0, [r4], #4
    for (int i = 0; i < 16; i++) {
 8009fe0:	3301      	adds	r3, #1
        out[i] = x[i] + in[i];
 8009fe2:	4428      	add	r0, r5
    for (int i = 0; i < 16; i++) {
 8009fe4:	2b10      	cmp	r3, #16
        out[i] = x[i] + in[i];
 8009fe6:	63d0      	str	r0, [r2, #60]	; 0x3c
    for (int i = 0; i < 16; i++) {
 8009fe8:	d1f6      	bne.n	8009fd8 <prng_get_byte+0x1d4>
    prng.state[12]++;
 8009fea:	6b0b      	ldr	r3, [r1, #48]	; 0x30
 8009fec:	3301      	adds	r3, #1
 8009fee:	630b      	str	r3, [r1, #48]	; 0x30
    prng.keystream_pos = 0;
 8009ff0:	2300      	movs	r3, #0
 8009ff2:	f8c1 3080 	str.w	r3, [r1, #128]	; 0x80
    return prng.keystream[prng.keystream_pos++];
 8009ff6:	4b06      	ldr	r3, [pc, #24]	; (800a010 <prng_get_byte+0x20c>)
 8009ff8:	f8d3 2080 	ldr.w	r2, [r3, #128]	; 0x80
 8009ffc:	1c51      	adds	r1, r2, #1
 8009ffe:	f8c3 1080 	str.w	r1, [r3, #128]	; 0x80
 800a002:	4413      	add	r3, r2
}
 800a004:	f893 0040 	ldrb.w	r0, [r3, #64]	; 0x40
 800a008:	b019      	add	sp, #100	; 0x64
 800a00a:	e8bd 8ff0 	ldmia.w	sp!, {r4, r5, r6, r7, r8, r9, sl, fp, pc}
 800a00e:	bf00      	nop
 800a010:	2000001c 	.word	0x2000001c

0800a014 <bit_interleave>:
void bit_interleave(const uint8_t s0[200], uint8_t I0[200]) {
 800a014:	e92d 4ff7 	stmdb	sp!, {r0, r1, r2, r4, r5, r6, r7, r8, r9, sl, fp, lr}
    for (int blk = 0; blk < 200; blk += 8) {
 800a018:	2500      	movs	r5, #0
 800a01a:	f101 0c08 	add.w	ip, r1, #8
        uint8_t h[8] = {0};
 800a01e:	46ae      	mov	lr, r5
void bit_interleave(const uint8_t s0[200], uint8_t I0[200]) {
 800a020:	2300      	movs	r3, #0
 800a022:	eb00 0905 	add.w	r9, r0, r5
        uint64_t word = 0;
 800a026:	4698      	mov	r8, r3
 800a028:	461a      	mov	r2, r3
            word |= ((uint64_t)s0[blk + j]) << (8 * j);
 800a02a:	f819 ab01 	ldrb.w	sl, [r9], #1
 800a02e:	f1a3 0420 	sub.w	r4, r3, #32
 800a032:	f1c3 0720 	rsb	r7, r3, #32
 800a036:	fa0a f404 	lsl.w	r4, sl, r4
 800a03a:	fa2a f707 	lsr.w	r7, sl, r7
 800a03e:	fa0a f603 	lsl.w	r6, sl, r3
 800a042:	433c      	orrs	r4, r7
 800a044:	3308      	adds	r3, #8
 800a046:	ea46 0608 	orr.w	r6, r6, r8
 800a04a:	4314      	orrs	r4, r2
        for (int j = 0; j < 8; j++) {
 800a04c:	2b40      	cmp	r3, #64	; 0x40
            word |= ((uint64_t)s0[blk + j]) << (8 * j);
 800a04e:	46b0      	mov	r8, r6
 800a050:	4622      	mov	r2, r4
        for (int j = 0; j < 8; j++) {
 800a052:	d1ea      	bne.n	800a02a <bit_interleave+0x16>
        uint8_t h[8] = {0};
 800a054:	e9cd ee00 	strd	lr, lr, [sp]
        for (int bit = 0; bit < 64; bit++) {
 800a058:	2200      	movs	r2, #0
            uint8_t bitval = (word >> bit) & 1;
 800a05a:	f1c2 0820 	rsb	r8, r2, #32
 800a05e:	f1a2 0720 	sub.w	r7, r2, #32
 800a062:	fa26 f302 	lsr.w	r3, r6, r2
 800a066:	fa04 f808 	lsl.w	r8, r4, r8
 800a06a:	ea43 0308 	orr.w	r3, r3, r8
 800a06e:	fa24 f707 	lsr.w	r7, r4, r7
                if ((bit % 2) == 0)
 800a072:	f012 0f01 	tst.w	r2, #1
            uint8_t bitval = (word >> bit) & 1;
 800a076:	ea43 0307 	orr.w	r3, r3, r7
 800a07a:	ea4f 1722 	mov.w	r7, r2, asr #4
                    byte_out = 4 + (bit / 16);  
 800a07e:	bf18      	it	ne
 800a080:	3704      	addne	r7, #4
            h[byte_out] |= bitval << bit_out;
 800a082:	f10d 0808 	add.w	r8, sp, #8
 800a086:	4447      	add	r7, r8
            uint8_t bitval = (word >> bit) & 1;
 800a088:	f003 0301 	and.w	r3, r3, #1
                bit_out = (bit % 16) / 2;
 800a08c:	f3c2 0842 	ubfx	r8, r2, #1, #3
            h[byte_out] |= bitval << bit_out;
 800a090:	fa03 f308 	lsl.w	r3, r3, r8
 800a094:	f817 8c08 	ldrb.w	r8, [r7, #-8]
        for (int bit = 0; bit < 64; bit++) {
 800a098:	3201      	adds	r2, #1
            h[byte_out] |= bitval << bit_out;
 800a09a:	ea43 0308 	orr.w	r3, r3, r8
        for (int bit = 0; bit < 64; bit++) {
 800a09e:	2a40      	cmp	r2, #64	; 0x40
            h[byte_out] |= bitval << bit_out;
 800a0a0:	f807 3c08 	strb.w	r3, [r7, #-8]
        for (int bit = 0; bit < 64; bit++) {
 800a0a4:	d1d9      	bne.n	800a05a <bit_interleave+0x46>
 800a0a6:	466a      	mov	r2, sp
 800a0a8:	194b      	adds	r3, r1, r5
            I0[blk + i] = h[i];
 800a0aa:	f812 4b01 	ldrb.w	r4, [r2], #1
 800a0ae:	f803 4b01 	strb.w	r4, [r3], #1
        for (int i = 0; i < 8; i++) {
 800a0b2:	459c      	cmp	ip, r3
 800a0b4:	d1f9      	bne.n	800a0aa <bit_interleave+0x96>
    for (int blk = 0; blk < 200; blk += 8) {
 800a0b6:	3508      	adds	r5, #8
 800a0b8:	2dc8      	cmp	r5, #200	; 0xc8
 800a0ba:	f10c 0c08 	add.w	ip, ip, #8
 800a0be:	d1af      	bne.n	800a020 <bit_interleave+0xc>
}
 800a0c0:	b003      	add	sp, #12
 800a0c2:	e8bd 8ff0 	ldmia.w	sp!, {r4, r5, r6, r7, r8, r9, sl, fp, pc}

0800a0c6 <bit_deinterleave>:
void bit_deinterleave(const uint8_t I0[200], uint8_t s0[200]) {
 800a0c6:	e92d 4ff7 	stmdb	sp!, {r0, r1, r2, r4, r5, r6, r7, r8, r9, sl, fp, lr}
 800a0ca:	e9cd 0100 	strd	r0, r1, [sp]
    for (int blk = 0; blk < 200; blk += 8) {
 800a0ce:	2500      	movs	r5, #0
        for (int group = 0; group < 4; group++) {
 800a0d0:	9b00      	ldr	r3, [sp, #0]
void bit_deinterleave(const uint8_t I0[200], uint8_t s0[200]) {
 800a0d2:	2400      	movs	r4, #0
 800a0d4:	eb03 0c05 	add.w	ip, r3, r5
        uint64_t word = 0;
 800a0d8:	46a1      	mov	r9, r4
 800a0da:	46a0      	mov	r8, r4
            uint8_t even = I0[blk + group];     
 800a0dc:	f81c ab01 	ldrb.w	sl, [ip], #1
            uint8_t odd  = I0[blk + 4 + group];  
 800a0e0:	f89c b003 	ldrb.w	fp, [ip, #3]
 800a0e4:	4621      	mov	r1, r4
            for (int k = 0; k < 8; k++) {
 800a0e6:	2600      	movs	r6, #0
                uint8_t bit_odd  = (odd  >> k) & 1;
 800a0e8:	fa4b f006 	asr.w	r0, fp, r6
 800a0ec:	f000 0001 	and.w	r0, r0, #1
                word |= ((uint64_t)bit_odd)  << (base + 2 * k + 1);
 800a0f0:	1c4b      	adds	r3, r1, #1
 800a0f2:	f1a1 071f 	sub.w	r7, r1, #31
 800a0f6:	f1c1 021f 	rsb	r2, r1, #31
 800a0fa:	fa00 f707 	lsl.w	r7, r0, r7
 800a0fe:	fa20 f202 	lsr.w	r2, r0, r2
 800a102:	4098      	lsls	r0, r3
                uint8_t bit_even = (even >> k) & 1;
 800a104:	fa4a f306 	asr.w	r3, sl, r6
 800a108:	f003 0301 	and.w	r3, r3, #1
                word |= ((uint64_t)bit_odd)  << (base + 2 * k + 1);
 800a10c:	433a      	orrs	r2, r7
                word |= ((uint64_t)bit_even) << (base + 2 * k);
 800a10e:	f1a1 0e20 	sub.w	lr, r1, #32
 800a112:	f1c1 0720 	rsb	r7, r1, #32
 800a116:	fa03 fe0e 	lsl.w	lr, r3, lr
 800a11a:	fa23 f707 	lsr.w	r7, r3, r7
 800a11e:	ea4e 0707 	orr.w	r7, lr, r7
 800a122:	408b      	lsls	r3, r1
                word |= ((uint64_t)bit_odd)  << (base + 2 * k + 1);
 800a124:	4303      	orrs	r3, r0
 800a126:	4317      	orrs	r7, r2
            for (int k = 0; k < 8; k++) {
 800a128:	3601      	adds	r6, #1
                word |= ((uint64_t)bit_odd)  << (base + 2 * k + 1);
 800a12a:	ea43 0309 	orr.w	r3, r3, r9
 800a12e:	ea47 0708 	orr.w	r7, r7, r8
            for (int k = 0; k < 8; k++) {
 800a132:	2e08      	cmp	r6, #8
                word |= ((uint64_t)bit_odd)  << (base + 2 * k + 1);
 800a134:	4699      	mov	r9, r3
 800a136:	46b8      	mov	r8, r7
            for (int k = 0; k < 8; k++) {
 800a138:	f101 0102 	add.w	r1, r1, #2
 800a13c:	d1d4      	bne.n	800a0e8 <bit_deinterleave+0x22>
        for (int group = 0; group < 4; group++) {
 800a13e:	3410      	adds	r4, #16
 800a140:	2c40      	cmp	r4, #64	; 0x40
 800a142:	d1cb      	bne.n	800a0dc <bit_deinterleave+0x16>
 800a144:	9a01      	ldr	r2, [sp, #4]
 800a146:	1956      	adds	r6, r2, r5
 800a148:	2200      	movs	r2, #0
            s0[blk + j] = (word >> (8 * j)) & 0xFF;
 800a14a:	f1c2 0420 	rsb	r4, r2, #32
 800a14e:	f1a2 0020 	sub.w	r0, r2, #32
 800a152:	fa23 f102 	lsr.w	r1, r3, r2
 800a156:	fa07 f404 	lsl.w	r4, r7, r4
 800a15a:	4321      	orrs	r1, r4
 800a15c:	fa27 f000 	lsr.w	r0, r7, r0
 800a160:	3208      	adds	r2, #8
 800a162:	4301      	orrs	r1, r0
        for (int j = 0; j < 8; j++) {
 800a164:	2a40      	cmp	r2, #64	; 0x40
            s0[blk + j] = (word >> (8 * j)) & 0xFF;
 800a166:	f806 1b01 	strb.w	r1, [r6], #1
        for (int j = 0; j < 8; j++) {
 800a16a:	d1ee      	bne.n	800a14a <bit_deinterleave+0x84>
    for (int blk = 0; blk < 200; blk += 8) {
 800a16c:	3508      	adds	r5, #8
 800a16e:	2dc8      	cmp	r5, #200	; 0xc8
 800a170:	d1ae      	bne.n	800a0d0 <bit_deinterleave+0xa>
}
 800a172:	b003      	add	sp, #12
 800a174:	e8bd 8ff0 	ldmia.w	sp!, {r4, r5, r6, r7, r8, r9, sl, fp, pc}

0800a178 <create_state>:
// ***************************************************************************
// *************** STATE CREATION + MASKING + UNMASKING FUNCTIONS **************
// ***************************************************************************

void create_state(uint8_t* plaintext, int len)
{
 800a178:	b530      	push	{r4, r5, lr}
    int rsiz = 1600-2*mdlen; 
    int rsiz_bytes = rsiz/8; 
 
    for(i=0; i<200; i++)
    {
        s0[i] = 0;
 800a17a:	4c0e      	ldr	r4, [pc, #56]	; (800a1b4 <create_state+0x3c>)
    for(i=0; i<200; i++)
 800a17c:	2200      	movs	r2, #0
        s0[i] = 0;
 800a17e:	4615      	mov	r5, r2
 800a180:	4623      	mov	r3, r4
 800a182:	54a5      	strb	r5, [r4, r2]
    for(i=0; i<200; i++)
 800a184:	3201      	adds	r2, #1
 800a186:	2ac8      	cmp	r2, #200	; 0xc8
 800a188:	d1fb      	bne.n	800a182 <create_state+0xa>
    }


    for(i=0; i<len; i++)
 800a18a:	2200      	movs	r2, #0
 800a18c:	428a      	cmp	r2, r1
 800a18e:	db0a      	blt.n	800a1a6 <create_state+0x2e>
    {
        s0[i] ^= plaintext[i];
    }
    s0[len] ^= 0x06;
 800a190:	5c5a      	ldrb	r2, [r3, r1]
 800a192:	f082 0206 	eor.w	r2, r2, #6
 800a196:	545a      	strb	r2, [r3, r1]
    s0[(rsiz_bytes-1)] ^= 0x80;
 800a198:	f893 2047 	ldrb.w	r2, [r3, #71]	; 0x47
 800a19c:	f082 0280 	eor.w	r2, r2, #128	; 0x80
 800a1a0:	f883 2047 	strb.w	r2, [r3, #71]	; 0x47
}
 800a1a4:	bd30      	pop	{r4, r5, pc}
        s0[i] ^= plaintext[i];
 800a1a6:	5c9c      	ldrb	r4, [r3, r2]
 800a1a8:	5c85      	ldrb	r5, [r0, r2]
 800a1aa:	406c      	eors	r4, r5
 800a1ac:	549c      	strb	r4, [r3, r2]
    for(i=0; i<len; i++)
 800a1ae:	3201      	adds	r2, #1
 800a1b0:	e7ec      	b.n	800a18c <create_state+0x14>
 800a1b2:	bf00      	nop
 800a1b4:	20000b08 	.word	0x20000b08

0800a1b8 <mask_state>:

void mask_state(void)
{
 800a1b8:	b5f8      	push	{r3, r4, r5, r6, r7, lr}
    int i;
    for(i=0; i<200; i++)
    {
        s1[i] = prng_get_byte();
 800a1ba:	4e0d      	ldr	r6, [pc, #52]	; (800a1f0 <mask_state+0x38>)
        s2[i] = prng_get_byte();
 800a1bc:	4f0d      	ldr	r7, [pc, #52]	; (800a1f4 <mask_state+0x3c>)
 800a1be:	4d0e      	ldr	r5, [pc, #56]	; (800a1f8 <mask_state+0x40>)
    for(i=0; i<200; i++)
 800a1c0:	2400      	movs	r4, #0
        s1[i] = prng_get_byte();
 800a1c2:	f7ff fe1f 	bl	8009e04 <prng_get_byte>
 800a1c6:	5530      	strb	r0, [r6, r4]
        s2[i] = prng_get_byte();
 800a1c8:	f7ff fe1c 	bl	8009e04 <prng_get_byte>
 800a1cc:	5538      	strb	r0, [r7, r4]
        if(i < 16)
        {
            s0[i] = s0[i] ^ s1[i] ^ s2[i] ^ initial_mask[i];
 800a1ce:	5d2a      	ldrb	r2, [r5, r4]
 800a1d0:	5d31      	ldrb	r1, [r6, r4]
 800a1d2:	5d3b      	ldrb	r3, [r7, r4]
        if(i < 16)
 800a1d4:	2c0f      	cmp	r4, #15
            s0[i] = s0[i] ^ s1[i] ^ s2[i] ^ initial_mask[i];
 800a1d6:	ea82 0201 	eor.w	r2, r2, r1
 800a1da:	ea83 0302 	eor.w	r3, r3, r2
 800a1de:	bfde      	ittt	le
 800a1e0:	4a06      	ldrle	r2, [pc, #24]	; (800a1fc <mask_state+0x44>)
 800a1e2:	5ca2      	ldrble	r2, [r4, r2]
 800a1e4:	4053      	eorle	r3, r2
        }
        else
        {
            s0[i] = s0[i] ^ s1[i] ^ s2[i];
 800a1e6:	552b      	strb	r3, [r5, r4]
    for(i=0; i<200; i++)
 800a1e8:	3401      	adds	r4, #1
 800a1ea:	2cc8      	cmp	r4, #200	; 0xc8
 800a1ec:	d1e9      	bne.n	800a1c2 <mask_state+0xa>
        }
    }
}
 800a1ee:	bdf8      	pop	{r3, r4, r5, r6, r7, pc}
 800a1f0:	20000a40 	.word	0x20000a40
 800a1f4:	20000cd0 	.word	0x20000cd0
 800a1f8:	20000b08 	.word	0x20000b08
 800a1fc:	200007e0 	.word	0x200007e0

0800a200 <get_pt>:
{   
 800a200:	b5f8      	push	{r3, r4, r5, r6, r7, lr}
 800a202:	4604      	mov	r4, r0
    create_state(pt, len);
 800a204:	f7ff ffb8 	bl	800a178 <create_state>
    mask_state();
 800a208:	f7ff ffd6 	bl	800a1b8 <mask_state>
    bit_interleave(s0, I0);
 800a20c:	4915      	ldr	r1, [pc, #84]	; (800a264 <get_pt+0x64>)
 800a20e:	4816      	ldr	r0, [pc, #88]	; (800a268 <get_pt+0x68>)
        ISHARES[i] = I0[i];
 800a210:	4f14      	ldr	r7, [pc, #80]	; (800a264 <get_pt+0x64>)
        ISHARES[i+200] = I1[i];
 800a212:	4e16      	ldr	r6, [pc, #88]	; (800a26c <get_pt+0x6c>)
        ISHARES[i+400] = I2[i];
 800a214:	4d16      	ldr	r5, [pc, #88]	; (800a270 <get_pt+0x70>)
    bit_interleave(s0, I0);
 800a216:	f7ff fefd 	bl	800a014 <bit_interleave>
    bit_interleave(s1, I1);
 800a21a:	4914      	ldr	r1, [pc, #80]	; (800a26c <get_pt+0x6c>)
 800a21c:	4815      	ldr	r0, [pc, #84]	; (800a274 <get_pt+0x74>)
 800a21e:	f7ff fef9 	bl	800a014 <bit_interleave>
    bit_interleave(s2, I2);
 800a222:	4913      	ldr	r1, [pc, #76]	; (800a270 <get_pt+0x70>)
 800a224:	4814      	ldr	r0, [pc, #80]	; (800a278 <get_pt+0x78>)
 800a226:	f7ff fef5 	bl	800a014 <bit_interleave>
        ISHARES[i] = I0[i];
 800a22a:	4a14      	ldr	r2, [pc, #80]	; (800a27c <get_pt+0x7c>)
    for(i=0; i<200; i++)
 800a22c:	2300      	movs	r3, #0
        ISHARES[i] = I0[i];
 800a22e:	5cf9      	ldrb	r1, [r7, r3]
 800a230:	b2c9      	uxtb	r1, r1
 800a232:	54d1      	strb	r1, [r2, r3]
        ISHARES[i+200] = I1[i];
 800a234:	5cf1      	ldrb	r1, [r6, r3]
 800a236:	f103 00c8 	add.w	r0, r3, #200	; 0xc8
 800a23a:	b2c9      	uxtb	r1, r1
 800a23c:	5411      	strb	r1, [r2, r0]
        ISHARES[i+400] = I2[i];
 800a23e:	5ce9      	ldrb	r1, [r5, r3]
 800a240:	f503 70c8 	add.w	r0, r3, #400	; 0x190
    for(i=0; i<200; i++)
 800a244:	3301      	adds	r3, #1
        ISHARES[i+400] = I2[i];
 800a246:	b2c9      	uxtb	r1, r1
    for(i=0; i<200; i++)
 800a248:	2bc8      	cmp	r3, #200	; 0xc8
        ISHARES[i+400] = I2[i];
 800a24a:	5411      	strb	r1, [r2, r0]
    for(i=0; i<200; i++)
 800a24c:	d1ef      	bne.n	800a22e <get_pt+0x2e>
    KeccakF1600_StatePermute(ISHARES);
 800a24e:	480b      	ldr	r0, [pc, #44]	; (800a27c <get_pt+0x7c>)
 800a250:	f7f6 f856 	bl	8000300 <KeccakF1600_StatePermute>
    simpleserial_put('r', 16, pt); 
 800a254:	4622      	mov	r2, r4
 800a256:	2110      	movs	r1, #16
 800a258:	2072      	movs	r0, #114	; 0x72
 800a25a:	f000 fb9f 	bl	800a99c <simpleserial_put>
}
 800a25e:	2000      	movs	r0, #0
 800a260:	bdf8      	pop	{r3, r4, r5, r6, r7, pc}
 800a262:	bf00      	nop
 800a264:	20000bd0 	.word	0x20000bd0
 800a268:	20000b08 	.word	0x20000b08
 800a26c:	200008b0 	.word	0x200008b0
 800a270:	200001b0 	.word	0x200001b0
 800a274:	20000a40 	.word	0x20000a40
 800a278:	20000cd0 	.word	0x20000cd0
 800a27c:	2000027c 	.word	0x2000027c

0800a280 <unmask_state>:

void unmask_state(void)
{
 800a280:	b5f0      	push	{r4, r5, r6, r7, lr}
 800a282:	4808      	ldr	r0, [pc, #32]	; (800a2a4 <unmask_state+0x24>)
    int i;
    for(i=0; i<200; i++)
    {
        rec[i] = s0[i] ^ s1[i] ^ s2[i]; 
 800a284:	4f08      	ldr	r7, [pc, #32]	; (800a2a8 <unmask_state+0x28>)
 800a286:	4e09      	ldr	r6, [pc, #36]	; (800a2ac <unmask_state+0x2c>)
 800a288:	4d09      	ldr	r5, [pc, #36]	; (800a2b0 <unmask_state+0x30>)
    for(i=0; i<200; i++)
 800a28a:	2300      	movs	r3, #0
        rec[i] = s0[i] ^ s1[i] ^ s2[i]; 
 800a28c:	5cf9      	ldrb	r1, [r7, r3]
 800a28e:	5cf4      	ldrb	r4, [r6, r3]
 800a290:	5cea      	ldrb	r2, [r5, r3]
 800a292:	4061      	eors	r1, r4
    for(i=0; i<200; i++)
 800a294:	3301      	adds	r3, #1
        rec[i] = s0[i] ^ s1[i] ^ s2[i]; 
 800a296:	404a      	eors	r2, r1
    for(i=0; i<200; i++)
 800a298:	2bc8      	cmp	r3, #200	; 0xc8
        rec[i] = s0[i] ^ s1[i] ^ s2[i]; 
 800a29a:	f800 2b01 	strb.w	r2, [r0], #1
    for(i=0; i<200; i++)
 800a29e:	d1f5      	bne.n	800a28c <unmask_state+0xc>
    }
}
 800a2a0:	bdf0      	pop	{r4, r5, r6, r7, pc}
 800a2a2:	bf00      	nop
 800a2a4:	20000d9c 	.word	0x20000d9c
 800a2a8:	20000b08 	.word	0x20000b08
 800a2ac:	20000a40 	.word	0x20000a40
 800a2b0:	20000cd0 	.word	0x20000cd0

0800a2b4 <get_res>:
{   
 800a2b4:	b5f7      	push	{r0, r1, r2, r4, r5, r6, r7, lr}
 800a2b6:	4605      	mov	r5, r0
        I0[i] = ISHARES[i+0];
 800a2b8:	4922      	ldr	r1, [pc, #136]	; (800a344 <get_res+0x90>)
 800a2ba:	4e23      	ldr	r6, [pc, #140]	; (800a348 <get_res+0x94>)
        I1[i] = ISHARES[i+200];
 800a2bc:	4c23      	ldr	r4, [pc, #140]	; (800a34c <get_res+0x98>)
        I2[i] = ISHARES[i+400];
 800a2be:	4824      	ldr	r0, [pc, #144]	; (800a350 <get_res+0x9c>)
    for(i=0; i<200; i++)
 800a2c0:	2300      	movs	r3, #0
        I0[i] = ISHARES[i+0];
 800a2c2:	5cca      	ldrb	r2, [r1, r3]
 800a2c4:	b2d2      	uxtb	r2, r2
 800a2c6:	54f2      	strb	r2, [r6, r3]
        I1[i] = ISHARES[i+200];
 800a2c8:	f103 02c8 	add.w	r2, r3, #200	; 0xc8
 800a2cc:	5c8a      	ldrb	r2, [r1, r2]
 800a2ce:	b2d2      	uxtb	r2, r2
 800a2d0:	54e2      	strb	r2, [r4, r3]
        I2[i] = ISHARES[i+400];
 800a2d2:	f503 72c8 	add.w	r2, r3, #400	; 0x190
 800a2d6:	5c8a      	ldrb	r2, [r1, r2]
 800a2d8:	b2d2      	uxtb	r2, r2
 800a2da:	54c2      	strb	r2, [r0, r3]
    for(i=0; i<200; i++)
 800a2dc:	3301      	adds	r3, #1
 800a2de:	2bc8      	cmp	r3, #200	; 0xc8
 800a2e0:	d1ef      	bne.n	800a2c2 <get_res+0xe>
    bit_deinterleave(I0,s0);
 800a2e2:	491c      	ldr	r1, [pc, #112]	; (800a354 <get_res+0xa0>)
 800a2e4:	4818      	ldr	r0, [pc, #96]	; (800a348 <get_res+0x94>)
 800a2e6:	4f1c      	ldr	r7, [pc, #112]	; (800a358 <get_res+0xa4>)
 800a2e8:	f7ff feed 	bl	800a0c6 <bit_deinterleave>
    bit_deinterleave(I1,s1);
 800a2ec:	491b      	ldr	r1, [pc, #108]	; (800a35c <get_res+0xa8>)
 800a2ee:	4817      	ldr	r0, [pc, #92]	; (800a34c <get_res+0x98>)
 800a2f0:	f7ff fee9 	bl	800a0c6 <bit_deinterleave>
    bit_deinterleave(I2,s2);
 800a2f4:	491a      	ldr	r1, [pc, #104]	; (800a360 <get_res+0xac>)
 800a2f6:	4816      	ldr	r0, [pc, #88]	; (800a350 <get_res+0x9c>)
 800a2f8:	f7ff fee5 	bl	800a0c6 <bit_deinterleave>
    unmask_state();
 800a2fc:	f7ff ffc0 	bl	800a280 <unmask_state>
    for(i=0;i<25;i++)
 800a300:	4818      	ldr	r0, [pc, #96]	; (800a364 <get_res+0xb0>)
    unmask_state();
 800a302:	2300      	movs	r3, #0
 800a304:	4602      	mov	r2, r0
        for(j=0;j<8;j++)
 800a306:	19de      	adds	r6, r3, r7
 800a308:	1819      	adds	r1, r3, r0
 800a30a:	2400      	movs	r4, #0
 800a30c:	3401      	adds	r4, #1
            bytes_st[i][j] = rec[0+8*i+j];
 800a30e:	f816 cb01 	ldrb.w	ip, [r6], #1
 800a312:	f801 cb01 	strb.w	ip, [r1], #1
        for(j=0;j<8;j++)
 800a316:	2c08      	cmp	r4, #8
 800a318:	d1f8      	bne.n	800a30c <get_res+0x58>
    for(i=0;i<25;i++)
 800a31a:	3308      	adds	r3, #8
 800a31c:	2bc8      	cmp	r3, #200	; 0xc8
 800a31e:	d1f2      	bne.n	800a306 <get_res+0x52>
    for(j=0;j<8;j++)
 800a320:	782b      	ldrb	r3, [r5, #0]
 800a322:	4669      	mov	r1, sp
 800a324:	eb02 03c3 	add.w	r3, r2, r3, lsl #3
 800a328:	460a      	mov	r2, r1
        bytes_st_msg[j] = bytes_st[i][j];
 800a32a:	f813 0b01 	ldrb.w	r0, [r3], #1
 800a32e:	f801 0b01 	strb.w	r0, [r1], #1
    for(j=0;j<8;j++)
 800a332:	3c01      	subs	r4, #1
 800a334:	d1f9      	bne.n	800a32a <get_res+0x76>
    simpleserial_put('m', 8, bytes_st_msg);
 800a336:	2108      	movs	r1, #8
 800a338:	206d      	movs	r0, #109	; 0x6d
 800a33a:	f000 fb2f 	bl	800a99c <simpleserial_put>
}
 800a33e:	4620      	mov	r0, r4
 800a340:	b003      	add	sp, #12
 800a342:	bdf0      	pop	{r4, r5, r6, r7, pc}
 800a344:	2000027c 	.word	0x2000027c
 800a348:	20000bd0 	.word	0x20000bd0
 800a34c:	200008b0 	.word	0x200008b0
 800a350:	200001b0 	.word	0x200001b0
 800a354:	20000b08 	.word	0x20000b08
 800a358:	20000d9c 	.word	0x20000d9c
 800a35c:	20000a40 	.word	0x20000a40
 800a360:	20000cd0 	.word	0x20000cd0
 800a364:	200007e2 	.word	0x200007e2

0800a368 <main>:
// ***************************************************************************
// ************************************ MAIN *********************************
// ***************************************************************************

int main(void) 
{
 800a368:	b508      	push	{r3, lr}
    platform_init();
 800a36a:	f000 f83b 	bl	800a3e4 <platform_init>
    init_uart();
 800a36e:	f000 f879 	bl	800a464 <init_uart>
    trigger_setup();
 800a372:	f000 f8b5 	bl	800a4e0 <trigger_setup>
    simpleserial_init();        
 800a376:	f000 fa97 	bl	800a8a8 <simpleserial_init>
    simpleserial_addcmd('p', 16,  get_pt);
 800a37a:	4a13      	ldr	r2, [pc, #76]	; (800a3c8 <main+0x60>)
 800a37c:	2110      	movs	r1, #16
 800a37e:	2070      	movs	r0, #112	; 0x70
 800a380:	f000 fa8e 	bl	800a8a0 <simpleserial_addcmd>
    simpleserial_addcmd('r', 16, get_res);
 800a384:	4a11      	ldr	r2, [pc, #68]	; (800a3cc <main+0x64>)
 800a386:	2110      	movs	r1, #16
 800a388:	2072      	movs	r0, #114	; 0x72
 800a38a:	f000 fa89 	bl	800a8a0 <simpleserial_addcmd>
    simpleserial_addcmd('s', 16, get_seed);
 800a38e:	4a10      	ldr	r2, [pc, #64]	; (800a3d0 <main+0x68>)
 800a390:	2110      	movs	r1, #16
 800a392:	2073      	movs	r0, #115	; 0x73
 800a394:	f000 fa84 	bl	800a8a0 <simpleserial_addcmd>
    simpleserial_addcmd('k', 16, get_mask);
 800a398:	4a0e      	ldr	r2, [pc, #56]	; (800a3d4 <main+0x6c>)
 800a39a:	2110      	movs	r1, #16
 800a39c:	206b      	movs	r0, #107	; 0x6b
 800a39e:	f000 fa7f 	bl	800a8a0 <simpleserial_addcmd>
    simpleserial_addcmd('c', 1, get_cycles);
 800a3a2:	4a0d      	ldr	r2, [pc, #52]	; (800a3d8 <main+0x70>)
 800a3a4:	2101      	movs	r1, #1
 800a3a6:	2063      	movs	r0, #99	; 0x63
 800a3a8:	f000 fa7a 	bl	800a8a0 <simpleserial_addcmd>
    simpleserial_addcmd('g', 16, get_registers);
 800a3ac:	4a0b      	ldr	r2, [pc, #44]	; (800a3dc <main+0x74>)
 800a3ae:	2110      	movs	r1, #16
 800a3b0:	2067      	movs	r0, #103	; 0x67
 800a3b2:	f000 fa75 	bl	800a8a0 <simpleserial_addcmd>
    simpleserial_addcmd('d', 16, get_round);
 800a3b6:	4a0a      	ldr	r2, [pc, #40]	; (800a3e0 <main+0x78>)
 800a3b8:	2110      	movs	r1, #16
 800a3ba:	2064      	movs	r0, #100	; 0x64
 800a3bc:	f000 fa70 	bl	800a8a0 <simpleserial_addcmd>

    while(1)
    {
        simpleserial_get();
 800a3c0:	f000 fa8a 	bl	800a8d8 <simpleserial_get>
    while(1)
 800a3c4:	e7fc      	b.n	800a3c0 <main+0x58>
 800a3c6:	bf00      	nop
 800a3c8:	0800a201 	.word	0x0800a201
 800a3cc:	0800a2b5 	.word	0x0800a2b5
 800a3d0:	08009db5 	.word	0x08009db5
 800a3d4:	08009c6d 	.word	0x08009c6d
 800a3d8:	08009cdd 	.word	0x08009cdd
 800a3dc:	08009c95 	.word	0x08009c95
 800a3e0:	08009d09 	.word	0x08009d09

0800a3e4 <platform_init>:

UART_HandleTypeDef UartHandle;


void platform_init(void)
{
 800a3e4:	b570      	push	{r4, r5, r6, lr}
 800a3e6:	b096      	sub	sp, #88	; 0x58
     HAL_RCC_ClockConfig(&RCC_ClkInitStruct, flash_latency);
  #else
     RCC_OscInitTypeDef RCC_OscInitStruct;
     RCC_OscInitStruct.OscillatorType = RCC_OSCILLATORTYPE_HSE | RCC_OSCILLATORTYPE_HSI;
     RCC_OscInitStruct.HSEState       = RCC_HSE_BYPASS;
     RCC_OscInitStruct.HSIState       = RCC_HSI_OFF;
 800a3e8:	2400      	movs	r4, #0
     RCC_OscInitStruct.HSEState       = RCC_HSE_BYPASS;
 800a3ea:	2603      	movs	r6, #3
 800a3ec:	f44f 23a0 	mov.w	r3, #327680	; 0x50000
     RCC_OscInitStruct.PLL.PLLSource  = RCC_PLL_NONE;
     HAL_RCC_OscConfig(&RCC_OscInitStruct);
 800a3f0:	a80c      	add	r0, sp, #48	; 0x30

     RCC_ClkInitTypeDef RCC_ClkInitStruct;
     RCC_ClkInitStruct.ClockType      = (RCC_CLOCKTYPE_SYSCLK | RCC_CLOCKTYPE_HCLK | RCC_CLOCKTYPE_PCLK1 | RCC_CLOCKTYPE_PCLK2);
     RCC_ClkInitStruct.SYSCLKSource   = RCC_SYSCLKSOURCE_HSE;
 800a3f2:	2501      	movs	r5, #1
     RCC_OscInitStruct.HSEState       = RCC_HSE_BYPASS;
 800a3f4:	e9cd 630c 	strd	r6, r3, [sp, #48]	; 0x30
     RCC_OscInitStruct.HSIState       = RCC_HSI_OFF;
 800a3f8:	9410      	str	r4, [sp, #64]	; 0x40
     RCC_OscInitStruct.PLL.PLLSource  = RCC_PLL_NONE;
 800a3fa:	9414      	str	r4, [sp, #80]	; 0x50
     HAL_RCC_OscConfig(&RCC_OscInitStruct);
 800a3fc:	f000 fada 	bl	800a9b4 <HAL_RCC_OscConfig>
     RCC_ClkInitStruct.SYSCLKSource   = RCC_SYSCLKSOURCE_HSE;
 800a400:	230f      	movs	r3, #15
     RCC_ClkInitStruct.AHBCLKDivider  = RCC_SYSCLK_DIV1;
     RCC_ClkInitStruct.APB1CLKDivider = RCC_HCLK_DIV1;
     RCC_ClkInitStruct.APB2CLKDivider = RCC_HCLK_DIV1;
     uint32_t flash_latency = 0;
     HAL_RCC_ClockConfig(&RCC_ClkInitStruct, flash_latency);
 800a402:	4621      	mov	r1, r4
 800a404:	a802      	add	r0, sp, #8
     RCC_ClkInitStruct.SYSCLKSource   = RCC_SYSCLKSOURCE_HSE;
 800a406:	e9cd 3502 	strd	r3, r5, [sp, #8]
     RCC_ClkInitStruct.APB1CLKDivider = RCC_HCLK_DIV1;
 800a40a:	e9cd 4404 	strd	r4, r4, [sp, #16]
     RCC_ClkInitStruct.APB2CLKDivider = RCC_HCLK_DIV1;
 800a40e:	9406      	str	r4, [sp, #24]
     HAL_RCC_ClockConfig(&RCC_ClkInitStruct, flash_latency);
 800a410:	f000 fd38 	bl	800ae84 <HAL_RCC_ClockConfig>




#if (PLATFORM==CWLITEARM)
  __HAL_RCC_GPIOC_CLK_ENABLE();
 800a414:	4b11      	ldr	r3, [pc, #68]	; (800a45c <platform_init+0x78>)
 800a416:	695a      	ldr	r2, [r3, #20]
 800a418:	f442 2200 	orr.w	r2, r2, #524288	; 0x80000
 800a41c:	615a      	str	r2, [r3, #20]
 800a41e:	695b      	ldr	r3, [r3, #20]
  GPIO_InitTypeDef GpioInit;
  GpioInit.Pin       = GPIO_PIN_13 | GPIO_PIN_14;
  GpioInit.Mode      = GPIO_MODE_OUTPUT_PP;
  GpioInit.Pull      = GPIO_NOPULL;
  GpioInit.Speed     = GPIO_SPEED_FREQ_HIGH;
 800a420:	e9cd 4609 	strd	r4, r6, [sp, #36]	; 0x24
  __HAL_RCC_GPIOC_CLK_ENABLE();
 800a424:	f403 2300 	and.w	r3, r3, #524288	; 0x80000
  HAL_GPIO_Init(GPIOC, &GpioInit);
 800a428:	4c0d      	ldr	r4, [pc, #52]	; (800a460 <platform_init+0x7c>)
  __HAL_RCC_GPIOC_CLK_ENABLE();
 800a42a:	9301      	str	r3, [sp, #4]
 800a42c:	9b01      	ldr	r3, [sp, #4]
  HAL_GPIO_Init(GPIOC, &GpioInit);
 800a42e:	a907      	add	r1, sp, #28
  GpioInit.Pin       = GPIO_PIN_13 | GPIO_PIN_14;
 800a430:	f44f 43c0 	mov.w	r3, #24576	; 0x6000
  HAL_GPIO_Init(GPIOC, &GpioInit);
 800a434:	4620      	mov	r0, r4
  GpioInit.Mode      = GPIO_MODE_OUTPUT_PP;
 800a436:	e9cd 3507 	strd	r3, r5, [sp, #28]
  HAL_GPIO_Init(GPIOC, &GpioInit);
 800a43a:	f000 f89f 	bl	800a57c <HAL_GPIO_Init>

  HAL_GPIO_WritePin(GPIOC, GPIO_PIN_13, SET);
 800a43e:	462a      	mov	r2, r5
 800a440:	4620      	mov	r0, r4
 800a442:	f44f 5100 	mov.w	r1, #8192	; 0x2000
 800a446:	f000 f95f 	bl	800a708 <HAL_GPIO_WritePin>
  HAL_GPIO_WritePin(GPIOC, GPIO_PIN_14, SET);
 800a44a:	462a      	mov	r2, r5
 800a44c:	f44f 4180 	mov.w	r1, #16384	; 0x4000
 800a450:	4620      	mov	r0, r4
 800a452:	f000 f959 	bl	800a708 <HAL_GPIO_WritePin>
#endif
}
 800a456:	b016      	add	sp, #88	; 0x58
 800a458:	bd70      	pop	{r4, r5, r6, pc}
 800a45a:	bf00      	nop
 800a45c:	40021000 	.word	0x40021000
 800a460:	48000800 	.word	0x48000800

0800a464 <init_uart>:

void init_uart(void)
{
 800a464:	b510      	push	{r4, lr}
  GPIO_InitTypeDef GpioInit;
  GpioInit.Pin       = GPIO_PIN_9 | GPIO_PIN_10;
  GpioInit.Mode      = GPIO_MODE_AF_PP;
 800a466:	f44f 62c0 	mov.w	r2, #1536	; 0x600
{
 800a46a:	b088      	sub	sp, #32
  GpioInit.Mode      = GPIO_MODE_AF_PP;
 800a46c:	2302      	movs	r3, #2
 800a46e:	e9cd 2303 	strd	r2, r3, [sp, #12]
  GpioInit.Pull      = GPIO_PULLUP;
  GpioInit.Speed     = GPIO_SPEED_FREQ_HIGH;
 800a472:	2101      	movs	r1, #1
 800a474:	2303      	movs	r3, #3
 800a476:	e9cd 1305 	strd	r1, r3, [sp, #20]
  GpioInit.Alternate = GPIO_AF7_USART1;
  __GPIOA_CLK_ENABLE();
 800a47a:	4c16      	ldr	r4, [pc, #88]	; (800a4d4 <init_uart+0x70>)
  GpioInit.Alternate = GPIO_AF7_USART1;
 800a47c:	2307      	movs	r3, #7
 800a47e:	9307      	str	r3, [sp, #28]
  __GPIOA_CLK_ENABLE();
 800a480:	6963      	ldr	r3, [r4, #20]
 800a482:	f443 3300 	orr.w	r3, r3, #131072	; 0x20000
 800a486:	6163      	str	r3, [r4, #20]
 800a488:	6963      	ldr	r3, [r4, #20]
 800a48a:	f403 3300 	and.w	r3, r3, #131072	; 0x20000
 800a48e:	9301      	str	r3, [sp, #4]
  HAL_GPIO_Init(GPIOA, &GpioInit);
 800a490:	a903      	add	r1, sp, #12
 800a492:	f04f 4090 	mov.w	r0, #1207959552	; 0x48000000
  __GPIOA_CLK_ENABLE();
 800a496:	9b01      	ldr	r3, [sp, #4]
  HAL_GPIO_Init(GPIOA, &GpioInit);
 800a498:	f000 f870 	bl	800a57c <HAL_GPIO_Init>

  UartHandle.Instance        = USART1;
 800a49c:	480e      	ldr	r0, [pc, #56]	; (800a4d8 <init_uart+0x74>)
  #if SS_VER==SS_VER_2_1
  UartHandle.Init.BaudRate   = 230400;
  #else
  UartHandle.Init.BaudRate   = 38400;
 800a49e:	f8df c03c 	ldr.w	ip, [pc, #60]	; 800a4dc <init_uart+0x78>
 800a4a2:	f44f 4316 	mov.w	r3, #38400	; 0x9600
 800a4a6:	e9c0 c300 	strd	ip, r3, [r0]
  #endif
  UartHandle.Init.WordLength = UART_WORDLENGTH_8B;
 800a4aa:	2300      	movs	r3, #0
  UartHandle.Init.StopBits   = UART_STOPBITS_1;
 800a4ac:	e9c0 3302 	strd	r3, r3, [r0, #8]
  UartHandle.Init.Parity     = UART_PARITY_NONE;
 800a4b0:	6103      	str	r3, [r0, #16]
  UartHandle.Init.HwFlowCtl  = UART_HWCONTROL_NONE;
 800a4b2:	6183      	str	r3, [r0, #24]
  UartHandle.Init.Mode       = UART_MODE_TX_RX;
 800a4b4:	230c      	movs	r3, #12
 800a4b6:	6143      	str	r3, [r0, #20]
  __USART1_CLK_ENABLE();
 800a4b8:	69a3      	ldr	r3, [r4, #24]
 800a4ba:	f443 4380 	orr.w	r3, r3, #16384	; 0x4000
 800a4be:	61a3      	str	r3, [r4, #24]
 800a4c0:	69a3      	ldr	r3, [r4, #24]
 800a4c2:	f403 4380 	and.w	r3, r3, #16384	; 0x4000
 800a4c6:	9302      	str	r3, [sp, #8]
 800a4c8:	9b02      	ldr	r3, [sp, #8]
  HAL_UART_Init(&UartHandle);
 800a4ca:	f000 fecf 	bl	800b26c <HAL_UART_Init>
}
 800a4ce:	b008      	add	sp, #32
 800a4d0:	bd10      	pop	{r4, pc}
 800a4d2:	bf00      	nop
 800a4d4:	40021000 	.word	0x40021000
 800a4d8:	20000e64 	.word	0x20000e64
 800a4dc:	40013800 	.word	0x40013800

0800a4e0 <trigger_setup>:

void trigger_setup(void)
{
  __HAL_RCC_GPIOA_CLK_ENABLE();
 800a4e0:	4b10      	ldr	r3, [pc, #64]	; (800a524 <trigger_setup+0x44>)
{
 800a4e2:	b530      	push	{r4, r5, lr}
  __HAL_RCC_GPIOA_CLK_ENABLE();
 800a4e4:	695a      	ldr	r2, [r3, #20]
 800a4e6:	f442 3200 	orr.w	r2, r2, #131072	; 0x20000
 800a4ea:	615a      	str	r2, [r3, #20]
 800a4ec:	695b      	ldr	r3, [r3, #20]
{
 800a4ee:	b087      	sub	sp, #28
  __HAL_RCC_GPIOA_CLK_ENABLE();
 800a4f0:	f403 3300 	and.w	r3, r3, #131072	; 0x20000
 800a4f4:	9300      	str	r3, [sp, #0]
 800a4f6:	9b00      	ldr	r3, [sp, #0]

  GPIO_InitTypeDef GpioInit;
  GpioInit.Pin       = GPIO_PIN_12;
  GpioInit.Mode      = GPIO_MODE_OUTPUT_PP;
 800a4f8:	f44f 5480 	mov.w	r4, #4096	; 0x1000
 800a4fc:	2301      	movs	r3, #1
 800a4fe:	e9cd 4301 	strd	r4, r3, [sp, #4]
  GpioInit.Pull      = GPIO_NOPULL;
  GpioInit.Speed     = GPIO_SPEED_FREQ_HIGH;
 800a502:	2500      	movs	r5, #0
 800a504:	2303      	movs	r3, #3
  HAL_GPIO_Init(GPIOA, &GpioInit);
 800a506:	a901      	add	r1, sp, #4
 800a508:	f04f 4090 	mov.w	r0, #1207959552	; 0x48000000
  GpioInit.Speed     = GPIO_SPEED_FREQ_HIGH;
 800a50c:	e9cd 5303 	strd	r5, r3, [sp, #12]
  HAL_GPIO_Init(GPIOA, &GpioInit);
 800a510:	f000 f834 	bl	800a57c <HAL_GPIO_Init>

  HAL_GPIO_WritePin(GPIOA, GPIO_PIN_12, RESET);
 800a514:	462a      	mov	r2, r5
 800a516:	4621      	mov	r1, r4
 800a518:	f04f 4090 	mov.w	r0, #1207959552	; 0x48000000
 800a51c:	f000 f8f4 	bl	800a708 <HAL_GPIO_WritePin>
}
 800a520:	b007      	add	sp, #28
 800a522:	bd30      	pop	{r4, r5, pc}
 800a524:	40021000 	.word	0x40021000

0800a528 <getch>:
{
  HAL_GPIO_WritePin(GPIOA, GPIO_PIN_12, RESET);
}

char getch(void)
{
 800a528:	b537      	push	{r0, r1, r2, r4, r5, lr}
  uint8_t d;
  while (HAL_UART_Receive(&UartHandle, &d, 1, 5000) != HAL_OK)
 800a52a:	4d0a      	ldr	r5, [pc, #40]	; (800a554 <getch+0x2c>)
    USART1->ICR |= (1 << 3);
 800a52c:	4c0a      	ldr	r4, [pc, #40]	; (800a558 <getch+0x30>)
  while (HAL_UART_Receive(&UartHandle, &d, 1, 5000) != HAL_OK)
 800a52e:	f241 3388 	movw	r3, #5000	; 0x1388
 800a532:	2201      	movs	r2, #1
 800a534:	f10d 0107 	add.w	r1, sp, #7
 800a538:	4628      	mov	r0, r5
 800a53a:	f000 ff18 	bl	800b36e <HAL_UART_Receive>
 800a53e:	b918      	cbnz	r0, 800a548 <getch+0x20>
  //putch(d);
  return d;
}
 800a540:	f89d 0007 	ldrb.w	r0, [sp, #7]
 800a544:	b003      	add	sp, #12
 800a546:	bd30      	pop	{r4, r5, pc}
    USART1->ICR |= (1 << 3);
 800a548:	6a23      	ldr	r3, [r4, #32]
 800a54a:	f043 0308 	orr.w	r3, r3, #8
 800a54e:	6223      	str	r3, [r4, #32]
 800a550:	e7ed      	b.n	800a52e <getch+0x6>
 800a552:	bf00      	nop
 800a554:	20000e64 	.word	0x20000e64
 800a558:	40013800 	.word	0x40013800

0800a55c <putch>:

void putch(char c)
{
 800a55c:	b507      	push	{r0, r1, r2, lr}
  uint8_t d  = c;
  HAL_UART_Transmit(&UartHandle,  &d, 1, 5000);
 800a55e:	f241 3388 	movw	r3, #5000	; 0x1388
  uint8_t d  = c;
 800a562:	f88d 0007 	strb.w	r0, [sp, #7]
  HAL_UART_Transmit(&UartHandle,  &d, 1, 5000);
 800a566:	2201      	movs	r2, #1
 800a568:	f10d 0107 	add.w	r1, sp, #7
 800a56c:	4802      	ldr	r0, [pc, #8]	; (800a578 <putch+0x1c>)
 800a56e:	f000 fea8 	bl	800b2c2 <HAL_UART_Transmit>
}
 800a572:	b003      	add	sp, #12
 800a574:	f85d fb04 	ldr.w	pc, [sp], #4
 800a578:	20000e64 	.word	0x20000e64

0800a57c <HAL_GPIO_Init>:
  * @param  GPIO_Init pointer to a GPIO_InitTypeDef structure that contains
  *         the configuration information for the specified GPIO peripheral.
  * @retval None
  */
void HAL_GPIO_Init(GPIO_TypeDef  *GPIOx, GPIO_InitTypeDef *GPIO_Init)
{
 800a57c:	e92d 4ff7 	stmdb	sp!, {r0, r1, r2, r4, r5, r6, r7, r8, r9, sl, fp, lr}
      /*--------------------- EXTI Mode Configuration ------------------------*/
      /* Configure the External Interrupt or event for the current IO */
      if((GPIO_Init->Mode & EXTI_MODE) != 0x00u)
      {
        /* Enable SYSCFG Clock */
        __HAL_RCC_SYSCFG_CLK_ENABLE();
 800a580:	f8df 9180 	ldr.w	r9, [pc, #384]	; 800a704 <HAL_GPIO_Init+0x188>
        temp &= ~(0x0FuL << (4u * (position & 0x03u)));
        temp |= (GPIO_GET_INDEX(GPIOx) << (4u * (position & 0x03u)));
        SYSCFG->EXTICR[position >> 2u] = temp;

        /* Clear Rising Falling edge configuration */
        temp = EXTI->RTSR;
 800a584:	4c5d      	ldr	r4, [pc, #372]	; (800a6fc <HAL_GPIO_Init+0x180>)
  uint32_t position = 0x00u;
 800a586:	2300      	movs	r3, #0
  while (((GPIO_Init->Pin) >> position) != 0x00u)
 800a588:	680a      	ldr	r2, [r1, #0]
 800a58a:	fa32 f503 	lsrs.w	r5, r2, r3
 800a58e:	d102      	bne.n	800a596 <HAL_GPIO_Init+0x1a>
      }
    }

    position++;
  }
}
 800a590:	b003      	add	sp, #12
 800a592:	e8bd 8ff0 	ldmia.w	sp!, {r4, r5, r6, r7, r8, r9, sl, fp, pc}
    iocurrent = (GPIO_Init->Pin) & (1uL << position);
 800a596:	2501      	movs	r5, #1
 800a598:	fa05 fe03 	lsl.w	lr, r5, r3
    if (iocurrent != 0x00u)
 800a59c:	ea1e 0202 	ands.w	r2, lr, r2
 800a5a0:	f000 80a1 	beq.w	800a6e6 <HAL_GPIO_Init+0x16a>
      if(((GPIO_Init->Mode & GPIO_MODE) == MODE_OUTPUT) || ((GPIO_Init->Mode & GPIO_MODE) == MODE_AF))
 800a5a4:	684e      	ldr	r6, [r1, #4]
 800a5a6:	2703      	movs	r7, #3
 800a5a8:	f006 0503 	and.w	r5, r6, #3
 800a5ac:	ea4f 0843 	mov.w	r8, r3, lsl #1
 800a5b0:	fa07 fc08 	lsl.w	ip, r7, r8
 800a5b4:	1e6f      	subs	r7, r5, #1
 800a5b6:	2f01      	cmp	r7, #1
 800a5b8:	ea6f 0c0c 	mvn.w	ip, ip
 800a5bc:	d834      	bhi.n	800a628 <HAL_GPIO_Init+0xac>
        temp = GPIOx->OSPEEDR;
 800a5be:	6887      	ldr	r7, [r0, #8]
        temp &= ~(GPIO_OSPEEDER_OSPEEDR0 << (position * 2u));
 800a5c0:	ea07 0a0c 	and.w	sl, r7, ip
        temp |= (GPIO_Init->Speed << (position * 2u));
 800a5c4:	68cf      	ldr	r7, [r1, #12]
 800a5c6:	fa07 f708 	lsl.w	r7, r7, r8
 800a5ca:	ea47 070a 	orr.w	r7, r7, sl
        GPIOx->OSPEEDR = temp;
 800a5ce:	6087      	str	r7, [r0, #8]
        temp = GPIOx->OTYPER;
 800a5d0:	6847      	ldr	r7, [r0, #4]
        temp &= ~(GPIO_OTYPER_OT_0 << position) ;
 800a5d2:	ea27 0e0e 	bic.w	lr, r7, lr
        temp |= (((GPIO_Init->Mode & OUTPUT_TYPE) >> OUTPUT_TYPE_Pos) << position);
 800a5d6:	f3c6 1700 	ubfx	r7, r6, #4, #1
 800a5da:	409f      	lsls	r7, r3
 800a5dc:	ea47 070e 	orr.w	r7, r7, lr
        GPIOx->OTYPER = temp;
 800a5e0:	6047      	str	r7, [r0, #4]
        temp = GPIOx->PUPDR;
 800a5e2:	68c7      	ldr	r7, [r0, #12]
        temp &= ~(GPIO_PUPDR_PUPDR0 << (position * 2u));
 800a5e4:	ea07 0e0c 	and.w	lr, r7, ip
        temp |= ((GPIO_Init->Pull) << (position * 2u));
 800a5e8:	688f      	ldr	r7, [r1, #8]
 800a5ea:	fa07 f708 	lsl.w	r7, r7, r8
 800a5ee:	ea47 070e 	orr.w	r7, r7, lr
      if((GPIO_Init->Mode & GPIO_MODE) == MODE_AF)
 800a5f2:	2d02      	cmp	r5, #2
        GPIOx->PUPDR = temp;
 800a5f4:	60c7      	str	r7, [r0, #12]
      if((GPIO_Init->Mode & GPIO_MODE) == MODE_AF)
 800a5f6:	d119      	bne.n	800a62c <HAL_GPIO_Init+0xb0>
        temp = GPIOx->AFR[position >> 3u];
 800a5f8:	ea4f 0ad3 	mov.w	sl, r3, lsr #3
 800a5fc:	eb00 0a8a 	add.w	sl, r0, sl, lsl #2
        temp &= ~(0xFu << ((position & 0x07u) * 4u));
 800a600:	f003 0b07 	and.w	fp, r3, #7
        temp = GPIOx->AFR[position >> 3u];
 800a604:	f8da 7020 	ldr.w	r7, [sl, #32]
        temp &= ~(0xFu << ((position & 0x07u) * 4u));
 800a608:	ea4f 0b8b 	mov.w	fp, fp, lsl #2
 800a60c:	f04f 0e0f 	mov.w	lr, #15
 800a610:	fa0e fe0b 	lsl.w	lr, lr, fp
 800a614:	ea27 0e0e 	bic.w	lr, r7, lr
        temp |= ((GPIO_Init->Alternate) << ((position & 0x07u) * 4u));
 800a618:	690f      	ldr	r7, [r1, #16]
 800a61a:	fa07 f70b 	lsl.w	r7, r7, fp
 800a61e:	ea47 070e 	orr.w	r7, r7, lr
        GPIOx->AFR[position >> 3u] = temp;
 800a622:	f8ca 7020 	str.w	r7, [sl, #32]
 800a626:	e001      	b.n	800a62c <HAL_GPIO_Init+0xb0>
      if((GPIO_Init->Mode & GPIO_MODE) != MODE_ANALOG)
 800a628:	2d03      	cmp	r5, #3
 800a62a:	d1da      	bne.n	800a5e2 <HAL_GPIO_Init+0x66>
      temp = GPIOx->MODER;
 800a62c:	6807      	ldr	r7, [r0, #0]
      temp |= ((GPIO_Init->Mode & GPIO_MODE) << (position * 2u));
 800a62e:	fa05 f508 	lsl.w	r5, r5, r8
      temp &= ~(GPIO_MODER_MODER0 << (position * 2u));
 800a632:	ea07 0c0c 	and.w	ip, r7, ip
      temp |= ((GPIO_Init->Mode & GPIO_MODE) << (position * 2u));
 800a636:	ea45 050c 	orr.w	r5, r5, ip
      if((GPIO_Init->Mode & EXTI_MODE) != 0x00u)
 800a63a:	f416 3f40 	tst.w	r6, #196608	; 0x30000
      GPIOx->MODER = temp;
 800a63e:	6005      	str	r5, [r0, #0]
      if((GPIO_Init->Mode & EXTI_MODE) != 0x00u)
 800a640:	d051      	beq.n	800a6e6 <HAL_GPIO_Init+0x16a>
        __HAL_RCC_SYSCFG_CLK_ENABLE();
 800a642:	f8d9 5018 	ldr.w	r5, [r9, #24]
 800a646:	f045 0501 	orr.w	r5, r5, #1
 800a64a:	f8c9 5018 	str.w	r5, [r9, #24]
 800a64e:	f8d9 5018 	ldr.w	r5, [r9, #24]
 800a652:	f023 0703 	bic.w	r7, r3, #3
 800a656:	f107 4780 	add.w	r7, r7, #1073741824	; 0x40000000
 800a65a:	f005 0501 	and.w	r5, r5, #1
 800a65e:	f507 3780 	add.w	r7, r7, #65536	; 0x10000
 800a662:	9501      	str	r5, [sp, #4]
        temp &= ~(0x0FuL << (4u * (position & 0x03u)));
 800a664:	f003 0e03 	and.w	lr, r3, #3
        __HAL_RCC_SYSCFG_CLK_ENABLE();
 800a668:	9d01      	ldr	r5, [sp, #4]
        temp = SYSCFG->EXTICR[position >> 2u];
 800a66a:	68bd      	ldr	r5, [r7, #8]
        temp &= ~(0x0FuL << (4u * (position & 0x03u)));
 800a66c:	ea4f 0e8e 	mov.w	lr, lr, lsl #2
 800a670:	f04f 0c0f 	mov.w	ip, #15
 800a674:	fa0c fc0e 	lsl.w	ip, ip, lr
        temp |= (GPIO_GET_INDEX(GPIOx) << (4u * (position & 0x03u)));
 800a678:	f1b0 4f90 	cmp.w	r0, #1207959552	; 0x48000000
        temp &= ~(0x0FuL << (4u * (position & 0x03u)));
 800a67c:	ea25 0c0c 	bic.w	ip, r5, ip
        temp |= (GPIO_GET_INDEX(GPIOx) << (4u * (position & 0x03u)));
 800a680:	d033      	beq.n	800a6ea <HAL_GPIO_Init+0x16e>
 800a682:	4d1f      	ldr	r5, [pc, #124]	; (800a700 <HAL_GPIO_Init+0x184>)
 800a684:	42a8      	cmp	r0, r5
 800a686:	d032      	beq.n	800a6ee <HAL_GPIO_Init+0x172>
 800a688:	f505 6580 	add.w	r5, r5, #1024	; 0x400
 800a68c:	42a8      	cmp	r0, r5
 800a68e:	d030      	beq.n	800a6f2 <HAL_GPIO_Init+0x176>
 800a690:	f505 6580 	add.w	r5, r5, #1024	; 0x400
 800a694:	42a8      	cmp	r0, r5
 800a696:	d02e      	beq.n	800a6f6 <HAL_GPIO_Init+0x17a>
 800a698:	f505 6580 	add.w	r5, r5, #1024	; 0x400
 800a69c:	42a8      	cmp	r0, r5
 800a69e:	bf0c      	ite	eq
 800a6a0:	2504      	moveq	r5, #4
 800a6a2:	2505      	movne	r5, #5
 800a6a4:	fa05 f50e 	lsl.w	r5, r5, lr
 800a6a8:	ea45 050c 	orr.w	r5, r5, ip
        SYSCFG->EXTICR[position >> 2u] = temp;
 800a6ac:	60bd      	str	r5, [r7, #8]
        temp = EXTI->RTSR;
 800a6ae:	68a5      	ldr	r5, [r4, #8]
        temp &= ~(iocurrent);
 800a6b0:	43d7      	mvns	r7, r2
        if((GPIO_Init->Mode & TRIGGER_RISING) != 0x00u)
 800a6b2:	f416 1f80 	tst.w	r6, #1048576	; 0x100000
        temp &= ~(iocurrent);
 800a6b6:	bf0c      	ite	eq
 800a6b8:	403d      	andeq	r5, r7
          temp |= iocurrent;
 800a6ba:	4315      	orrne	r5, r2
        EXTI->RTSR = temp;
 800a6bc:	60a5      	str	r5, [r4, #8]
        temp = EXTI->FTSR;
 800a6be:	68e5      	ldr	r5, [r4, #12]
        if((GPIO_Init->Mode & TRIGGER_FALLING) != 0x00u)
 800a6c0:	f416 1f00 	tst.w	r6, #2097152	; 0x200000
        temp &= ~(iocurrent);
 800a6c4:	bf0c      	ite	eq
 800a6c6:	403d      	andeq	r5, r7
          temp |= iocurrent;
 800a6c8:	4315      	orrne	r5, r2
        EXTI->FTSR = temp;
 800a6ca:	60e5      	str	r5, [r4, #12]
        temp = EXTI->EMR;
 800a6cc:	6865      	ldr	r5, [r4, #4]
        if((GPIO_Init->Mode & EXTI_EVT) != 0x00u)
 800a6ce:	f416 3f00 	tst.w	r6, #131072	; 0x20000
        temp &= ~(iocurrent);
 800a6d2:	bf0c      	ite	eq
 800a6d4:	403d      	andeq	r5, r7
          temp |= iocurrent;
 800a6d6:	4315      	orrne	r5, r2
        EXTI->EMR = temp;
 800a6d8:	6065      	str	r5, [r4, #4]
        temp = EXTI->IMR;
 800a6da:	6825      	ldr	r5, [r4, #0]
        if((GPIO_Init->Mode & EXTI_IT) != 0x00u)
 800a6dc:	03f6      	lsls	r6, r6, #15
        temp &= ~(iocurrent);
 800a6de:	bf54      	ite	pl
 800a6e0:	403d      	andpl	r5, r7
          temp |= iocurrent;
 800a6e2:	4315      	orrmi	r5, r2
        EXTI->IMR = temp;
 800a6e4:	6025      	str	r5, [r4, #0]
    position++;
 800a6e6:	3301      	adds	r3, #1
 800a6e8:	e74e      	b.n	800a588 <HAL_GPIO_Init+0xc>
        temp |= (GPIO_GET_INDEX(GPIOx) << (4u * (position & 0x03u)));
 800a6ea:	2500      	movs	r5, #0
 800a6ec:	e7da      	b.n	800a6a4 <HAL_GPIO_Init+0x128>
 800a6ee:	2501      	movs	r5, #1
 800a6f0:	e7d8      	b.n	800a6a4 <HAL_GPIO_Init+0x128>
 800a6f2:	2502      	movs	r5, #2
 800a6f4:	e7d6      	b.n	800a6a4 <HAL_GPIO_Init+0x128>
 800a6f6:	2503      	movs	r5, #3
 800a6f8:	e7d4      	b.n	800a6a4 <HAL_GPIO_Init+0x128>
 800a6fa:	bf00      	nop
 800a6fc:	40010400 	.word	0x40010400
 800a700:	48000400 	.word	0x48000400
 800a704:	40021000 	.word	0x40021000

0800a708 <HAL_GPIO_WritePin>:
{
  /* Check the parameters */
  assert_param(IS_GPIO_PIN(GPIO_Pin));
  assert_param(IS_GPIO_PIN_ACTION(PinState));

  if(PinState != GPIO_PIN_RESET)
 800a708:	b10a      	cbz	r2, 800a70e <HAL_GPIO_WritePin+0x6>
  {
    GPIOx->BSRR = (uint32_t)GPIO_Pin;
 800a70a:	6181      	str	r1, [r0, #24]
 800a70c:	4770      	bx	lr
  }
  else
  {
    GPIOx->BRR = (uint32_t)GPIO_Pin;
 800a70e:	6281      	str	r1, [r0, #40]	; 0x28
  }
}
 800a710:	4770      	bx	lr

0800a712 <HAL_GPIO_EXTI_Callback>:
  UNUSED(GPIO_Pin);

  /* NOTE: This function should not be modified, when the callback is needed,
           the HAL_GPIO_EXTI_Callback could be implemented in the user file
   */
}
 800a712:	4770      	bx	lr

0800a714 <HAL_GPIO_EXTI_IRQHandler>:
  if(__HAL_GPIO_EXTI_GET_IT(GPIO_Pin) != 0x00u)
 800a714:	4a04      	ldr	r2, [pc, #16]	; (800a728 <HAL_GPIO_EXTI_IRQHandler+0x14>)
 800a716:	6951      	ldr	r1, [r2, #20]
 800a718:	4201      	tst	r1, r0
{
 800a71a:	b508      	push	{r3, lr}
  if(__HAL_GPIO_EXTI_GET_IT(GPIO_Pin) != 0x00u)
 800a71c:	d002      	beq.n	800a724 <HAL_GPIO_EXTI_IRQHandler+0x10>
    __HAL_GPIO_EXTI_CLEAR_IT(GPIO_Pin);
 800a71e:	6150      	str	r0, [r2, #20]
    HAL_GPIO_EXTI_Callback(GPIO_Pin);
 800a720:	f7ff fff7 	bl	800a712 <HAL_GPIO_EXTI_Callback>
}
 800a724:	bd08      	pop	{r3, pc}
 800a726:	bf00      	nop
 800a728:	40010400 	.word	0x40010400

0800a72c <NMI_Handler>:
{
  /* USER CODE BEGIN NonMaskableInt_IRQn 0 */

  /* USER CODE END NonMaskableInt_IRQn 0 */
  /* USER CODE BEGIN NonMaskableInt_IRQn 1 */
   while (1)
 800a72c:	e7fe      	b.n	800a72c <NMI_Handler>

0800a72e <HardFault_Handler>:
void HardFault_Handler(void)
{
  /* USER CODE BEGIN HardFault_IRQn 0 */

  /* USER CODE END HardFault_IRQn 0 */
  while (1)
 800a72e:	e7fe      	b.n	800a72e <HardFault_Handler>

0800a730 <MemManage_Handler>:
void MemManage_Handler(void)
{
  /* USER CODE BEGIN MemoryManagement_IRQn 0 */

  /* USER CODE END MemoryManagement_IRQn 0 */
  while (1)
 800a730:	e7fe      	b.n	800a730 <MemManage_Handler>

0800a732 <BusFault_Handler>:
void BusFault_Handler(void)
{
  /* USER CODE BEGIN BusFault_IRQn 0 */

  /* USER CODE END BusFault_IRQn 0 */
  while (1)
 800a732:	e7fe      	b.n	800a732 <BusFault_Handler>

0800a734 <UsageFault_Handler>:
void UsageFault_Handler(void)
{
  /* USER CODE BEGIN UsageFault_IRQn 0 */

  /* USER CODE END UsageFault_IRQn 0 */
  while (1)
 800a734:	e7fe      	b.n	800a734 <UsageFault_Handler>

0800a736 <SVC_Handler>:

  /* USER CODE END SVCall_IRQn 0 */
  /* USER CODE BEGIN SVCall_IRQn 1 */

  /* USER CODE END SVCall_IRQn 1 */
}
 800a736:	4770      	bx	lr

0800a738 <DebugMon_Handler>:
 800a738:	4770      	bx	lr

0800a73a <PendSV_Handler>:
 800a73a:	4770      	bx	lr

0800a73c <EXTI15_10_IRQHandler>:
void EXTI15_10_IRQHandler(void)
{
  /* USER CODE BEGIN EXTI15_10_IRQn 0 */

  /* USER CODE END EXTI15_10_IRQn 0 */
  HAL_GPIO_EXTI_IRQHandler(GPIO_PIN_11);
 800a73c:	f44f 6000 	mov.w	r0, #2048	; 0x800
 800a740:	f7ff bfe8 	b.w	800a714 <HAL_GPIO_EXTI_IRQHandler>

0800a744 <check_version>:
// Callback function for "v" command.
// This can exist in v1.0 as long as we don't actually send back an ack ("z")
uint8_t check_version(uint8_t *v, uint8_t len)
{
	return SS_VER;
}
 800a744:	2001      	movs	r0, #1
 800a746:	4770      	bx	lr

0800a748 <simpleserial_put.part.0>:
#if SS_VER == SS_VER_1_1
	simpleserial_put('z', 1, ret);
#endif
}

void simpleserial_put(char c, uint8_t size, uint8_t* output)
 800a748:	b5f8      	push	{r3, r4, r5, r6, r7, lr}
 800a74a:	4614      	mov	r4, r2
 800a74c:	460e      	mov	r6, r1
{
	// Write first character
    if (!output) return;
	putch(c);
 800a74e:	f7ff ff05 	bl	800a55c <putch>

	// Write each byte as two nibbles
	for(int i = 0; i < size; i++)
	{
		putch(hex_lookup[output[i] >> 4 ]);
 800a752:	4f0c      	ldr	r7, [pc, #48]	; (800a784 <simpleserial_put.part.0+0x3c>)
 800a754:	1e65      	subs	r5, r4, #1
	for(int i = 0; i < size; i++)
 800a756:	f1c4 0401 	rsb	r4, r4, #1
 800a75a:	1963      	adds	r3, r4, r5
 800a75c:	429e      	cmp	r6, r3
 800a75e:	dc04      	bgt.n	800a76a <simpleserial_put.part.0+0x22>
		putch(hex_lookup[output[i] & 0xF]);
	}

	// Write trailing '\n'
	putch('\n');
}
 800a760:	e8bd 40f8 	ldmia.w	sp!, {r3, r4, r5, r6, r7, lr}
	putch('\n');
 800a764:	200a      	movs	r0, #10
 800a766:	f7ff bef9 	b.w	800a55c <putch>
		putch(hex_lookup[output[i] >> 4 ]);
 800a76a:	f815 3f01 	ldrb.w	r3, [r5, #1]!
 800a76e:	091b      	lsrs	r3, r3, #4
 800a770:	5cf8      	ldrb	r0, [r7, r3]
 800a772:	f7ff fef3 	bl	800a55c <putch>
		putch(hex_lookup[output[i] & 0xF]);
 800a776:	782b      	ldrb	r3, [r5, #0]
 800a778:	f003 030f 	and.w	r3, r3, #15
 800a77c:	5cf8      	ldrb	r0, [r7, r3]
 800a77e:	f7ff feed 	bl	800a55c <putch>
	for(int i = 0; i < size; i++)
 800a782:	e7ea      	b.n	800a75a <simpleserial_put.part.0+0x12>
 800a784:	0800b4a8 	.word	0x0800b4a8

0800a788 <ss_num_commands>:
{
 800a788:	b507      	push	{r0, r1, r2, lr}
    uint8_t ncmds = num_commands & 0xFF;
 800a78a:	4b07      	ldr	r3, [pc, #28]	; (800a7a8 <ss_num_commands+0x20>)
 800a78c:	f10d 0207 	add.w	r2, sp, #7
 800a790:	681b      	ldr	r3, [r3, #0]
 800a792:	f88d 3007 	strb.w	r3, [sp, #7]
    if (!output) return;
 800a796:	2101      	movs	r1, #1
 800a798:	2072      	movs	r0, #114	; 0x72
 800a79a:	f7ff ffd5 	bl	800a748 <simpleserial_put.part.0>
}
 800a79e:	2000      	movs	r0, #0
 800a7a0:	b003      	add	sp, #12
 800a7a2:	f85d fb04 	ldr.w	pc, [sp], #4
 800a7a6:	bf00      	nop
 800a7a8:	200000a4 	.word	0x200000a4

0800a7ac <ss_get_commands>:
{
 800a7ac:	b570      	push	{r4, r5, r6, lr}
    for (uint8_t i = 0; i < (num_commands & 0xFF); i++) {
 800a7ae:	4812      	ldr	r0, [pc, #72]	; (800a7f8 <ss_get_commands+0x4c>)
 800a7b0:	6801      	ldr	r1, [r0, #0]
{
 800a7b2:	b08c      	sub	sp, #48	; 0x30
    for (uint8_t i = 0; i < (num_commands & 0xFF); i++) {
 800a7b4:	b2cd      	uxtb	r5, r1
 800a7b6:	2400      	movs	r4, #0
 800a7b8:	b2e3      	uxtb	r3, r4
 800a7ba:	42ab      	cmp	r3, r5
 800a7bc:	f104 0401 	add.w	r4, r4, #1
 800a7c0:	db09      	blt.n	800a7d6 <ss_get_commands+0x2a>
    simpleserial_put('r', num_commands * 0x03, (void *) repr_cmd_buf);
 800a7c2:	eb01 0141 	add.w	r1, r1, r1, lsl #1
 800a7c6:	466a      	mov	r2, sp
 800a7c8:	b2c9      	uxtb	r1, r1
 800a7ca:	2072      	movs	r0, #114	; 0x72
 800a7cc:	f7ff ffbc 	bl	800a748 <simpleserial_put.part.0>
}
 800a7d0:	2000      	movs	r0, #0
 800a7d2:	b00c      	add	sp, #48	; 0x30
 800a7d4:	bd70      	pop	{r4, r5, r6, pc}
        repr_cmd_buf[i].c = commands[i].c;
 800a7d6:	eb03 0243 	add.w	r2, r3, r3, lsl #1
 800a7da:	ae0c      	add	r6, sp, #48	; 0x30
 800a7dc:	eb00 1303 	add.w	r3, r0, r3, lsl #4
 800a7e0:	4432      	add	r2, r6
 800a7e2:	791e      	ldrb	r6, [r3, #4]
 800a7e4:	f802 6c30 	strb.w	r6, [r2, #-48]
        repr_cmd_buf[i].len = commands[i].len;
 800a7e8:	689e      	ldr	r6, [r3, #8]
        repr_cmd_buf[i].flags = commands[i].flags;
 800a7ea:	7c1b      	ldrb	r3, [r3, #16]
        repr_cmd_buf[i].len = commands[i].len;
 800a7ec:	f802 6c2f 	strb.w	r6, [r2, #-47]
        repr_cmd_buf[i].flags = commands[i].flags;
 800a7f0:	f802 3c2e 	strb.w	r3, [r2, #-46]
    for (uint8_t i = 0; i < (num_commands & 0xFF); i++) {
 800a7f4:	e7e0      	b.n	800a7b8 <ss_get_commands+0xc>
 800a7f6:	bf00      	nop
 800a7f8:	200000a4 	.word	0x200000a4

0800a7fc <hex_decode>:
{
 800a7fc:	b5f0      	push	{r4, r5, r6, r7, lr}
	for(int i = 0; i < len; i++)
 800a7fe:	2300      	movs	r3, #0
		char n_lo = ascii_buf[2*i+1];
 800a800:	1c4f      	adds	r7, r1, #1
	for(int i = 0; i < len; i++)
 800a802:	4283      	cmp	r3, r0
 800a804:	db01      	blt.n	800a80a <hex_decode+0xe>
	return 0;
 800a806:	2000      	movs	r0, #0
 800a808:	e020      	b.n	800a84c <hex_decode+0x50>
		char n_lo = ascii_buf[2*i+1];
 800a80a:	f817 5013 	ldrb.w	r5, [r7, r3, lsl #1]
		char n_hi = ascii_buf[2*i];
 800a80e:	f811 4013 	ldrb.w	r4, [r1, r3, lsl #1]
		if(n_lo >= '0' && n_lo <= '9')
 800a812:	f1a5 0630 	sub.w	r6, r5, #48	; 0x30
 800a816:	b2f6      	uxtb	r6, r6
 800a818:	2e09      	cmp	r6, #9
 800a81a:	d80b      	bhi.n	800a834 <hex_decode+0x38>
			data_buf[i] = n_lo - '0';
 800a81c:	54d6      	strb	r6, [r2, r3]
		if(n_hi >= '0' && n_hi <= '9')
 800a81e:	f1a4 0530 	sub.w	r5, r4, #48	; 0x30
 800a822:	b2ee      	uxtb	r6, r5
 800a824:	2e09      	cmp	r6, #9
 800a826:	d814      	bhi.n	800a852 <hex_decode+0x56>
			data_buf[i] |= (n_hi - 'A' + 10) << 4;
 800a828:	5cd4      	ldrb	r4, [r2, r3]
 800a82a:	ea44 1405 	orr.w	r4, r4, r5, lsl #4
			data_buf[i] |= (n_hi - 'a' + 10) << 4;
 800a82e:	54d4      	strb	r4, [r2, r3]
	for(int i = 0; i < len; i++)
 800a830:	3301      	adds	r3, #1
 800a832:	e7e6      	b.n	800a802 <hex_decode+0x6>
		else if(n_lo >= 'A' && n_lo <= 'F')
 800a834:	f1a5 0641 	sub.w	r6, r5, #65	; 0x41
 800a838:	2e05      	cmp	r6, #5
 800a83a:	d802      	bhi.n	800a842 <hex_decode+0x46>
			data_buf[i] = n_lo - 'A' + 10;
 800a83c:	3d37      	subs	r5, #55	; 0x37
			data_buf[i] = n_lo - 'a' + 10;
 800a83e:	54d5      	strb	r5, [r2, r3]
 800a840:	e7ed      	b.n	800a81e <hex_decode+0x22>
		else if(n_lo >= 'a' && n_lo <= 'f')
 800a842:	f1a5 0661 	sub.w	r6, r5, #97	; 0x61
 800a846:	2e05      	cmp	r6, #5
 800a848:	d901      	bls.n	800a84e <hex_decode+0x52>
			return 1;
 800a84a:	2001      	movs	r0, #1
}
 800a84c:	bdf0      	pop	{r4, r5, r6, r7, pc}
			data_buf[i] = n_lo - 'a' + 10;
 800a84e:	3d57      	subs	r5, #87	; 0x57
 800a850:	e7f5      	b.n	800a83e <hex_decode+0x42>
		else if(n_hi >= 'A' && n_hi <= 'F')
 800a852:	f1a4 0541 	sub.w	r5, r4, #65	; 0x41
 800a856:	2d05      	cmp	r5, #5
 800a858:	d802      	bhi.n	800a860 <hex_decode+0x64>
			data_buf[i] |= (n_hi - 'A' + 10) << 4;
 800a85a:	f1a4 0537 	sub.w	r5, r4, #55	; 0x37
 800a85e:	e7e3      	b.n	800a828 <hex_decode+0x2c>
		else if(n_hi >= 'a' && n_hi <= 'f')
 800a860:	f1a4 0561 	sub.w	r5, r4, #97	; 0x61
 800a864:	2d05      	cmp	r5, #5
 800a866:	d8f0      	bhi.n	800a84a <hex_decode+0x4e>
			data_buf[i] |= (n_hi - 'a' + 10) << 4;
 800a868:	5cd5      	ldrb	r5, [r2, r3]
 800a86a:	3c57      	subs	r4, #87	; 0x57
 800a86c:	ea45 1404 	orr.w	r4, r5, r4, lsl #4
 800a870:	e7dd      	b.n	800a82e <hex_decode+0x32>
 800a872:	0000      	movs	r0, r0

0800a874 <simpleserial_addcmd_flags>:
{
 800a874:	b570      	push	{r4, r5, r6, lr}
	if(num_commands >= MAX_SS_CMDS)
 800a876:	4e09      	ldr	r6, [pc, #36]	; (800a89c <simpleserial_addcmd_flags+0x28>)
 800a878:	6834      	ldr	r4, [r6, #0]
 800a87a:	2c0f      	cmp	r4, #15
 800a87c:	dc0b      	bgt.n	800a896 <simpleserial_addcmd_flags+0x22>
	if(len >= MAX_SS_LEN)
 800a87e:	29ff      	cmp	r1, #255	; 0xff
 800a880:	d809      	bhi.n	800a896 <simpleserial_addcmd_flags+0x22>
	commands[num_commands].c   = c;
 800a882:	eb06 1504 	add.w	r5, r6, r4, lsl #4
	commands[num_commands].fp  = fp;
 800a886:	e9c5 1202 	strd	r1, r2, [r5, #8]
	num_commands++;
 800a88a:	3401      	adds	r4, #1
	commands[num_commands].c   = c;
 800a88c:	7128      	strb	r0, [r5, #4]
	commands[num_commands].flags = fl;
 800a88e:	742b      	strb	r3, [r5, #16]
	num_commands++;
 800a890:	6034      	str	r4, [r6, #0]
	return 0;
 800a892:	2000      	movs	r0, #0
}
 800a894:	bd70      	pop	{r4, r5, r6, pc}
		return 1;
 800a896:	2001      	movs	r0, #1
 800a898:	e7fc      	b.n	800a894 <simpleserial_addcmd_flags+0x20>
 800a89a:	bf00      	nop
 800a89c:	200000a4 	.word	0x200000a4

0800a8a0 <simpleserial_addcmd>:
	return simpleserial_addcmd_flags(c, len, fp, CMD_FLAG_NONE);
 800a8a0:	2300      	movs	r3, #0
 800a8a2:	f7ff bfe7 	b.w	800a874 <simpleserial_addcmd_flags>
 800a8a6:	0000      	movs	r0, r0

0800a8a8 <simpleserial_init>:
{
 800a8a8:	b508      	push	{r3, lr}
	simpleserial_addcmd('v', 0, check_version);
 800a8aa:	4a08      	ldr	r2, [pc, #32]	; (800a8cc <simpleserial_init+0x24>)
 800a8ac:	2100      	movs	r1, #0
 800a8ae:	2076      	movs	r0, #118	; 0x76
 800a8b0:	f7ff fff6 	bl	800a8a0 <simpleserial_addcmd>
    simpleserial_addcmd('w', 0, ss_get_commands);
 800a8b4:	4a06      	ldr	r2, [pc, #24]	; (800a8d0 <simpleserial_init+0x28>)
 800a8b6:	2100      	movs	r1, #0
 800a8b8:	2077      	movs	r0, #119	; 0x77
 800a8ba:	f7ff fff1 	bl	800a8a0 <simpleserial_addcmd>
}
 800a8be:	e8bd 4008 	ldmia.w	sp!, {r3, lr}
    simpleserial_addcmd('y', 0, ss_num_commands);
 800a8c2:	4a04      	ldr	r2, [pc, #16]	; (800a8d4 <simpleserial_init+0x2c>)
 800a8c4:	2100      	movs	r1, #0
 800a8c6:	2079      	movs	r0, #121	; 0x79
 800a8c8:	f7ff bfea 	b.w	800a8a0 <simpleserial_addcmd>
 800a8cc:	0800a745 	.word	0x0800a745
 800a8d0:	0800a7ad 	.word	0x0800a7ad
 800a8d4:	0800a789 	.word	0x0800a789

0800a8d8 <simpleserial_get>:
{
 800a8d8:	e92d 41f0 	stmdb	sp!, {r4, r5, r6, r7, r8, lr}
	for(cmd = 0; cmd < num_commands; cmd++)
 800a8dc:	4c2e      	ldr	r4, [pc, #184]	; (800a998 <simpleserial_get+0xc0>)
{
 800a8de:	f5ad 7d42 	sub.w	sp, sp, #776	; 0x308
	c = getch();
 800a8e2:	f7ff fe21 	bl	800a528 <getch>
	for(cmd = 0; cmd < num_commands; cmd++)
 800a8e6:	6822      	ldr	r2, [r4, #0]
 800a8e8:	2300      	movs	r3, #0
		if(commands[cmd].c == c)
 800a8ea:	1d21      	adds	r1, r4, #4
	for(cmd = 0; cmd < num_commands; cmd++)
 800a8ec:	429a      	cmp	r2, r3
 800a8ee:	dc04      	bgt.n	800a8fa <simpleserial_get+0x22>
	if(cmd == num_commands)
 800a8f0:	d107      	bne.n	800a902 <simpleserial_get+0x2a>
}
 800a8f2:	f50d 7d42 	add.w	sp, sp, #776	; 0x308
 800a8f6:	e8bd 81f0 	ldmia.w	sp!, {r4, r5, r6, r7, r8, pc}
		if(commands[cmd].c == c)
 800a8fa:	011d      	lsls	r5, r3, #4
 800a8fc:	5c6d      	ldrb	r5, [r5, r1]
 800a8fe:	4285      	cmp	r5, r0
 800a900:	d13d      	bne.n	800a97e <simpleserial_get+0xa6>
	if ((commands[cmd].flags & CMD_FLAG_LEN) != 0)
 800a902:	eb04 1503 	add.w	r5, r4, r3, lsl #4
 800a906:	011e      	lsls	r6, r3, #4
 800a908:	7c2b      	ldrb	r3, [r5, #16]
 800a90a:	07db      	lsls	r3, r3, #31
 800a90c:	d514      	bpl.n	800a938 <simpleserial_get+0x60>
		uint8_t l = 0;
 800a90e:	2300      	movs	r3, #0
 800a910:	f88d 3008 	strb.w	r3, [sp, #8]
		buff[0] = getch();
 800a914:	f7ff fe08 	bl	800a528 <getch>
 800a918:	f88d 0108 	strb.w	r0, [sp, #264]	; 0x108
		buff[1] = getch();
 800a91c:	f7ff fe04 	bl	800a528 <getch>
		if (hex_decode(1, buff, &l))
 800a920:	aa02      	add	r2, sp, #8
		buff[1] = getch();
 800a922:	f88d 0109 	strb.w	r0, [sp, #265]	; 0x109
		if (hex_decode(1, buff, &l))
 800a926:	a942      	add	r1, sp, #264	; 0x108
 800a928:	2001      	movs	r0, #1
 800a92a:	f7ff ff67 	bl	800a7fc <hex_decode>
 800a92e:	2800      	cmp	r0, #0
 800a930:	d1df      	bne.n	800a8f2 <simpleserial_get+0x1a>
		commands[cmd].len = l;
 800a932:	f89d 3008 	ldrb.w	r3, [sp, #8]
 800a936:	60ab      	str	r3, [r5, #8]
	for(cmd = 0; cmd < num_commands; cmd++)
 800a938:	2500      	movs	r5, #0
	for(int i = 0; i < 2*commands[cmd].len; i++)
 800a93a:	19a7      	adds	r7, r4, r6
		ascii_buf[i] = c;
 800a93c:	f50d 7884 	add.w	r8, sp, #264	; 0x108
	for(int i = 0; i < 2*commands[cmd].len; i++)
 800a940:	68bb      	ldr	r3, [r7, #8]
 800a942:	ebb5 0f43 	cmp.w	r5, r3, lsl #1
 800a946:	d31c      	bcc.n	800a982 <simpleserial_get+0xaa>
	c = getch();
 800a948:	f7ff fdee 	bl	800a528 <getch>
	if(c != '\n' && c != '\r')
 800a94c:	280a      	cmp	r0, #10
 800a94e:	d001      	beq.n	800a954 <simpleserial_get+0x7c>
 800a950:	280d      	cmp	r0, #13
 800a952:	d1ce      	bne.n	800a8f2 <simpleserial_get+0x1a>
	if(hex_decode(commands[cmd].len, ascii_buf, data_buf))
 800a954:	4434      	add	r4, r6
 800a956:	aa02      	add	r2, sp, #8
 800a958:	68a5      	ldr	r5, [r4, #8]
 800a95a:	a942      	add	r1, sp, #264	; 0x108
 800a95c:	4628      	mov	r0, r5
 800a95e:	f7ff ff4d 	bl	800a7fc <hex_decode>
 800a962:	2800      	cmp	r0, #0
 800a964:	d1c5      	bne.n	800a8f2 <simpleserial_get+0x1a>
	ret[0] = commands[cmd].fp(data_buf, commands[cmd].len);
 800a966:	b2e9      	uxtb	r1, r5
 800a968:	68e3      	ldr	r3, [r4, #12]
 800a96a:	a802      	add	r0, sp, #8
 800a96c:	4798      	blx	r3
 800a96e:	aa01      	add	r2, sp, #4
 800a970:	f88d 0004 	strb.w	r0, [sp, #4]
    if (!output) return;
 800a974:	2101      	movs	r1, #1
 800a976:	207a      	movs	r0, #122	; 0x7a
 800a978:	f7ff fee6 	bl	800a748 <simpleserial_put.part.0>
 800a97c:	e7b9      	b.n	800a8f2 <simpleserial_get+0x1a>
	for(cmd = 0; cmd < num_commands; cmd++)
 800a97e:	3301      	adds	r3, #1
 800a980:	e7b4      	b.n	800a8ec <simpleserial_get+0x14>
		c = getch();
 800a982:	f7ff fdd1 	bl	800a528 <getch>
		if(c == '\n' || c == '\r')
 800a986:	280a      	cmp	r0, #10
 800a988:	d0b3      	beq.n	800a8f2 <simpleserial_get+0x1a>
 800a98a:	280d      	cmp	r0, #13
 800a98c:	d0b1      	beq.n	800a8f2 <simpleserial_get+0x1a>
		ascii_buf[i] = c;
 800a98e:	f805 0008 	strb.w	r0, [r5, r8]
	for(int i = 0; i < 2*commands[cmd].len; i++)
 800a992:	3501      	adds	r5, #1
 800a994:	e7d4      	b.n	800a940 <simpleserial_get+0x68>
 800a996:	bf00      	nop
 800a998:	200000a4 	.word	0x200000a4

0800a99c <simpleserial_put>:
    if (!output) return;
 800a99c:	b10a      	cbz	r2, 800a9a2 <simpleserial_put+0x6>
 800a99e:	f7ff bed3 	b.w	800a748 <simpleserial_put.part.0>
}
 800a9a2:	4770      	bx	lr

0800a9a4 <HAL_GetTick>:
	hal_sys_tick = 0;
	return HAL_OK;
}
uint32_t HAL_GetTick(void)
{
	return hal_sys_tick++;
 800a9a4:	4b02      	ldr	r3, [pc, #8]	; (800a9b0 <HAL_GetTick+0xc>)
 800a9a6:	6818      	ldr	r0, [r3, #0]
 800a9a8:	1c42      	adds	r2, r0, #1
 800a9aa:	601a      	str	r2, [r3, #0]
}
 800a9ac:	4770      	bx	lr
 800a9ae:	bf00      	nop
 800a9b0:	200001a8 	.word	0x200001a8

0800a9b4 <HAL_RCC_OscConfig>:
  /* Check the parameters */
  assert_param(RCC_OscInitStruct != NULL);
  assert_param(IS_RCC_OSCILLATORTYPE(RCC_OscInitStruct->OscillatorType));

  /*------------------------------- HSE Configuration ------------------------*/ 
  if(((RCC_OscInitStruct->OscillatorType) & RCC_OSCILLATORTYPE_HSE) == RCC_OSCILLATORTYPE_HSE)
 800a9b4:	6803      	ldr	r3, [r0, #0]
{
 800a9b6:	e92d 43f7 	stmdb	sp!, {r0, r1, r2, r4, r5, r6, r7, r8, r9, lr}
  if(((RCC_OscInitStruct->OscillatorType) & RCC_OSCILLATORTYPE_HSE) == RCC_OSCILLATORTYPE_HSE)
 800a9ba:	07d9      	lsls	r1, r3, #31
{
 800a9bc:	4604      	mov	r4, r0
  if(((RCC_OscInitStruct->OscillatorType) & RCC_OSCILLATORTYPE_HSE) == RCC_OSCILLATORTYPE_HSE)
 800a9be:	d411      	bmi.n	800a9e4 <HAL_RCC_OscConfig+0x30>
        }
      }
    }
  }
  /*----------------------------- HSI Configuration --------------------------*/ 
  if(((RCC_OscInitStruct->OscillatorType) & RCC_OSCILLATORTYPE_HSI) == RCC_OSCILLATORTYPE_HSI)
 800a9c0:	6823      	ldr	r3, [r4, #0]
 800a9c2:	079a      	lsls	r2, r3, #30
 800a9c4:	f100 8086 	bmi.w	800aad4 <HAL_RCC_OscConfig+0x120>
        }
      }
    }
  }
  /*------------------------------ LSI Configuration -------------------------*/ 
  if(((RCC_OscInitStruct->OscillatorType) & RCC_OSCILLATORTYPE_LSI) == RCC_OSCILLATORTYPE_LSI)
 800a9c8:	6823      	ldr	r3, [r4, #0]
 800a9ca:	071e      	lsls	r6, r3, #28
 800a9cc:	f100 80f4 	bmi.w	800abb8 <HAL_RCC_OscConfig+0x204>
        }
      }
    }
  }
  /*------------------------------ LSE Configuration -------------------------*/ 
  if(((RCC_OscInitStruct->OscillatorType) & RCC_OSCILLATORTYPE_LSE) == RCC_OSCILLATORTYPE_LSE)
 800a9d0:	6823      	ldr	r3, [r4, #0]
 800a9d2:	075d      	lsls	r5, r3, #29
 800a9d4:	f100 813b 	bmi.w	800ac4e <HAL_RCC_OscConfig+0x29a>
  }

  /*-------------------------------- PLL Configuration -----------------------*/
  /* Check the parameters */
  assert_param(IS_RCC_PLL(RCC_OscInitStruct->PLL.PLLState));
  if ((RCC_OscInitStruct->PLL.PLLState) != RCC_PLL_NONE)
 800a9d8:	69e2      	ldr	r2, [r4, #28]
 800a9da:	2a00      	cmp	r2, #0
 800a9dc:	f040 81ce 	bne.w	800ad7c <HAL_RCC_OscConfig+0x3c8>
    {
      return HAL_ERROR;
    }
  }
  
  return HAL_OK;
 800a9e0:	2000      	movs	r0, #0
 800a9e2:	e021      	b.n	800aa28 <HAL_RCC_OscConfig+0x74>
    if((__HAL_RCC_GET_SYSCLK_SOURCE() == RCC_SYSCLKSOURCE_STATUS_HSE) 
 800a9e4:	49b7      	ldr	r1, [pc, #732]	; (800acc4 <HAL_RCC_OscConfig+0x310>)
 800a9e6:	684b      	ldr	r3, [r1, #4]
 800a9e8:	f003 030c 	and.w	r3, r3, #12
 800a9ec:	2b04      	cmp	r3, #4
 800a9ee:	d007      	beq.n	800aa00 <HAL_RCC_OscConfig+0x4c>
       || ((__HAL_RCC_GET_SYSCLK_SOURCE() == RCC_SYSCLKSOURCE_STATUS_PLLCLK) && (__HAL_RCC_GET_PLL_OSCSOURCE() == RCC_PLLSOURCE_HSE)))
 800a9f0:	684b      	ldr	r3, [r1, #4]
 800a9f2:	f003 030c 	and.w	r3, r3, #12
 800a9f6:	2b08      	cmp	r3, #8
 800a9f8:	d119      	bne.n	800aa2e <HAL_RCC_OscConfig+0x7a>
 800a9fa:	684b      	ldr	r3, [r1, #4]
 800a9fc:	03db      	lsls	r3, r3, #15
 800a9fe:	d516      	bpl.n	800aa2e <HAL_RCC_OscConfig+0x7a>
__attribute__((always_inline)) __STATIC_INLINE uint32_t __RBIT(uint32_t value)
{
  uint32_t result;

#if       (__CORTEX_M >= 0x03U) || (__CORTEX_SC >= 300U)
   __ASM volatile ("rbit %0, %1" : "=r" (result) : "r" (value) );
 800aa00:	f44f 3300 	mov.w	r3, #131072	; 0x20000
 800aa04:	fa93 f2a3 	rbit	r2, r3
      if((__HAL_RCC_GET_FLAG(RCC_FLAG_HSERDY) != RESET) && (RCC_OscInitStruct->HSEState == RCC_HSE_OFF))
 800aa08:	6809      	ldr	r1, [r1, #0]
 800aa0a:	fa93 f3a3 	rbit	r3, r3
 800aa0e:	fab3 f383 	clz	r3, r3
 800aa12:	f003 031f 	and.w	r3, r3, #31
 800aa16:	2201      	movs	r2, #1
 800aa18:	fa02 f303 	lsl.w	r3, r2, r3
 800aa1c:	420b      	tst	r3, r1
 800aa1e:	d0cf      	beq.n	800a9c0 <HAL_RCC_OscConfig+0xc>
 800aa20:	6863      	ldr	r3, [r4, #4]
 800aa22:	2b00      	cmp	r3, #0
 800aa24:	d1cc      	bne.n	800a9c0 <HAL_RCC_OscConfig+0xc>
        return HAL_ERROR;
 800aa26:	2001      	movs	r0, #1
}
 800aa28:	b003      	add	sp, #12
 800aa2a:	e8bd 83f0 	ldmia.w	sp!, {r4, r5, r6, r7, r8, r9, pc}
      __HAL_RCC_HSE_CONFIG(RCC_OscInitStruct->HSEState);
 800aa2e:	6862      	ldr	r2, [r4, #4]
 800aa30:	f5b2 3f80 	cmp.w	r2, #65536	; 0x10000
 800aa34:	d124      	bne.n	800aa80 <HAL_RCC_OscConfig+0xcc>
 800aa36:	680b      	ldr	r3, [r1, #0]
 800aa38:	f443 3380 	orr.w	r3, r3, #65536	; 0x10000
 800aa3c:	600b      	str	r3, [r1, #0]
      __HAL_RCC_HSE_PREDIV_CONFIG(RCC_OscInitStruct->HSEPredivValue);
 800aa3e:	6acb      	ldr	r3, [r1, #44]	; 0x2c
 800aa40:	68a0      	ldr	r0, [r4, #8]
 800aa42:	f023 030f 	bic.w	r3, r3, #15
 800aa46:	4303      	orrs	r3, r0
 800aa48:	62cb      	str	r3, [r1, #44]	; 0x2c
      if(RCC_OscInitStruct->HSEState != RCC_HSE_OFF)
 800aa4a:	b34a      	cbz	r2, 800aaa0 <HAL_RCC_OscConfig+0xec>
        tickstart = HAL_GetTick();
 800aa4c:	f7ff ffaa 	bl	800a9a4 <HAL_GetTick>
 800aa50:	f44f 3600 	mov.w	r6, #131072	; 0x20000
 800aa54:	4605      	mov	r5, r0
        while(__HAL_RCC_GET_FLAG(RCC_FLAG_HSERDY) == RESET)
 800aa56:	2701      	movs	r7, #1
 800aa58:	fa96 f3a6 	rbit	r3, r6
 800aa5c:	680a      	ldr	r2, [r1, #0]
 800aa5e:	fa96 f3a6 	rbit	r3, r6
 800aa62:	fab3 f383 	clz	r3, r3
 800aa66:	f003 031f 	and.w	r3, r3, #31
 800aa6a:	fa07 f303 	lsl.w	r3, r7, r3
 800aa6e:	4213      	tst	r3, r2
 800aa70:	d1a6      	bne.n	800a9c0 <HAL_RCC_OscConfig+0xc>
          if((HAL_GetTick() - tickstart ) > HSE_TIMEOUT_VALUE)
 800aa72:	f7ff ff97 	bl	800a9a4 <HAL_GetTick>
 800aa76:	1b43      	subs	r3, r0, r5
 800aa78:	2b64      	cmp	r3, #100	; 0x64
 800aa7a:	d9ed      	bls.n	800aa58 <HAL_RCC_OscConfig+0xa4>
            return HAL_TIMEOUT;
 800aa7c:	2003      	movs	r0, #3
 800aa7e:	e7d3      	b.n	800aa28 <HAL_RCC_OscConfig+0x74>
      __HAL_RCC_HSE_CONFIG(RCC_OscInitStruct->HSEState);
 800aa80:	680b      	ldr	r3, [r1, #0]
 800aa82:	b932      	cbnz	r2, 800aa92 <HAL_RCC_OscConfig+0xde>
 800aa84:	f423 3380 	bic.w	r3, r3, #65536	; 0x10000
 800aa88:	600b      	str	r3, [r1, #0]
 800aa8a:	680b      	ldr	r3, [r1, #0]
 800aa8c:	f423 2380 	bic.w	r3, r3, #262144	; 0x40000
 800aa90:	e7d4      	b.n	800aa3c <HAL_RCC_OscConfig+0x88>
 800aa92:	f5b2 2fa0 	cmp.w	r2, #327680	; 0x50000
 800aa96:	d1f5      	bne.n	800aa84 <HAL_RCC_OscConfig+0xd0>
 800aa98:	f443 2380 	orr.w	r3, r3, #262144	; 0x40000
 800aa9c:	600b      	str	r3, [r1, #0]
 800aa9e:	e7ca      	b.n	800aa36 <HAL_RCC_OscConfig+0x82>
        tickstart = HAL_GetTick();
 800aaa0:	f7ff ff80 	bl	800a9a4 <HAL_GetTick>
 800aaa4:	f44f 3600 	mov.w	r6, #131072	; 0x20000
 800aaa8:	4605      	mov	r5, r0
        while(__HAL_RCC_GET_FLAG(RCC_FLAG_HSERDY) != RESET)
 800aaaa:	2701      	movs	r7, #1
 800aaac:	fa96 f3a6 	rbit	r3, r6
 800aab0:	680a      	ldr	r2, [r1, #0]
 800aab2:	fa96 f3a6 	rbit	r3, r6
 800aab6:	fab3 f383 	clz	r3, r3
 800aaba:	f003 031f 	and.w	r3, r3, #31
 800aabe:	fa07 f303 	lsl.w	r3, r7, r3
 800aac2:	4213      	tst	r3, r2
 800aac4:	f43f af7c 	beq.w	800a9c0 <HAL_RCC_OscConfig+0xc>
           if((HAL_GetTick() - tickstart ) > HSE_TIMEOUT_VALUE)
 800aac8:	f7ff ff6c 	bl	800a9a4 <HAL_GetTick>
 800aacc:	1b43      	subs	r3, r0, r5
 800aace:	2b64      	cmp	r3, #100	; 0x64
 800aad0:	d9ec      	bls.n	800aaac <HAL_RCC_OscConfig+0xf8>
 800aad2:	e7d3      	b.n	800aa7c <HAL_RCC_OscConfig+0xc8>
    if((__HAL_RCC_GET_SYSCLK_SOURCE() == RCC_SYSCLKSOURCE_STATUS_HSI) 
 800aad4:	497b      	ldr	r1, [pc, #492]	; (800acc4 <HAL_RCC_OscConfig+0x310>)
 800aad6:	684b      	ldr	r3, [r1, #4]
 800aad8:	f013 0f0c 	tst.w	r3, #12
 800aadc:	d007      	beq.n	800aaee <HAL_RCC_OscConfig+0x13a>
       || ((__HAL_RCC_GET_SYSCLK_SOURCE() == RCC_SYSCLKSOURCE_STATUS_PLLCLK) && (__HAL_RCC_GET_PLL_OSCSOURCE() == RCC_PLLSOURCE_HSI)))
 800aade:	684b      	ldr	r3, [r1, #4]
 800aae0:	f003 030c 	and.w	r3, r3, #12
 800aae4:	2b08      	cmp	r3, #8
 800aae6:	d121      	bne.n	800ab2c <HAL_RCC_OscConfig+0x178>
 800aae8:	684b      	ldr	r3, [r1, #4]
 800aaea:	03df      	lsls	r7, r3, #15
 800aaec:	d41e      	bmi.n	800ab2c <HAL_RCC_OscConfig+0x178>
 800aaee:	2302      	movs	r3, #2
 800aaf0:	fa93 f2a3 	rbit	r2, r3
      if((__HAL_RCC_GET_FLAG(RCC_FLAG_HSIRDY) != RESET) && (RCC_OscInitStruct->HSIState != RCC_HSI_ON))
 800aaf4:	6808      	ldr	r0, [r1, #0]
 800aaf6:	fa93 f3a3 	rbit	r3, r3
 800aafa:	fab3 f383 	clz	r3, r3
 800aafe:	f003 031f 	and.w	r3, r3, #31
 800ab02:	2201      	movs	r2, #1
 800ab04:	fa02 f303 	lsl.w	r3, r2, r3
 800ab08:	4203      	tst	r3, r0
 800ab0a:	d002      	beq.n	800ab12 <HAL_RCC_OscConfig+0x15e>
 800ab0c:	6923      	ldr	r3, [r4, #16]
 800ab0e:	4293      	cmp	r3, r2
 800ab10:	d189      	bne.n	800aa26 <HAL_RCC_OscConfig+0x72>
        __HAL_RCC_HSI_CALIBRATIONVALUE_ADJUST(RCC_OscInitStruct->HSICalibrationValue);
 800ab12:	6808      	ldr	r0, [r1, #0]
 800ab14:	23f8      	movs	r3, #248	; 0xf8
 800ab16:	fa93 f3a3 	rbit	r3, r3
 800ab1a:	fab3 f283 	clz	r2, r3
 800ab1e:	6963      	ldr	r3, [r4, #20]
 800ab20:	4093      	lsls	r3, r2
 800ab22:	f020 02f8 	bic.w	r2, r0, #248	; 0xf8
 800ab26:	4313      	orrs	r3, r2
 800ab28:	600b      	str	r3, [r1, #0]
 800ab2a:	e74d      	b.n	800a9c8 <HAL_RCC_OscConfig+0x14>
      if(RCC_OscInitStruct->HSIState != RCC_HSI_OFF)
 800ab2c:	6922      	ldr	r2, [r4, #16]
 800ab2e:	2501      	movs	r5, #1
 800ab30:	b302      	cbz	r2, 800ab74 <HAL_RCC_OscConfig+0x1c0>
 800ab32:	fa95 f3a5 	rbit	r3, r5
        __HAL_RCC_HSI_ENABLE();
 800ab36:	fab3 f383 	clz	r3, r3
 800ab3a:	f103 5384 	add.w	r3, r3, #276824064	; 0x10800000
 800ab3e:	f503 1384 	add.w	r3, r3, #1081344	; 0x108000
 800ab42:	009b      	lsls	r3, r3, #2
 800ab44:	2702      	movs	r7, #2
 800ab46:	601d      	str	r5, [r3, #0]
        tickstart = HAL_GetTick();
 800ab48:	f7ff ff2c 	bl	800a9a4 <HAL_GetTick>
 800ab4c:	4606      	mov	r6, r0
 800ab4e:	fa97 f3a7 	rbit	r3, r7
        while(__HAL_RCC_GET_FLAG(RCC_FLAG_HSIRDY) == RESET)
 800ab52:	680a      	ldr	r2, [r1, #0]
 800ab54:	fa97 f3a7 	rbit	r3, r7
 800ab58:	fab3 f383 	clz	r3, r3
 800ab5c:	f003 031f 	and.w	r3, r3, #31
 800ab60:	fa05 f303 	lsl.w	r3, r5, r3
 800ab64:	4213      	tst	r3, r2
 800ab66:	d1d4      	bne.n	800ab12 <HAL_RCC_OscConfig+0x15e>
          if((HAL_GetTick() - tickstart ) > HSI_TIMEOUT_VALUE)
 800ab68:	f7ff ff1c 	bl	800a9a4 <HAL_GetTick>
 800ab6c:	1b83      	subs	r3, r0, r6
 800ab6e:	2b02      	cmp	r3, #2
 800ab70:	d9ed      	bls.n	800ab4e <HAL_RCC_OscConfig+0x19a>
 800ab72:	e783      	b.n	800aa7c <HAL_RCC_OscConfig+0xc8>
 800ab74:	fa95 f3a5 	rbit	r3, r5
        __HAL_RCC_HSI_DISABLE();
 800ab78:	fab3 f383 	clz	r3, r3
 800ab7c:	f103 5384 	add.w	r3, r3, #276824064	; 0x10800000
 800ab80:	f503 1384 	add.w	r3, r3, #1081344	; 0x108000
 800ab84:	009b      	lsls	r3, r3, #2
 800ab86:	2702      	movs	r7, #2
 800ab88:	601a      	str	r2, [r3, #0]
        tickstart = HAL_GetTick();
 800ab8a:	f7ff ff0b 	bl	800a9a4 <HAL_GetTick>
 800ab8e:	4606      	mov	r6, r0
 800ab90:	fa97 f3a7 	rbit	r3, r7
        while(__HAL_RCC_GET_FLAG(RCC_FLAG_HSIRDY) != RESET)
 800ab94:	680a      	ldr	r2, [r1, #0]
 800ab96:	fa97 f3a7 	rbit	r3, r7
 800ab9a:	fab3 f383 	clz	r3, r3
 800ab9e:	f003 031f 	and.w	r3, r3, #31
 800aba2:	fa05 f303 	lsl.w	r3, r5, r3
 800aba6:	4213      	tst	r3, r2
 800aba8:	f43f af0e 	beq.w	800a9c8 <HAL_RCC_OscConfig+0x14>
          if((HAL_GetTick() - tickstart ) > HSI_TIMEOUT_VALUE)
 800abac:	f7ff fefa 	bl	800a9a4 <HAL_GetTick>
 800abb0:	1b83      	subs	r3, r0, r6
 800abb2:	2b02      	cmp	r3, #2
 800abb4:	d9ec      	bls.n	800ab90 <HAL_RCC_OscConfig+0x1dc>
 800abb6:	e761      	b.n	800aa7c <HAL_RCC_OscConfig+0xc8>
    if(RCC_OscInitStruct->LSIState != RCC_LSI_OFF)
 800abb8:	69a2      	ldr	r2, [r4, #24]
 800abba:	4d42      	ldr	r5, [pc, #264]	; (800acc4 <HAL_RCC_OscConfig+0x310>)
 800abbc:	4842      	ldr	r0, [pc, #264]	; (800acc8 <HAL_RCC_OscConfig+0x314>)
 800abbe:	2101      	movs	r1, #1
 800abc0:	b312      	cbz	r2, 800ac08 <HAL_RCC_OscConfig+0x254>
 800abc2:	fa91 f3a1 	rbit	r3, r1
      __HAL_RCC_LSI_ENABLE();
 800abc6:	fab3 f383 	clz	r3, r3
 800abca:	4403      	add	r3, r0
 800abcc:	009b      	lsls	r3, r3, #2
 800abce:	2602      	movs	r6, #2
 800abd0:	6019      	str	r1, [r3, #0]
      tickstart = HAL_GetTick();
 800abd2:	f7ff fee7 	bl	800a9a4 <HAL_GetTick>
 800abd6:	4607      	mov	r7, r0
 800abd8:	fa96 f3a6 	rbit	r3, r6
 800abdc:	fa96 f3a6 	rbit	r3, r6
 800abe0:	fa96 f3a6 	rbit	r3, r6
      while(__HAL_RCC_GET_FLAG(RCC_FLAG_LSIRDY) == RESET)
 800abe4:	6a6a      	ldr	r2, [r5, #36]	; 0x24
 800abe6:	fa96 f3a6 	rbit	r3, r6
 800abea:	fab3 f383 	clz	r3, r3
 800abee:	f003 031f 	and.w	r3, r3, #31
 800abf2:	fa01 f303 	lsl.w	r3, r1, r3
 800abf6:	4213      	tst	r3, r2
 800abf8:	f47f aeea 	bne.w	800a9d0 <HAL_RCC_OscConfig+0x1c>
        if((HAL_GetTick() - tickstart ) > LSI_TIMEOUT_VALUE)
 800abfc:	f7ff fed2 	bl	800a9a4 <HAL_GetTick>
 800ac00:	1bc3      	subs	r3, r0, r7
 800ac02:	2b02      	cmp	r3, #2
 800ac04:	d9e8      	bls.n	800abd8 <HAL_RCC_OscConfig+0x224>
 800ac06:	e739      	b.n	800aa7c <HAL_RCC_OscConfig+0xc8>
 800ac08:	fa91 f3a1 	rbit	r3, r1
      __HAL_RCC_LSI_DISABLE();
 800ac0c:	fab3 f383 	clz	r3, r3
 800ac10:	4403      	add	r3, r0
 800ac12:	009b      	lsls	r3, r3, #2
 800ac14:	2602      	movs	r6, #2
 800ac16:	601a      	str	r2, [r3, #0]
      tickstart = HAL_GetTick();
 800ac18:	f7ff fec4 	bl	800a9a4 <HAL_GetTick>
 800ac1c:	4607      	mov	r7, r0
 800ac1e:	fa96 f3a6 	rbit	r3, r6
 800ac22:	fa96 f3a6 	rbit	r3, r6
 800ac26:	fa96 f3a6 	rbit	r3, r6
      while(__HAL_RCC_GET_FLAG(RCC_FLAG_LSIRDY) != RESET)
 800ac2a:	6a6a      	ldr	r2, [r5, #36]	; 0x24
 800ac2c:	fa96 f3a6 	rbit	r3, r6
 800ac30:	fab3 f383 	clz	r3, r3
 800ac34:	f003 031f 	and.w	r3, r3, #31
 800ac38:	fa01 f303 	lsl.w	r3, r1, r3
 800ac3c:	4213      	tst	r3, r2
 800ac3e:	f43f aec7 	beq.w	800a9d0 <HAL_RCC_OscConfig+0x1c>
        if((HAL_GetTick() - tickstart ) > LSI_TIMEOUT_VALUE)
 800ac42:	f7ff feaf 	bl	800a9a4 <HAL_GetTick>
 800ac46:	1bc3      	subs	r3, r0, r7
 800ac48:	2b02      	cmp	r3, #2
 800ac4a:	d9e8      	bls.n	800ac1e <HAL_RCC_OscConfig+0x26a>
 800ac4c:	e716      	b.n	800aa7c <HAL_RCC_OscConfig+0xc8>
    if(__HAL_RCC_PWR_IS_CLK_DISABLED())
 800ac4e:	491d      	ldr	r1, [pc, #116]	; (800acc4 <HAL_RCC_OscConfig+0x310>)
 800ac50:	69cb      	ldr	r3, [r1, #28]
 800ac52:	00d8      	lsls	r0, r3, #3
 800ac54:	d434      	bmi.n	800acc0 <HAL_RCC_OscConfig+0x30c>
      __HAL_RCC_PWR_CLK_ENABLE();
 800ac56:	69cb      	ldr	r3, [r1, #28]
 800ac58:	f043 5380 	orr.w	r3, r3, #268435456	; 0x10000000
 800ac5c:	61cb      	str	r3, [r1, #28]
 800ac5e:	69cb      	ldr	r3, [r1, #28]
 800ac60:	f003 5380 	and.w	r3, r3, #268435456	; 0x10000000
 800ac64:	9301      	str	r3, [sp, #4]
 800ac66:	9b01      	ldr	r3, [sp, #4]
      pwrclkchanged = SET;
 800ac68:	2501      	movs	r5, #1
    if(HAL_IS_BIT_CLR(PWR->CR, PWR_CR_DBP))
 800ac6a:	4e18      	ldr	r6, [pc, #96]	; (800accc <HAL_RCC_OscConfig+0x318>)
 800ac6c:	6833      	ldr	r3, [r6, #0]
 800ac6e:	05da      	lsls	r2, r3, #23
 800ac70:	d52e      	bpl.n	800acd0 <HAL_RCC_OscConfig+0x31c>
    __HAL_RCC_LSE_CONFIG(RCC_OscInitStruct->LSEState);
 800ac72:	68e3      	ldr	r3, [r4, #12]
 800ac74:	2b01      	cmp	r3, #1
 800ac76:	d13b      	bne.n	800acf0 <HAL_RCC_OscConfig+0x33c>
 800ac78:	6a0b      	ldr	r3, [r1, #32]
 800ac7a:	f043 0301 	orr.w	r3, r3, #1
 800ac7e:	620b      	str	r3, [r1, #32]
      tickstart = HAL_GetTick();
 800ac80:	f7ff fe90 	bl	800a9a4 <HAL_GetTick>
 800ac84:	2602      	movs	r6, #2
 800ac86:	4607      	mov	r7, r0
      while(__HAL_RCC_GET_FLAG(RCC_FLAG_LSERDY) == RESET)
 800ac88:	46b1      	mov	r9, r6
 800ac8a:	f04f 0801 	mov.w	r8, #1
 800ac8e:	fa96 f3a6 	rbit	r3, r6
 800ac92:	fa96 f3a6 	rbit	r3, r6
 800ac96:	2b00      	cmp	r3, #0
 800ac98:	d068      	beq.n	800ad6c <HAL_RCC_OscConfig+0x3b8>
 800ac9a:	6a0a      	ldr	r2, [r1, #32]
 800ac9c:	fa99 f3a9 	rbit	r3, r9
 800aca0:	fab3 f383 	clz	r3, r3
 800aca4:	f003 031f 	and.w	r3, r3, #31
 800aca8:	fa08 f303 	lsl.w	r3, r8, r3
 800acac:	4213      	tst	r3, r2
 800acae:	d055      	beq.n	800ad5c <HAL_RCC_OscConfig+0x3a8>
    if(pwrclkchanged == SET)
 800acb0:	2d00      	cmp	r5, #0
 800acb2:	f43f ae91 	beq.w	800a9d8 <HAL_RCC_OscConfig+0x24>
      __HAL_RCC_PWR_CLK_DISABLE();
 800acb6:	69cb      	ldr	r3, [r1, #28]
 800acb8:	f023 5380 	bic.w	r3, r3, #268435456	; 0x10000000
 800acbc:	61cb      	str	r3, [r1, #28]
 800acbe:	e68b      	b.n	800a9d8 <HAL_RCC_OscConfig+0x24>
    FlagStatus       pwrclkchanged = RESET;
 800acc0:	2500      	movs	r5, #0
 800acc2:	e7d2      	b.n	800ac6a <HAL_RCC_OscConfig+0x2b6>
 800acc4:	40021000 	.word	0x40021000
 800acc8:	10908120 	.word	0x10908120
 800accc:	40007000 	.word	0x40007000
      SET_BIT(PWR->CR, PWR_CR_DBP);
 800acd0:	6833      	ldr	r3, [r6, #0]
 800acd2:	f443 7380 	orr.w	r3, r3, #256	; 0x100
 800acd6:	6033      	str	r3, [r6, #0]
      tickstart = HAL_GetTick();
 800acd8:	f7ff fe64 	bl	800a9a4 <HAL_GetTick>
 800acdc:	4607      	mov	r7, r0
      while(HAL_IS_BIT_CLR(PWR->CR, PWR_CR_DBP))
 800acde:	6833      	ldr	r3, [r6, #0]
 800ace0:	05db      	lsls	r3, r3, #23
 800ace2:	d4c6      	bmi.n	800ac72 <HAL_RCC_OscConfig+0x2be>
        if((HAL_GetTick() - tickstart) > RCC_DBP_TIMEOUT_VALUE)
 800ace4:	f7ff fe5e 	bl	800a9a4 <HAL_GetTick>
 800ace8:	1bc0      	subs	r0, r0, r7
 800acea:	2864      	cmp	r0, #100	; 0x64
 800acec:	d9f7      	bls.n	800acde <HAL_RCC_OscConfig+0x32a>
 800acee:	e6c5      	b.n	800aa7c <HAL_RCC_OscConfig+0xc8>
    __HAL_RCC_LSE_CONFIG(RCC_OscInitStruct->LSEState);
 800acf0:	bb33      	cbnz	r3, 800ad40 <HAL_RCC_OscConfig+0x38c>
 800acf2:	6a0b      	ldr	r3, [r1, #32]
 800acf4:	f023 0301 	bic.w	r3, r3, #1
 800acf8:	620b      	str	r3, [r1, #32]
 800acfa:	6a0b      	ldr	r3, [r1, #32]
 800acfc:	f023 0304 	bic.w	r3, r3, #4
 800ad00:	620b      	str	r3, [r1, #32]
      tickstart = HAL_GetTick();
 800ad02:	f7ff fe4f 	bl	800a9a4 <HAL_GetTick>
 800ad06:	2602      	movs	r6, #2
 800ad08:	4607      	mov	r7, r0
      while(__HAL_RCC_GET_FLAG(RCC_FLAG_LSERDY) != RESET)
 800ad0a:	46b1      	mov	r9, r6
 800ad0c:	f04f 0801 	mov.w	r8, #1
 800ad10:	fa96 f3a6 	rbit	r3, r6
 800ad14:	fa96 f3a6 	rbit	r3, r6
 800ad18:	b363      	cbz	r3, 800ad74 <HAL_RCC_OscConfig+0x3c0>
 800ad1a:	6a0a      	ldr	r2, [r1, #32]
 800ad1c:	fa99 f3a9 	rbit	r3, r9
 800ad20:	fab3 f383 	clz	r3, r3
 800ad24:	f003 031f 	and.w	r3, r3, #31
 800ad28:	fa08 f303 	lsl.w	r3, r8, r3
 800ad2c:	4213      	tst	r3, r2
 800ad2e:	d0bf      	beq.n	800acb0 <HAL_RCC_OscConfig+0x2fc>
        if((HAL_GetTick() - tickstart ) > RCC_LSE_TIMEOUT_VALUE)
 800ad30:	f7ff fe38 	bl	800a9a4 <HAL_GetTick>
 800ad34:	f241 3388 	movw	r3, #5000	; 0x1388
 800ad38:	1bc0      	subs	r0, r0, r7
 800ad3a:	4298      	cmp	r0, r3
 800ad3c:	d9e8      	bls.n	800ad10 <HAL_RCC_OscConfig+0x35c>
 800ad3e:	e69d      	b.n	800aa7c <HAL_RCC_OscConfig+0xc8>
    __HAL_RCC_LSE_CONFIG(RCC_OscInitStruct->LSEState);
 800ad40:	2b05      	cmp	r3, #5
 800ad42:	6a0b      	ldr	r3, [r1, #32]
 800ad44:	d103      	bne.n	800ad4e <HAL_RCC_OscConfig+0x39a>
 800ad46:	f043 0304 	orr.w	r3, r3, #4
 800ad4a:	620b      	str	r3, [r1, #32]
 800ad4c:	e794      	b.n	800ac78 <HAL_RCC_OscConfig+0x2c4>
 800ad4e:	f023 0301 	bic.w	r3, r3, #1
 800ad52:	620b      	str	r3, [r1, #32]
 800ad54:	6a0b      	ldr	r3, [r1, #32]
 800ad56:	f023 0304 	bic.w	r3, r3, #4
 800ad5a:	e790      	b.n	800ac7e <HAL_RCC_OscConfig+0x2ca>
        if((HAL_GetTick() - tickstart ) > RCC_LSE_TIMEOUT_VALUE)
 800ad5c:	f7ff fe22 	bl	800a9a4 <HAL_GetTick>
 800ad60:	f241 3388 	movw	r3, #5000	; 0x1388
 800ad64:	1bc0      	subs	r0, r0, r7
 800ad66:	4298      	cmp	r0, r3
 800ad68:	d991      	bls.n	800ac8e <HAL_RCC_OscConfig+0x2da>
 800ad6a:	e687      	b.n	800aa7c <HAL_RCC_OscConfig+0xc8>
 800ad6c:	fa96 f3a6 	rbit	r3, r6
      while(__HAL_RCC_GET_FLAG(RCC_FLAG_LSERDY) == RESET)
 800ad70:	6a4a      	ldr	r2, [r1, #36]	; 0x24
 800ad72:	e793      	b.n	800ac9c <HAL_RCC_OscConfig+0x2e8>
 800ad74:	fa96 f3a6 	rbit	r3, r6
      while(__HAL_RCC_GET_FLAG(RCC_FLAG_LSERDY) != RESET)
 800ad78:	6a4a      	ldr	r2, [r1, #36]	; 0x24
 800ad7a:	e7cf      	b.n	800ad1c <HAL_RCC_OscConfig+0x368>
    if(__HAL_RCC_GET_SYSCLK_SOURCE() != RCC_SYSCLKSOURCE_STATUS_PLLCLK)
 800ad7c:	4940      	ldr	r1, [pc, #256]	; (800ae80 <HAL_RCC_OscConfig+0x4cc>)
 800ad7e:	684b      	ldr	r3, [r1, #4]
 800ad80:	f003 030c 	and.w	r3, r3, #12
 800ad84:	2b08      	cmp	r3, #8
 800ad86:	f43f ae4e 	beq.w	800aa26 <HAL_RCC_OscConfig+0x72>
      if((RCC_OscInitStruct->PLL.PLLState) == RCC_PLL_ON)
 800ad8a:	2a02      	cmp	r2, #2
 800ad8c:	f04f 7380 	mov.w	r3, #16777216	; 0x1000000
 800ad90:	d151      	bne.n	800ae36 <HAL_RCC_OscConfig+0x482>
 800ad92:	fa93 f3a3 	rbit	r3, r3
        __HAL_RCC_PLL_DISABLE();
 800ad96:	fab3 f383 	clz	r3, r3
 800ad9a:	f103 5384 	add.w	r3, r3, #276824064	; 0x10800000
 800ad9e:	f503 1384 	add.w	r3, r3, #1081344	; 0x108000
 800ada2:	009b      	lsls	r3, r3, #2
 800ada4:	2200      	movs	r2, #0
 800ada6:	601a      	str	r2, [r3, #0]
        tickstart = HAL_GetTick();
 800ada8:	f7ff fdfc 	bl	800a9a4 <HAL_GetTick>
 800adac:	f04f 7700 	mov.w	r7, #33554432	; 0x2000000
 800adb0:	4606      	mov	r6, r0
        while(__HAL_RCC_GET_FLAG(RCC_FLAG_PLLRDY)  != RESET)
 800adb2:	2501      	movs	r5, #1
 800adb4:	fa97 f3a7 	rbit	r3, r7
 800adb8:	680a      	ldr	r2, [r1, #0]
 800adba:	fa97 f3a7 	rbit	r3, r7
 800adbe:	fab3 f383 	clz	r3, r3
 800adc2:	f003 031f 	and.w	r3, r3, #31
 800adc6:	fa05 f303 	lsl.w	r3, r5, r3
 800adca:	4213      	tst	r3, r2
 800adcc:	d12d      	bne.n	800ae2a <HAL_RCC_OscConfig+0x476>
      __HAL_RCC_PLL_CONFIG(RCC_OscInitStruct->PLL.PLLSource,
 800adce:	e9d4 0308 	ldrd	r0, r3, [r4, #32]
 800add2:	684a      	ldr	r2, [r1, #4]
 800add4:	4303      	orrs	r3, r0
 800add6:	f422 1274 	bic.w	r2, r2, #3997696	; 0x3d0000
 800adda:	4313      	orrs	r3, r2
 800addc:	604b      	str	r3, [r1, #4]
 800adde:	f04f 7380 	mov.w	r3, #16777216	; 0x1000000
 800ade2:	fa93 f3a3 	rbit	r3, r3
        __HAL_RCC_PLL_ENABLE();
 800ade6:	fab3 f383 	clz	r3, r3
 800adea:	f103 5384 	add.w	r3, r3, #276824064	; 0x10800000
 800adee:	f503 1384 	add.w	r3, r3, #1081344	; 0x108000
 800adf2:	009b      	lsls	r3, r3, #2
        while(__HAL_RCC_GET_FLAG(RCC_FLAG_PLLRDY)  == RESET)
 800adf4:	2601      	movs	r6, #1
        __HAL_RCC_PLL_ENABLE();
 800adf6:	601d      	str	r5, [r3, #0]
        tickstart = HAL_GetTick();
 800adf8:	f7ff fdd4 	bl	800a9a4 <HAL_GetTick>
 800adfc:	f04f 7500 	mov.w	r5, #33554432	; 0x2000000
 800ae00:	4604      	mov	r4, r0
 800ae02:	fa95 f3a5 	rbit	r3, r5
        while(__HAL_RCC_GET_FLAG(RCC_FLAG_PLLRDY)  == RESET)
 800ae06:	680a      	ldr	r2, [r1, #0]
 800ae08:	fa95 f3a5 	rbit	r3, r5
 800ae0c:	fab3 f383 	clz	r3, r3
 800ae10:	f003 031f 	and.w	r3, r3, #31
 800ae14:	fa06 f303 	lsl.w	r3, r6, r3
 800ae18:	4213      	tst	r3, r2
 800ae1a:	f47f ade1 	bne.w	800a9e0 <HAL_RCC_OscConfig+0x2c>
          if((HAL_GetTick() - tickstart ) > PLL_TIMEOUT_VALUE)
 800ae1e:	f7ff fdc1 	bl	800a9a4 <HAL_GetTick>
 800ae22:	1b00      	subs	r0, r0, r4
 800ae24:	2802      	cmp	r0, #2
 800ae26:	d9ec      	bls.n	800ae02 <HAL_RCC_OscConfig+0x44e>
 800ae28:	e628      	b.n	800aa7c <HAL_RCC_OscConfig+0xc8>
          if((HAL_GetTick() - tickstart ) > PLL_TIMEOUT_VALUE)
 800ae2a:	f7ff fdbb 	bl	800a9a4 <HAL_GetTick>
 800ae2e:	1b83      	subs	r3, r0, r6
 800ae30:	2b02      	cmp	r3, #2
 800ae32:	d9bf      	bls.n	800adb4 <HAL_RCC_OscConfig+0x400>
 800ae34:	e622      	b.n	800aa7c <HAL_RCC_OscConfig+0xc8>
 800ae36:	fa93 f3a3 	rbit	r3, r3
        __HAL_RCC_PLL_DISABLE();
 800ae3a:	fab3 f383 	clz	r3, r3
 800ae3e:	f103 5384 	add.w	r3, r3, #276824064	; 0x10800000
 800ae42:	f503 1384 	add.w	r3, r3, #1081344	; 0x108000
 800ae46:	009b      	lsls	r3, r3, #2
 800ae48:	2200      	movs	r2, #0
 800ae4a:	601a      	str	r2, [r3, #0]
        tickstart = HAL_GetTick();
 800ae4c:	f7ff fdaa 	bl	800a9a4 <HAL_GetTick>
 800ae50:	f04f 7500 	mov.w	r5, #33554432	; 0x2000000
 800ae54:	4604      	mov	r4, r0
        while(__HAL_RCC_GET_FLAG(RCC_FLAG_PLLRDY)  != RESET)
 800ae56:	2601      	movs	r6, #1
 800ae58:	fa95 f3a5 	rbit	r3, r5
 800ae5c:	680a      	ldr	r2, [r1, #0]
 800ae5e:	fa95 f3a5 	rbit	r3, r5
 800ae62:	fab3 f383 	clz	r3, r3
 800ae66:	f003 031f 	and.w	r3, r3, #31
 800ae6a:	fa06 f303 	lsl.w	r3, r6, r3
 800ae6e:	4213      	tst	r3, r2
 800ae70:	f43f adb6 	beq.w	800a9e0 <HAL_RCC_OscConfig+0x2c>
          if((HAL_GetTick() - tickstart ) > PLL_TIMEOUT_VALUE)
 800ae74:	f7ff fd96 	bl	800a9a4 <HAL_GetTick>
 800ae78:	1b00      	subs	r0, r0, r4
 800ae7a:	2802      	cmp	r0, #2
 800ae7c:	d9ec      	bls.n	800ae58 <HAL_RCC_OscConfig+0x4a4>
 800ae7e:	e5fd      	b.n	800aa7c <HAL_RCC_OscConfig+0xc8>
 800ae80:	40021000 	.word	0x40021000

0800ae84 <HAL_RCC_ClockConfig>:
  /* To correctly read data from FLASH memory, the number of wait states (LATENCY) 
  must be correctly programmed according to the frequency of the CPU clock 
    (HCLK) of the device. */

  /* Increasing the number of wait states because of higher CPU frequency */
  if(FLatency > (FLASH->ACR & FLASH_ACR_LATENCY))
 800ae84:	4a50      	ldr	r2, [pc, #320]	; (800afc8 <HAL_RCC_ClockConfig+0x144>)
{
 800ae86:	b5f8      	push	{r3, r4, r5, r6, r7, lr}
  if(FLatency > (FLASH->ACR & FLASH_ACR_LATENCY))
 800ae88:	6813      	ldr	r3, [r2, #0]
 800ae8a:	f003 0307 	and.w	r3, r3, #7
 800ae8e:	428b      	cmp	r3, r1
{
 800ae90:	4604      	mov	r4, r0
  if(FLatency > (FLASH->ACR & FLASH_ACR_LATENCY))
 800ae92:	d31b      	bcc.n	800aecc <HAL_RCC_ClockConfig+0x48>
      return HAL_ERROR;
    }
  }

  /*-------------------------- HCLK Configuration --------------------------*/
  if(((RCC_ClkInitStruct->ClockType) & RCC_CLOCKTYPE_HCLK) == RCC_CLOCKTYPE_HCLK)
 800ae94:	6822      	ldr	r2, [r4, #0]
 800ae96:	0790      	lsls	r0, r2, #30
 800ae98:	d424      	bmi.n	800aee4 <HAL_RCC_ClockConfig+0x60>
    assert_param(IS_RCC_HCLK(RCC_ClkInitStruct->AHBCLKDivider));
    MODIFY_REG(RCC->CFGR, RCC_CFGR_HPRE, RCC_ClkInitStruct->AHBCLKDivider);
  }

  /*------------------------- SYSCLK Configuration ---------------------------*/ 
  if(((RCC_ClkInitStruct->ClockType) & RCC_CLOCKTYPE_SYSCLK) == RCC_CLOCKTYPE_SYSCLK)
 800ae9a:	07d2      	lsls	r2, r2, #31
 800ae9c:	d42a      	bmi.n	800aef4 <HAL_RCC_ClockConfig+0x70>
        }
      }
    }      
  }    
  /* Decreasing the number of wait states because of lower CPU frequency */
  if(FLatency < (FLASH->ACR & FLASH_ACR_LATENCY))
 800ae9e:	4a4a      	ldr	r2, [pc, #296]	; (800afc8 <HAL_RCC_ClockConfig+0x144>)
 800aea0:	6813      	ldr	r3, [r2, #0]
 800aea2:	f003 0307 	and.w	r3, r3, #7
 800aea6:	428b      	cmp	r3, r1
 800aea8:	d87a      	bhi.n	800afa0 <HAL_RCC_ClockConfig+0x11c>
      return HAL_ERROR;
    }
  }    

  /*-------------------------- PCLK1 Configuration ---------------------------*/ 
  if(((RCC_ClkInitStruct->ClockType) & RCC_CLOCKTYPE_PCLK1) == RCC_CLOCKTYPE_PCLK1)
 800aeaa:	6820      	ldr	r0, [r4, #0]
 800aeac:	0743      	lsls	r3, r0, #29
 800aeae:	f100 8082 	bmi.w	800afb6 <HAL_RCC_ClockConfig+0x132>
    assert_param(IS_RCC_PCLK(RCC_ClkInitStruct->APB1CLKDivider));
    MODIFY_REG(RCC->CFGR, RCC_CFGR_PPRE1, RCC_ClkInitStruct->APB1CLKDivider);
  }
  
  /*-------------------------- PCLK2 Configuration ---------------------------*/ 
  if(((RCC_ClkInitStruct->ClockType) & RCC_CLOCKTYPE_PCLK2) == RCC_CLOCKTYPE_PCLK2)
 800aeb2:	f010 0008 	ands.w	r0, r0, #8
 800aeb6:	d014      	beq.n	800aee2 <HAL_RCC_ClockConfig+0x5e>
  {
    assert_param(IS_RCC_PCLK(RCC_ClkInitStruct->APB2CLKDivider));
    MODIFY_REG(RCC->CFGR, RCC_CFGR_PPRE2, ((RCC_ClkInitStruct->APB2CLKDivider) << 3U));
 800aeb8:	4a44      	ldr	r2, [pc, #272]	; (800afcc <HAL_RCC_ClockConfig+0x148>)
 800aeba:	6921      	ldr	r1, [r4, #16]
 800aebc:	6853      	ldr	r3, [r2, #4]
 800aebe:	f423 5360 	bic.w	r3, r3, #14336	; 0x3800
 800aec2:	ea43 03c1 	orr.w	r3, r3, r1, lsl #3
 800aec6:	6053      	str	r3, [r2, #4]
  //SystemCoreClock = HAL_RCC_GetSysClockFreq() >> AHBPrescTable[(RCC->CFGR & RCC_CFGR_HPRE)>> RCC_CFGR_HPRE_BITNUMBER];

  /* Configure the source of time base considering new system clocks settings*/
  //HAL_InitTick (TICK_INT_PRIORITY);
  
  return HAL_OK;
 800aec8:	2000      	movs	r0, #0
 800aeca:	e00a      	b.n	800aee2 <HAL_RCC_ClockConfig+0x5e>
    __HAL_FLASH_SET_LATENCY(FLatency);
 800aecc:	6813      	ldr	r3, [r2, #0]
 800aece:	f023 0307 	bic.w	r3, r3, #7
 800aed2:	430b      	orrs	r3, r1
 800aed4:	6013      	str	r3, [r2, #0]
    if((FLASH->ACR & FLASH_ACR_LATENCY) != FLatency)
 800aed6:	6813      	ldr	r3, [r2, #0]
 800aed8:	f003 0307 	and.w	r3, r3, #7
 800aedc:	428b      	cmp	r3, r1
 800aede:	d0d9      	beq.n	800ae94 <HAL_RCC_ClockConfig+0x10>
      return HAL_ERROR;
 800aee0:	2001      	movs	r0, #1
}
 800aee2:	bdf8      	pop	{r3, r4, r5, r6, r7, pc}
    MODIFY_REG(RCC->CFGR, RCC_CFGR_HPRE, RCC_ClkInitStruct->AHBCLKDivider);
 800aee4:	4839      	ldr	r0, [pc, #228]	; (800afcc <HAL_RCC_ClockConfig+0x148>)
 800aee6:	68a5      	ldr	r5, [r4, #8]
 800aee8:	6843      	ldr	r3, [r0, #4]
 800aeea:	f023 03f0 	bic.w	r3, r3, #240	; 0xf0
 800aeee:	432b      	orrs	r3, r5
 800aef0:	6043      	str	r3, [r0, #4]
 800aef2:	e7d2      	b.n	800ae9a <HAL_RCC_ClockConfig+0x16>
    if(RCC_ClkInitStruct->SYSCLKSource == RCC_SYSCLKSOURCE_HSE)
 800aef4:	6862      	ldr	r2, [r4, #4]
 800aef6:	4d35      	ldr	r5, [pc, #212]	; (800afcc <HAL_RCC_ClockConfig+0x148>)
 800aef8:	2a01      	cmp	r2, #1
 800aefa:	d127      	bne.n	800af4c <HAL_RCC_ClockConfig+0xc8>
 800aefc:	f44f 3300 	mov.w	r3, #131072	; 0x20000
 800af00:	fa93 f0a3 	rbit	r0, r3
      if(__HAL_RCC_GET_FLAG(RCC_FLAG_HSERDY) == RESET)
 800af04:	6828      	ldr	r0, [r5, #0]
 800af06:	fa93 f3a3 	rbit	r3, r3
 800af0a:	fab3 f383 	clz	r3, r3
 800af0e:	f003 031f 	and.w	r3, r3, #31
 800af12:	fa02 f303 	lsl.w	r3, r2, r3
 800af16:	4203      	tst	r3, r0
      if(__HAL_RCC_GET_FLAG(RCC_FLAG_HSIRDY) == RESET)
 800af18:	d0e2      	beq.n	800aee0 <HAL_RCC_ClockConfig+0x5c>
    __HAL_RCC_SYSCLK_CONFIG(RCC_ClkInitStruct->SYSCLKSource);
 800af1a:	686b      	ldr	r3, [r5, #4]
 800af1c:	f023 0303 	bic.w	r3, r3, #3
 800af20:	431a      	orrs	r2, r3
 800af22:	606a      	str	r2, [r5, #4]
    tickstart = HAL_GetTick();
 800af24:	f7ff fd3e 	bl	800a9a4 <HAL_GetTick>
    if(RCC_ClkInitStruct->SYSCLKSource == RCC_SYSCLKSOURCE_HSE)
 800af28:	6863      	ldr	r3, [r4, #4]
 800af2a:	2b01      	cmp	r3, #1
    tickstart = HAL_GetTick();
 800af2c:	4606      	mov	r6, r0
        if((HAL_GetTick() - tickstart ) > CLOCKSWITCH_TIMEOUT_VALUE)
 800af2e:	f241 3788 	movw	r7, #5000	; 0x1388
    if(RCC_ClkInitStruct->SYSCLKSource == RCC_SYSCLKSOURCE_HSE)
 800af32:	d11e      	bne.n	800af72 <HAL_RCC_ClockConfig+0xee>
      while (__HAL_RCC_GET_SYSCLK_SOURCE() != RCC_SYSCLKSOURCE_STATUS_HSE)
 800af34:	686b      	ldr	r3, [r5, #4]
 800af36:	f003 030c 	and.w	r3, r3, #12
 800af3a:	2b04      	cmp	r3, #4
 800af3c:	d0af      	beq.n	800ae9e <HAL_RCC_ClockConfig+0x1a>
        if((HAL_GetTick() - tickstart ) > CLOCKSWITCH_TIMEOUT_VALUE)
 800af3e:	f7ff fd31 	bl	800a9a4 <HAL_GetTick>
 800af42:	1b80      	subs	r0, r0, r6
 800af44:	42b8      	cmp	r0, r7
 800af46:	d9f5      	bls.n	800af34 <HAL_RCC_ClockConfig+0xb0>
          return HAL_TIMEOUT;
 800af48:	2003      	movs	r0, #3
 800af4a:	e7ca      	b.n	800aee2 <HAL_RCC_ClockConfig+0x5e>
    else if(RCC_ClkInitStruct->SYSCLKSource == RCC_SYSCLKSOURCE_PLLCLK)
 800af4c:	2a02      	cmp	r2, #2
 800af4e:	bf0c      	ite	eq
 800af50:	f04f 7300 	moveq.w	r3, #33554432	; 0x2000000
 800af54:	2302      	movne	r3, #2
 800af56:	fa93 f0a3 	rbit	r0, r3
      if(__HAL_RCC_GET_FLAG(RCC_FLAG_HSIRDY) == RESET)
 800af5a:	682e      	ldr	r6, [r5, #0]
 800af5c:	fa93 f3a3 	rbit	r3, r3
 800af60:	fab3 f383 	clz	r3, r3
 800af64:	f003 031f 	and.w	r3, r3, #31
 800af68:	2001      	movs	r0, #1
 800af6a:	fa00 f303 	lsl.w	r3, r0, r3
 800af6e:	4233      	tst	r3, r6
 800af70:	e7d2      	b.n	800af18 <HAL_RCC_ClockConfig+0x94>
    else if(RCC_ClkInitStruct->SYSCLKSource == RCC_SYSCLKSOURCE_PLLCLK)
 800af72:	2b02      	cmp	r3, #2
 800af74:	d10f      	bne.n	800af96 <HAL_RCC_ClockConfig+0x112>
      while (__HAL_RCC_GET_SYSCLK_SOURCE() != RCC_SYSCLKSOURCE_STATUS_PLLCLK)
 800af76:	686b      	ldr	r3, [r5, #4]
 800af78:	f003 030c 	and.w	r3, r3, #12
 800af7c:	2b08      	cmp	r3, #8
 800af7e:	d08e      	beq.n	800ae9e <HAL_RCC_ClockConfig+0x1a>
        if((HAL_GetTick() - tickstart ) > CLOCKSWITCH_TIMEOUT_VALUE)
 800af80:	f7ff fd10 	bl	800a9a4 <HAL_GetTick>
 800af84:	1b80      	subs	r0, r0, r6
 800af86:	42b8      	cmp	r0, r7
 800af88:	d9f5      	bls.n	800af76 <HAL_RCC_ClockConfig+0xf2>
 800af8a:	e7dd      	b.n	800af48 <HAL_RCC_ClockConfig+0xc4>
        if((HAL_GetTick() - tickstart ) > CLOCKSWITCH_TIMEOUT_VALUE)
 800af8c:	f7ff fd0a 	bl	800a9a4 <HAL_GetTick>
 800af90:	1b80      	subs	r0, r0, r6
 800af92:	42b8      	cmp	r0, r7
 800af94:	d8d8      	bhi.n	800af48 <HAL_RCC_ClockConfig+0xc4>
      while (__HAL_RCC_GET_SYSCLK_SOURCE() != RCC_SYSCLKSOURCE_STATUS_HSI)
 800af96:	686b      	ldr	r3, [r5, #4]
 800af98:	f013 0f0c 	tst.w	r3, #12
 800af9c:	d1f6      	bne.n	800af8c <HAL_RCC_ClockConfig+0x108>
 800af9e:	e77e      	b.n	800ae9e <HAL_RCC_ClockConfig+0x1a>
    __HAL_FLASH_SET_LATENCY(FLatency);
 800afa0:	6813      	ldr	r3, [r2, #0]
 800afa2:	f023 0307 	bic.w	r3, r3, #7
 800afa6:	430b      	orrs	r3, r1
 800afa8:	6013      	str	r3, [r2, #0]
    if((FLASH->ACR & FLASH_ACR_LATENCY) != FLatency)
 800afaa:	6813      	ldr	r3, [r2, #0]
 800afac:	f003 0307 	and.w	r3, r3, #7
 800afb0:	428b      	cmp	r3, r1
 800afb2:	d195      	bne.n	800aee0 <HAL_RCC_ClockConfig+0x5c>
 800afb4:	e779      	b.n	800aeaa <HAL_RCC_ClockConfig+0x26>
    MODIFY_REG(RCC->CFGR, RCC_CFGR_PPRE1, RCC_ClkInitStruct->APB1CLKDivider);
 800afb6:	4905      	ldr	r1, [pc, #20]	; (800afcc <HAL_RCC_ClockConfig+0x148>)
 800afb8:	68e3      	ldr	r3, [r4, #12]
 800afba:	684a      	ldr	r2, [r1, #4]
 800afbc:	f422 62e0 	bic.w	r2, r2, #1792	; 0x700
 800afc0:	431a      	orrs	r2, r3
 800afc2:	604a      	str	r2, [r1, #4]
 800afc4:	e775      	b.n	800aeb2 <HAL_RCC_ClockConfig+0x2e>
 800afc6:	bf00      	nop
 800afc8:	40022000 	.word	0x40022000
 800afcc:	40021000 	.word	0x40021000

0800afd0 <UART_SetConfig>:
   *  set the M bits according to huart->Init.WordLength value
   *  set PCE and PS bits according to huart->Init.Parity value
   *  set TE and RE bits according to huart->Init.Mode value
   *  set OVER8 bit according to huart->Init.OverSampling value */
  tmpreg = (uint32_t)huart->Init.WordLength | huart->Init.Parity | huart->Init.Mode | huart->Init.OverSampling ;
  MODIFY_REG(huart->Instance->CR1, UART_CR1_FIELDS, tmpreg);
 800afd0:	6802      	ldr	r2, [r0, #0]
  tmpreg = (uint32_t)huart->Init.WordLength | huart->Init.Parity | huart->Init.Mode | huart->Init.OverSampling ;
 800afd2:	6881      	ldr	r1, [r0, #8]
 800afd4:	69c3      	ldr	r3, [r0, #28]
{
 800afd6:	b530      	push	{r4, r5, lr}
  tmpreg = (uint32_t)huart->Init.WordLength | huart->Init.Parity | huart->Init.Mode | huart->Init.OverSampling ;
 800afd8:	6905      	ldr	r5, [r0, #16]
  MODIFY_REG(huart->Instance->CR1, UART_CR1_FIELDS, tmpreg);
 800afda:	6814      	ldr	r4, [r2, #0]
  tmpreg = (uint32_t)huart->Init.WordLength | huart->Init.Parity | huart->Init.Mode | huart->Init.OverSampling ;
 800afdc:	4329      	orrs	r1, r5
 800afde:	6945      	ldr	r5, [r0, #20]
  MODIFY_REG(huart->Instance->CR1, UART_CR1_FIELDS, tmpreg);
 800afe0:	f424 4416 	bic.w	r4, r4, #38400	; 0x9600
  tmpreg = (uint32_t)huart->Init.WordLength | huart->Init.Parity | huart->Init.Mode | huart->Init.OverSampling ;
 800afe4:	4329      	orrs	r1, r5
  MODIFY_REG(huart->Instance->CR1, UART_CR1_FIELDS, tmpreg);
 800afe6:	f024 040c 	bic.w	r4, r4, #12
  tmpreg = (uint32_t)huart->Init.WordLength | huart->Init.Parity | huart->Init.Mode | huart->Init.OverSampling ;
 800afea:	4319      	orrs	r1, r3
  MODIFY_REG(huart->Instance->CR1, UART_CR1_FIELDS, tmpreg);
 800afec:	4321      	orrs	r1, r4
 800afee:	6011      	str	r1, [r2, #0]

  /*-------------------------- USART CR2 Configuration -----------------------*/
  /* Configure the UART Stop Bits: Set STOP[13:12] bits according
   * to huart->Init.StopBits value */
  MODIFY_REG(huart->Instance->CR2, USART_CR2_STOP, huart->Init.StopBits);
 800aff0:	6851      	ldr	r1, [r2, #4]
 800aff2:	68c4      	ldr	r4, [r0, #12]
  /* Configure
   * - UART HardWare Flow Control: set CTSE and RTSE bits according
   *   to huart->Init.HwFlowCtl value
   * - one-bit sampling method versus three samples' majority rule according
   *   to huart->Init.OneBitSampling */
  tmpreg = (uint32_t)huart->Init.HwFlowCtl | huart->Init.OneBitSampling ;
 800aff4:	6a05      	ldr	r5, [r0, #32]
  MODIFY_REG(huart->Instance->CR2, USART_CR2_STOP, huart->Init.StopBits);
 800aff6:	f421 5140 	bic.w	r1, r1, #12288	; 0x3000
 800affa:	4321      	orrs	r1, r4
 800affc:	6051      	str	r1, [r2, #4]
  MODIFY_REG(huart->Instance->CR3, (USART_CR3_RTSE | USART_CR3_CTSE | USART_CR3_ONEBIT), tmpreg);
 800affe:	6894      	ldr	r4, [r2, #8]
  tmpreg = (uint32_t)huart->Init.HwFlowCtl | huart->Init.OneBitSampling ;
 800b000:	6981      	ldr	r1, [r0, #24]
  MODIFY_REG(huart->Instance->CR3, (USART_CR3_RTSE | USART_CR3_CTSE | USART_CR3_ONEBIT), tmpreg);
 800b002:	f424 6430 	bic.w	r4, r4, #2816	; 0xb00
  tmpreg = (uint32_t)huart->Init.HwFlowCtl | huart->Init.OneBitSampling ;
 800b006:	4329      	orrs	r1, r5
  MODIFY_REG(huart->Instance->CR3, (USART_CR3_RTSE | USART_CR3_CTSE | USART_CR3_ONEBIT), tmpreg);
 800b008:	4321      	orrs	r1, r4
 800b00a:	6091      	str	r1, [r2, #8]

  /*-------------------------- USART BRR Configuration -----------------------*/
  UART_GETCLOCKSOURCE(huart, clocksource);
 800b00c:	4962      	ldr	r1, [pc, #392]	; (800b198 <UART_SetConfig+0x1c8>)
 800b00e:	428a      	cmp	r2, r1
 800b010:	d116      	bne.n	800b040 <UART_SetConfig+0x70>
 800b012:	f501 4158 	add.w	r1, r1, #55296	; 0xd800
 800b016:	6b09      	ldr	r1, [r1, #48]	; 0x30
 800b018:	f001 0103 	and.w	r1, r1, #3
 800b01c:	3901      	subs	r1, #1
 800b01e:	2902      	cmp	r1, #2
 800b020:	f200 80b2 	bhi.w	800b188 <UART_SetConfig+0x1b8>
 800b024:	4c5d      	ldr	r4, [pc, #372]	; (800b19c <UART_SetConfig+0x1cc>)

  /* Check UART Over Sampling to set Baud Rate Register */
  if (huart->Init.OverSampling == UART_OVERSAMPLING_8)
 800b026:	f5b3 4f00 	cmp.w	r3, #32768	; 0x8000
 800b02a:	5c61      	ldrb	r1, [r4, r1]
 800b02c:	d177      	bne.n	800b11e <UART_SetConfig+0x14e>
  {
    switch (clocksource)
 800b02e:	2908      	cmp	r1, #8
 800b030:	d872      	bhi.n	800b118 <UART_SetConfig+0x148>
 800b032:	e8df f001 	tbb	[pc, r1]
 800b036:	acac      	.short	0xacac
 800b038:	71ac7124 	.word	0x71ac7124
 800b03c:	7171      	.short	0x7171
 800b03e:	a4          	.byte	0xa4
 800b03f:	00          	.byte	0x00
  UART_GETCLOCKSOURCE(huart, clocksource);
 800b040:	4957      	ldr	r1, [pc, #348]	; (800b1a0 <UART_SetConfig+0x1d0>)
 800b042:	428a      	cmp	r2, r1
 800b044:	d12c      	bne.n	800b0a0 <UART_SetConfig+0xd0>
 800b046:	f501 31e6 	add.w	r1, r1, #117760	; 0x1cc00
 800b04a:	6b09      	ldr	r1, [r1, #48]	; 0x30
 800b04c:	f401 3140 	and.w	r1, r1, #196608	; 0x30000
 800b050:	f5b1 3f00 	cmp.w	r1, #131072	; 0x20000
 800b054:	f000 8090 	beq.w	800b178 <UART_SetConfig+0x1a8>
 800b058:	d80b      	bhi.n	800b072 <UART_SetConfig+0xa2>
 800b05a:	2900      	cmp	r1, #0
 800b05c:	f000 8094 	beq.w	800b188 <UART_SetConfig+0x1b8>
 800b060:	f5b1 3f80 	cmp.w	r1, #65536	; 0x10000
 800b064:	f000 8090 	beq.w	800b188 <UART_SetConfig+0x1b8>
  if (huart->Init.OverSampling == UART_OVERSAMPLING_8)
 800b068:	f5b3 4f00 	cmp.w	r3, #32768	; 0x8000
 800b06c:	d054      	beq.n	800b118 <UART_SetConfig+0x148>
      case UART_CLOCKSOURCE_LSE:
        huart->Instance->BRR = (uint16_t)(UART_DIV_SAMPLING16(LSE_VALUE, huart->Init.BaudRate));
        break;
      case UART_CLOCKSOURCE_UNDEFINED:
      default:
        ret = HAL_ERROR;
 800b06e:	2001      	movs	r0, #1
        break;
    }
  }

  return ret;
 800b070:	e015      	b.n	800b09e <UART_SetConfig+0xce>
  UART_GETCLOCKSOURCE(huart, clocksource);
 800b072:	f5b1 3f40 	cmp.w	r1, #196608	; 0x30000
 800b076:	d1f7      	bne.n	800b068 <UART_SetConfig+0x98>
  if (huart->Init.OverSampling == UART_OVERSAMPLING_8)
 800b078:	f5b3 4f00 	cmp.w	r3, #32768	; 0x8000
 800b07c:	d166      	bne.n	800b14c <UART_SetConfig+0x17c>
        usartdiv = (uint16_t)(UART_DIV_SAMPLING8(HSI_VALUE, huart->Init.BaudRate));
 800b07e:	6841      	ldr	r1, [r0, #4]
 800b080:	084b      	lsrs	r3, r1, #1
 800b082:	f103 73f4 	add.w	r3, r3, #31981568	; 0x1e80000
 800b086:	f503 4390 	add.w	r3, r3, #18432	; 0x4800
        usartdiv = (uint16_t)(UART_DIV_SAMPLING8(LSE_VALUE, huart->Init.BaudRate));
 800b08a:	fbb3 f3f1 	udiv	r3, r3, r1
  HAL_StatusTypeDef ret               = HAL_OK;
 800b08e:	2000      	movs	r0, #0
        usartdiv = (uint16_t)(UART_DIV_SAMPLING8(LSE_VALUE, huart->Init.BaudRate));
 800b090:	b29b      	uxth	r3, r3
    brrtemp = usartdiv & 0xFFF0U;
 800b092:	f023 010f 	bic.w	r1, r3, #15
    brrtemp |= (uint16_t)((usartdiv & (uint16_t)0x000FU) >> 1U);
 800b096:	f3c3 0342 	ubfx	r3, r3, #1, #3
    huart->Instance->BRR = brrtemp;
 800b09a:	430b      	orrs	r3, r1
 800b09c:	60d3      	str	r3, [r2, #12]

}
 800b09e:	bd30      	pop	{r4, r5, pc}
  UART_GETCLOCKSOURCE(huart, clocksource);
 800b0a0:	4940      	ldr	r1, [pc, #256]	; (800b1a4 <UART_SetConfig+0x1d4>)
 800b0a2:	428a      	cmp	r2, r1
 800b0a4:	d110      	bne.n	800b0c8 <UART_SetConfig+0xf8>
 800b0a6:	f501 31e4 	add.w	r1, r1, #116736	; 0x1c800
 800b0aa:	6b09      	ldr	r1, [r1, #48]	; 0x30
 800b0ac:	f401 2140 	and.w	r1, r1, #786432	; 0xc0000
 800b0b0:	f5b1 2f00 	cmp.w	r1, #524288	; 0x80000
 800b0b4:	d060      	beq.n	800b178 <UART_SetConfig+0x1a8>
 800b0b6:	d804      	bhi.n	800b0c2 <UART_SetConfig+0xf2>
 800b0b8:	2900      	cmp	r1, #0
 800b0ba:	d065      	beq.n	800b188 <UART_SetConfig+0x1b8>
 800b0bc:	f5b1 2f80 	cmp.w	r1, #262144	; 0x40000
 800b0c0:	e7d0      	b.n	800b064 <UART_SetConfig+0x94>
 800b0c2:	f5b1 2f40 	cmp.w	r1, #786432	; 0xc0000
 800b0c6:	e7d6      	b.n	800b076 <UART_SetConfig+0xa6>
 800b0c8:	4937      	ldr	r1, [pc, #220]	; (800b1a8 <UART_SetConfig+0x1d8>)
 800b0ca:	428a      	cmp	r2, r1
 800b0cc:	d110      	bne.n	800b0f0 <UART_SetConfig+0x120>
 800b0ce:	f501 31e2 	add.w	r1, r1, #115712	; 0x1c400
 800b0d2:	6b09      	ldr	r1, [r1, #48]	; 0x30
 800b0d4:	f401 1140 	and.w	r1, r1, #3145728	; 0x300000
 800b0d8:	f5b1 1f00 	cmp.w	r1, #2097152	; 0x200000
 800b0dc:	d04c      	beq.n	800b178 <UART_SetConfig+0x1a8>
 800b0de:	d804      	bhi.n	800b0ea <UART_SetConfig+0x11a>
 800b0e0:	2900      	cmp	r1, #0
 800b0e2:	d051      	beq.n	800b188 <UART_SetConfig+0x1b8>
 800b0e4:	f5b1 1f80 	cmp.w	r1, #1048576	; 0x100000
 800b0e8:	e7bc      	b.n	800b064 <UART_SetConfig+0x94>
 800b0ea:	f5b1 1f40 	cmp.w	r1, #3145728	; 0x300000
 800b0ee:	e7c2      	b.n	800b076 <UART_SetConfig+0xa6>
 800b0f0:	492e      	ldr	r1, [pc, #184]	; (800b1ac <UART_SetConfig+0x1dc>)
 800b0f2:	428a      	cmp	r2, r1
 800b0f4:	d1b8      	bne.n	800b068 <UART_SetConfig+0x98>
 800b0f6:	f501 31e0 	add.w	r1, r1, #114688	; 0x1c000
 800b0fa:	6b09      	ldr	r1, [r1, #48]	; 0x30
 800b0fc:	f401 0140 	and.w	r1, r1, #12582912	; 0xc00000
 800b100:	f5b1 0f00 	cmp.w	r1, #8388608	; 0x800000
 800b104:	d038      	beq.n	800b178 <UART_SetConfig+0x1a8>
 800b106:	d804      	bhi.n	800b112 <UART_SetConfig+0x142>
 800b108:	2900      	cmp	r1, #0
 800b10a:	d03d      	beq.n	800b188 <UART_SetConfig+0x1b8>
 800b10c:	f5b1 0f80 	cmp.w	r1, #4194304	; 0x400000
 800b110:	e7a8      	b.n	800b064 <UART_SetConfig+0x94>
 800b112:	f5b1 0f40 	cmp.w	r1, #12582912	; 0xc00000
 800b116:	e7ae      	b.n	800b076 <UART_SetConfig+0xa6>
        ret = HAL_ERROR;
 800b118:	2001      	movs	r0, #1
  uint16_t usartdiv                   = 0x0000U;
 800b11a:	2300      	movs	r3, #0
 800b11c:	e7b9      	b.n	800b092 <UART_SetConfig+0xc2>
    switch (clocksource)
 800b11e:	2908      	cmp	r1, #8
 800b120:	d8a5      	bhi.n	800b06e <UART_SetConfig+0x9e>
 800b122:	a301      	add	r3, pc, #4	; (adr r3, 800b128 <UART_SetConfig+0x158>)
 800b124:	f853 f021 	ldr.w	pc, [r3, r1, lsl #2]
 800b128:	0800b165 	.word	0x0800b165
 800b12c:	0800b165 	.word	0x0800b165
 800b130:	0800b14d 	.word	0x0800b14d
 800b134:	0800b06f 	.word	0x0800b06f
 800b138:	0800b165 	.word	0x0800b165
 800b13c:	0800b06f 	.word	0x0800b06f
 800b140:	0800b06f 	.word	0x0800b06f
 800b144:	0800b06f 	.word	0x0800b06f
 800b148:	0800b16f 	.word	0x0800b16f
        huart->Instance->BRR = (uint16_t)(UART_DIV_SAMPLING16(HSI_VALUE, huart->Init.BaudRate));
 800b14c:	6841      	ldr	r1, [r0, #4]
 800b14e:	084b      	lsrs	r3, r1, #1
 800b150:	f503 0374 	add.w	r3, r3, #15990784	; 0xf40000
 800b154:	f503 5310 	add.w	r3, r3, #9216	; 0x2400
        huart->Instance->BRR = (uint16_t)(UART_DIV_SAMPLING16(LSE_VALUE, huart->Init.BaudRate));
 800b158:	fbb3 f3f1 	udiv	r3, r3, r1
 800b15c:	b29b      	uxth	r3, r3
 800b15e:	60d3      	str	r3, [r2, #12]
  HAL_StatusTypeDef ret               = HAL_OK;
 800b160:	2000      	movs	r0, #0
        break;
 800b162:	e79c      	b.n	800b09e <UART_SetConfig+0xce>
        huart->Instance->BRR = (uint16_t)(UART_DIV_SAMPLING16(HAL_RCC_GetSysClockFreq(), huart->Init.BaudRate));
 800b164:	6841      	ldr	r1, [r0, #4]
 800b166:	084b      	lsrs	r3, r1, #1
 800b168:	f503 03e1 	add.w	r3, r3, #7372800	; 0x708000
 800b16c:	e7f4      	b.n	800b158 <UART_SetConfig+0x188>
        huart->Instance->BRR = (uint16_t)(UART_DIV_SAMPLING16(LSE_VALUE, huart->Init.BaudRate));
 800b16e:	6841      	ldr	r1, [r0, #4]
 800b170:	084b      	lsrs	r3, r1, #1
 800b172:	f503 4300 	add.w	r3, r3, #32768	; 0x8000
 800b176:	e7ef      	b.n	800b158 <UART_SetConfig+0x188>
  if (huart->Init.OverSampling == UART_OVERSAMPLING_8)
 800b178:	f5b3 4f00 	cmp.w	r3, #32768	; 0x8000
 800b17c:	d1f7      	bne.n	800b16e <UART_SetConfig+0x19e>
        usartdiv = (uint16_t)(UART_DIV_SAMPLING8(LSE_VALUE, huart->Init.BaudRate));
 800b17e:	6841      	ldr	r1, [r0, #4]
 800b180:	084b      	lsrs	r3, r1, #1
 800b182:	f503 3380 	add.w	r3, r3, #65536	; 0x10000
 800b186:	e780      	b.n	800b08a <UART_SetConfig+0xba>
  if (huart->Init.OverSampling == UART_OVERSAMPLING_8)
 800b188:	f5b3 4f00 	cmp.w	r3, #32768	; 0x8000
 800b18c:	d1ea      	bne.n	800b164 <UART_SetConfig+0x194>
        usartdiv = (uint16_t)(UART_DIV_SAMPLING8(HAL_RCC_GetSysClockFreq(), huart->Init.BaudRate));
 800b18e:	6841      	ldr	r1, [r0, #4]
 800b190:	084b      	lsrs	r3, r1, #1
 800b192:	f503 0361 	add.w	r3, r3, #14745600	; 0xe10000
 800b196:	e778      	b.n	800b08a <UART_SetConfig+0xba>
 800b198:	40013800 	.word	0x40013800
 800b19c:	0800b4b8 	.word	0x0800b4b8
 800b1a0:	40004400 	.word	0x40004400
 800b1a4:	40004800 	.word	0x40004800
 800b1a8:	40004c00 	.word	0x40004c00
 800b1ac:	40005000 	.word	0x40005000

0800b1b0 <UART_WaitOnFlagUntilTimeout>:
  * @param  Tickstart Tick start value
  * @param  Timeout Timeout duration
  * @retval HAL status
  */
HAL_StatusTypeDef UART_WaitOnFlagUntilTimeout(UART_HandleTypeDef *huart, uint32_t Flag, FlagStatus Status, uint32_t Tickstart, uint32_t Timeout)
{
 800b1b0:	b5f8      	push	{r3, r4, r5, r6, r7, lr}
 800b1b2:	9f06      	ldr	r7, [sp, #24]
 800b1b4:	4604      	mov	r4, r0
 800b1b6:	4615      	mov	r5, r2
 800b1b8:	461e      	mov	r6, r3
  /* Wait until flag is set */
  while((__HAL_UART_GET_FLAG(huart, Flag) ? SET : RESET) == Status)
 800b1ba:	6822      	ldr	r2, [r4, #0]
 800b1bc:	69d3      	ldr	r3, [r2, #28]
 800b1be:	ea31 0303 	bics.w	r3, r1, r3
 800b1c2:	bf0c      	ite	eq
 800b1c4:	2301      	moveq	r3, #1
 800b1c6:	2300      	movne	r3, #0
 800b1c8:	42ab      	cmp	r3, r5
 800b1ca:	d001      	beq.n	800b1d0 <UART_WaitOnFlagUntilTimeout+0x20>
        __HAL_UNLOCK(huart);
        return HAL_TIMEOUT;
      }
    }
  }
  return HAL_OK;
 800b1cc:	2000      	movs	r0, #0
 800b1ce:	e014      	b.n	800b1fa <UART_WaitOnFlagUntilTimeout+0x4a>
    if(Timeout != HAL_MAX_DELAY)
 800b1d0:	1c7b      	adds	r3, r7, #1
 800b1d2:	d0f3      	beq.n	800b1bc <UART_WaitOnFlagUntilTimeout+0xc>
      if((Timeout == 0U) || ((HAL_GetTick()-Tickstart) > Timeout))
 800b1d4:	b997      	cbnz	r7, 800b1fc <UART_WaitOnFlagUntilTimeout+0x4c>
        CLEAR_BIT(huart->Instance->CR1, (USART_CR1_RXNEIE | USART_CR1_PEIE | USART_CR1_TXEIE));
 800b1d6:	6823      	ldr	r3, [r4, #0]
 800b1d8:	681a      	ldr	r2, [r3, #0]
 800b1da:	f422 72d0 	bic.w	r2, r2, #416	; 0x1a0
 800b1de:	601a      	str	r2, [r3, #0]
        CLEAR_BIT(huart->Instance->CR3, USART_CR3_EIE);
 800b1e0:	689a      	ldr	r2, [r3, #8]
 800b1e2:	f022 0201 	bic.w	r2, r2, #1
 800b1e6:	609a      	str	r2, [r3, #8]
        huart->gState  = HAL_UART_STATE_READY;
 800b1e8:	2320      	movs	r3, #32
 800b1ea:	f884 3069 	strb.w	r3, [r4, #105]	; 0x69
        huart->RxState = HAL_UART_STATE_READY;
 800b1ee:	f884 306a 	strb.w	r3, [r4, #106]	; 0x6a
        __HAL_UNLOCK(huart);
 800b1f2:	2300      	movs	r3, #0
 800b1f4:	f884 3068 	strb.w	r3, [r4, #104]	; 0x68
 800b1f8:	2003      	movs	r0, #3
}
 800b1fa:	bdf8      	pop	{r3, r4, r5, r6, r7, pc}
      if((Timeout == 0U) || ((HAL_GetTick()-Tickstart) > Timeout))
 800b1fc:	f7ff fbd2 	bl	800a9a4 <HAL_GetTick>
 800b200:	1b80      	subs	r0, r0, r6
 800b202:	42b8      	cmp	r0, r7
 800b204:	d9d9      	bls.n	800b1ba <UART_WaitOnFlagUntilTimeout+0xa>
 800b206:	e7e6      	b.n	800b1d6 <UART_WaitOnFlagUntilTimeout+0x26>

0800b208 <UART_CheckIdleState>:
{
 800b208:	b537      	push	{r0, r1, r2, r4, r5, lr}
 800b20a:	4604      	mov	r4, r0
  huart->ErrorCode = HAL_UART_ERROR_NONE;
 800b20c:	2100      	movs	r1, #0
 800b20e:	66c1      	str	r1, [r0, #108]	; 0x6c
  tickstart = HAL_GetTick();
 800b210:	f7ff fbc8 	bl	800a9a4 <HAL_GetTick>
  if((huart->Instance->CR1 & USART_CR1_TE) == USART_CR1_TE)
 800b214:	6823      	ldr	r3, [r4, #0]
 800b216:	681b      	ldr	r3, [r3, #0]
 800b218:	071a      	lsls	r2, r3, #28
  tickstart = HAL_GetTick();
 800b21a:	4605      	mov	r5, r0
  if((huart->Instance->CR1 & USART_CR1_TE) == USART_CR1_TE)
 800b21c:	d417      	bmi.n	800b24e <UART_CheckIdleState+0x46>
  if((huart->Instance->CR1 & USART_CR1_RE) == USART_CR1_RE)
 800b21e:	6823      	ldr	r3, [r4, #0]
 800b220:	681b      	ldr	r3, [r3, #0]
 800b222:	075b      	lsls	r3, r3, #29
 800b224:	d50a      	bpl.n	800b23c <UART_CheckIdleState+0x34>
    if(UART_WaitOnFlagUntilTimeout(huart, USART_ISR_REACK, RESET, tickstart, HAL_UART_TIMEOUT_VALUE) != HAL_OK)
 800b226:	f06f 437e 	mvn.w	r3, #4261412864	; 0xfe000000
 800b22a:	9300      	str	r3, [sp, #0]
 800b22c:	2200      	movs	r2, #0
 800b22e:	462b      	mov	r3, r5
 800b230:	f44f 0180 	mov.w	r1, #4194304	; 0x400000
 800b234:	4620      	mov	r0, r4
 800b236:	f7ff ffbb 	bl	800b1b0 <UART_WaitOnFlagUntilTimeout>
 800b23a:	b9a0      	cbnz	r0, 800b266 <UART_CheckIdleState+0x5e>
  huart->gState  = HAL_UART_STATE_READY;
 800b23c:	2320      	movs	r3, #32
  __HAL_UNLOCK(huart);
 800b23e:	2000      	movs	r0, #0
  huart->gState  = HAL_UART_STATE_READY;
 800b240:	f884 3069 	strb.w	r3, [r4, #105]	; 0x69
  __HAL_UNLOCK(huart);
 800b244:	f884 0068 	strb.w	r0, [r4, #104]	; 0x68
  huart->RxState = HAL_UART_STATE_READY;
 800b248:	f884 306a 	strb.w	r3, [r4, #106]	; 0x6a
  return HAL_OK;
 800b24c:	e00c      	b.n	800b268 <UART_CheckIdleState+0x60>
    if(UART_WaitOnFlagUntilTimeout(huart, USART_ISR_TEACK, RESET, tickstart, HAL_UART_TIMEOUT_VALUE) != HAL_OK)
 800b24e:	f06f 437e 	mvn.w	r3, #4261412864	; 0xfe000000
 800b252:	9300      	str	r3, [sp, #0]
 800b254:	460a      	mov	r2, r1
 800b256:	4603      	mov	r3, r0
 800b258:	f44f 1100 	mov.w	r1, #2097152	; 0x200000
 800b25c:	4620      	mov	r0, r4
 800b25e:	f7ff ffa7 	bl	800b1b0 <UART_WaitOnFlagUntilTimeout>
 800b262:	2800      	cmp	r0, #0
 800b264:	d0db      	beq.n	800b21e <UART_CheckIdleState+0x16>
      return HAL_TIMEOUT;
 800b266:	2003      	movs	r0, #3
}
 800b268:	b003      	add	sp, #12
 800b26a:	bd30      	pop	{r4, r5, pc}

0800b26c <HAL_UART_Init>:
{
 800b26c:	b510      	push	{r4, lr}
  if(huart == NULL)
 800b26e:	4604      	mov	r4, r0
 800b270:	b328      	cbz	r0, 800b2be <HAL_UART_Init+0x52>
  if(huart->gState == HAL_UART_STATE_RESET)
 800b272:	f890 3069 	ldrb.w	r3, [r0, #105]	; 0x69
 800b276:	f003 02ff 	and.w	r2, r3, #255	; 0xff
 800b27a:	b90b      	cbnz	r3, 800b280 <HAL_UART_Init+0x14>
    huart->Lock = HAL_UNLOCKED;
 800b27c:	f880 2068 	strb.w	r2, [r0, #104]	; 0x68
  __HAL_UART_DISABLE(huart);
 800b280:	6822      	ldr	r2, [r4, #0]
  huart->gState = HAL_UART_STATE_BUSY;
 800b282:	2324      	movs	r3, #36	; 0x24
 800b284:	f884 3069 	strb.w	r3, [r4, #105]	; 0x69
  __HAL_UART_DISABLE(huart);
 800b288:	6813      	ldr	r3, [r2, #0]
 800b28a:	f023 0301 	bic.w	r3, r3, #1
 800b28e:	6013      	str	r3, [r2, #0]
  if (UART_SetConfig(huart) == HAL_ERROR)
 800b290:	4620      	mov	r0, r4
 800b292:	f7ff fe9d 	bl	800afd0 <UART_SetConfig>
 800b296:	2801      	cmp	r0, #1
 800b298:	d011      	beq.n	800b2be <HAL_UART_Init+0x52>
  CLEAR_BIT(huart->Instance->CR2, (USART_CR2_LINEN | USART_CR2_CLKEN));
 800b29a:	6823      	ldr	r3, [r4, #0]
 800b29c:	685a      	ldr	r2, [r3, #4]
 800b29e:	f422 4290 	bic.w	r2, r2, #18432	; 0x4800
 800b2a2:	605a      	str	r2, [r3, #4]
  CLEAR_BIT(huart->Instance->CR3, (USART_CR3_SCEN | USART_CR3_HDSEL | USART_CR3_IREN));
 800b2a4:	689a      	ldr	r2, [r3, #8]
 800b2a6:	f022 022a 	bic.w	r2, r2, #42	; 0x2a
 800b2aa:	609a      	str	r2, [r3, #8]
  __HAL_UART_ENABLE(huart);
 800b2ac:	681a      	ldr	r2, [r3, #0]
 800b2ae:	f042 0201 	orr.w	r2, r2, #1
  return UART_CheckIdleState(huart);
 800b2b2:	4620      	mov	r0, r4
  __HAL_UART_ENABLE(huart);
 800b2b4:	601a      	str	r2, [r3, #0]
}
 800b2b6:	e8bd 4010 	ldmia.w	sp!, {r4, lr}
  return UART_CheckIdleState(huart);
 800b2ba:	f7ff bfa5 	b.w	800b208 <UART_CheckIdleState>
}
 800b2be:	2001      	movs	r0, #1
 800b2c0:	bd10      	pop	{r4, pc}

0800b2c2 <HAL_UART_Transmit>:
  * @param Size: Amount of data to be sent.
  * @param Timeout: Timeout duration.
  * @retval HAL status
  */
HAL_StatusTypeDef HAL_UART_Transmit(UART_HandleTypeDef *huart, uint8_t *pData, uint16_t Size, uint32_t Timeout)
{
 800b2c2:	b5f7      	push	{r0, r1, r2, r4, r5, r6, r7, lr}
 800b2c4:	461e      	mov	r6, r3
  uint16_t* tmp;
  uint32_t tickstart = 0U;

  /* Check that a Tx process is not already ongoing */
  if(huart->gState == HAL_UART_STATE_READY)
 800b2c6:	f890 3069 	ldrb.w	r3, [r0, #105]	; 0x69
 800b2ca:	2b20      	cmp	r3, #32
{
 800b2cc:	460d      	mov	r5, r1
 800b2ce:	4604      	mov	r4, r0
 800b2d0:	4611      	mov	r1, r2
  if(huart->gState == HAL_UART_STATE_READY)
 800b2d2:	d14a      	bne.n	800b36a <HAL_UART_Transmit+0xa8>
  {
    if((pData == NULL ) || (Size == 0U))
 800b2d4:	2d00      	cmp	r5, #0
 800b2d6:	d046      	beq.n	800b366 <HAL_UART_Transmit+0xa4>
 800b2d8:	2a00      	cmp	r2, #0
 800b2da:	d044      	beq.n	800b366 <HAL_UART_Transmit+0xa4>
    {
      return  HAL_ERROR;
    }

    /* Process Locked */
    __HAL_LOCK(huart);
 800b2dc:	f890 3068 	ldrb.w	r3, [r0, #104]	; 0x68
 800b2e0:	2b01      	cmp	r3, #1
 800b2e2:	d042      	beq.n	800b36a <HAL_UART_Transmit+0xa8>
 800b2e4:	2301      	movs	r3, #1
 800b2e6:	f880 3068 	strb.w	r3, [r0, #104]	; 0x68

    huart->ErrorCode = HAL_UART_ERROR_NONE;
 800b2ea:	2300      	movs	r3, #0
 800b2ec:	66c3      	str	r3, [r0, #108]	; 0x6c
    huart->gState = HAL_UART_STATE_BUSY_TX;
 800b2ee:	2321      	movs	r3, #33	; 0x21
 800b2f0:	f880 3069 	strb.w	r3, [r0, #105]	; 0x69

    /* Init tickstart for timeout managment*/
    tickstart = HAL_GetTick();
 800b2f4:	f7ff fb56 	bl	800a9a4 <HAL_GetTick>
 800b2f8:	4607      	mov	r7, r0

    huart->TxXferSize = Size;
 800b2fa:	f8a4 1050 	strh.w	r1, [r4, #80]	; 0x50
    huart->TxXferCount = Size;
 800b2fe:	f8a4 1052 	strh.w	r1, [r4, #82]	; 0x52
    while(huart->TxXferCount > 0U)
 800b302:	f8b4 2052 	ldrh.w	r2, [r4, #82]	; 0x52
 800b306:	b292      	uxth	r2, r2
 800b308:	b962      	cbnz	r2, 800b324 <HAL_UART_Transmit+0x62>
      else
      {
        huart->Instance->TDR = (*pData++ & (uint8_t)0xFFU);
      }
    }
    if(UART_WaitOnFlagUntilTimeout(huart, UART_FLAG_TC, RESET, tickstart, Timeout) != HAL_OK)
 800b30a:	9600      	str	r6, [sp, #0]
 800b30c:	463b      	mov	r3, r7
 800b30e:	2140      	movs	r1, #64	; 0x40
 800b310:	4620      	mov	r0, r4
 800b312:	f7ff ff4d 	bl	800b1b0 <UART_WaitOnFlagUntilTimeout>
 800b316:	b998      	cbnz	r0, 800b340 <HAL_UART_Transmit+0x7e>
    {
      return HAL_TIMEOUT;
    }

    /* At end of Tx process, restore huart->gState to Ready */
    huart->gState = HAL_UART_STATE_READY;
 800b318:	2320      	movs	r3, #32
 800b31a:	f884 3069 	strb.w	r3, [r4, #105]	; 0x69

    /* Process Unlocked */
    __HAL_UNLOCK(huart);
 800b31e:	f884 0068 	strb.w	r0, [r4, #104]	; 0x68

    return HAL_OK;
 800b322:	e00e      	b.n	800b342 <HAL_UART_Transmit+0x80>
      huart->TxXferCount--;
 800b324:	f8b4 2052 	ldrh.w	r2, [r4, #82]	; 0x52
      if(UART_WaitOnFlagUntilTimeout(huart, UART_FLAG_TXE, RESET, tickstart, Timeout) != HAL_OK)
 800b328:	9600      	str	r6, [sp, #0]
      huart->TxXferCount--;
 800b32a:	3a01      	subs	r2, #1
 800b32c:	b292      	uxth	r2, r2
 800b32e:	f8a4 2052 	strh.w	r2, [r4, #82]	; 0x52
      if(UART_WaitOnFlagUntilTimeout(huart, UART_FLAG_TXE, RESET, tickstart, Timeout) != HAL_OK)
 800b332:	463b      	mov	r3, r7
 800b334:	2200      	movs	r2, #0
 800b336:	2180      	movs	r1, #128	; 0x80
 800b338:	4620      	mov	r0, r4
 800b33a:	f7ff ff39 	bl	800b1b0 <UART_WaitOnFlagUntilTimeout>
 800b33e:	b110      	cbz	r0, 800b346 <HAL_UART_Transmit+0x84>
        return HAL_TIMEOUT;
 800b340:	2003      	movs	r0, #3
  }
  else
  {
    return HAL_BUSY;
  }
}
 800b342:	b003      	add	sp, #12
 800b344:	bdf0      	pop	{r4, r5, r6, r7, pc}
      if ((huart->Init.WordLength == UART_WORDLENGTH_9B) && (huart->Init.Parity == UART_PARITY_NONE))
 800b346:	68a3      	ldr	r3, [r4, #8]
 800b348:	6822      	ldr	r2, [r4, #0]
 800b34a:	f5b3 5f80 	cmp.w	r3, #4096	; 0x1000
 800b34e:	d107      	bne.n	800b360 <HAL_UART_Transmit+0x9e>
 800b350:	6923      	ldr	r3, [r4, #16]
 800b352:	b92b      	cbnz	r3, 800b360 <HAL_UART_Transmit+0x9e>
        huart->Instance->TDR = (*tmp & (uint16_t)0x01FFU);
 800b354:	f835 3b02 	ldrh.w	r3, [r5], #2
 800b358:	f3c3 0308 	ubfx	r3, r3, #0, #9
        huart->Instance->TDR = (*pData++ & (uint8_t)0xFFU);
 800b35c:	8513      	strh	r3, [r2, #40]	; 0x28
 800b35e:	e7d0      	b.n	800b302 <HAL_UART_Transmit+0x40>
 800b360:	f815 3b01 	ldrb.w	r3, [r5], #1
 800b364:	e7fa      	b.n	800b35c <HAL_UART_Transmit+0x9a>
      return  HAL_ERROR;
 800b366:	2001      	movs	r0, #1
 800b368:	e7eb      	b.n	800b342 <HAL_UART_Transmit+0x80>
    return HAL_BUSY;
 800b36a:	2002      	movs	r0, #2
 800b36c:	e7e9      	b.n	800b342 <HAL_UART_Transmit+0x80>

0800b36e <HAL_UART_Receive>:
  * @param Size: amount of data to be received.
  * @param Timeout: Timeout duration.
  * @retval HAL status
  */
HAL_StatusTypeDef HAL_UART_Receive(UART_HandleTypeDef *huart, uint8_t *pData, uint16_t Size, uint32_t Timeout)
{
 800b36e:	e92d 41f3 	stmdb	sp!, {r0, r1, r4, r5, r6, r7, r8, lr}
 800b372:	461e      	mov	r6, r3
  uint16_t* tmp;
  uint16_t uhMask;
  uint32_t tickstart = 0U;

  /* Check that a Rx process is not already ongoing */
  if(huart->RxState == HAL_UART_STATE_READY)
 800b374:	f890 306a 	ldrb.w	r3, [r0, #106]	; 0x6a
 800b378:	2b20      	cmp	r3, #32
{
 800b37a:	460d      	mov	r5, r1
 800b37c:	4604      	mov	r4, r0
 800b37e:	4611      	mov	r1, r2
  if(huart->RxState == HAL_UART_STATE_READY)
 800b380:	d15c      	bne.n	800b43c <HAL_UART_Receive+0xce>
  {
    if((pData == NULL ) || (Size == 0U))
 800b382:	2d00      	cmp	r5, #0
 800b384:	d058      	beq.n	800b438 <HAL_UART_Receive+0xca>
 800b386:	2a00      	cmp	r2, #0
 800b388:	d056      	beq.n	800b438 <HAL_UART_Receive+0xca>
    {
      return  HAL_ERROR;
    }

    /* Process Locked */
    __HAL_LOCK(huart);
 800b38a:	f890 3068 	ldrb.w	r3, [r0, #104]	; 0x68
 800b38e:	2b01      	cmp	r3, #1
 800b390:	d054      	beq.n	800b43c <HAL_UART_Receive+0xce>
 800b392:	2301      	movs	r3, #1
 800b394:	f880 3068 	strb.w	r3, [r0, #104]	; 0x68

    huart->Instance->ICR = 0xFFFFFFFF;
 800b398:	6803      	ldr	r3, [r0, #0]
 800b39a:	f04f 32ff 	mov.w	r2, #4294967295	; 0xffffffff
 800b39e:	621a      	str	r2, [r3, #32]
    huart->ErrorCode = HAL_UART_ERROR_NONE;
 800b3a0:	2300      	movs	r3, #0
 800b3a2:	66c3      	str	r3, [r0, #108]	; 0x6c
    huart->RxState = HAL_UART_STATE_BUSY_RX;
 800b3a4:	2322      	movs	r3, #34	; 0x22
 800b3a6:	f880 306a 	strb.w	r3, [r0, #106]	; 0x6a

    /* Init tickstart for timeout managment*/
    tickstart = HAL_GetTick();
 800b3aa:	f7ff fafb 	bl	800a9a4 <HAL_GetTick>

    huart->RxXferSize = Size;
    huart->RxXferCount = Size;

    /* Computation of UART mask to apply to RDR register */
    UART_MASK_COMPUTATION(huart);
 800b3ae:	68a3      	ldr	r3, [r4, #8]
    huart->RxXferSize = Size;
 800b3b0:	f8a4 1058 	strh.w	r1, [r4, #88]	; 0x58
    UART_MASK_COMPUTATION(huart);
 800b3b4:	f5b3 5f80 	cmp.w	r3, #4096	; 0x1000
    tickstart = HAL_GetTick();
 800b3b8:	4680      	mov	r8, r0
    huart->RxXferCount = Size;
 800b3ba:	f8a4 105a 	strh.w	r1, [r4, #90]	; 0x5a
    UART_MASK_COMPUTATION(huart);
 800b3be:	d115      	bne.n	800b3ec <HAL_UART_Receive+0x7e>
 800b3c0:	6923      	ldr	r3, [r4, #16]
 800b3c2:	b98b      	cbnz	r3, 800b3e8 <HAL_UART_Receive+0x7a>
 800b3c4:	f240 13ff 	movw	r3, #511	; 0x1ff
 800b3c8:	f8a4 305c 	strh.w	r3, [r4, #92]	; 0x5c
    uhMask = huart->Mask;
 800b3cc:	f8b4 705c 	ldrh.w	r7, [r4, #92]	; 0x5c

    /* as long as data have to be received */
    while(huart->RxXferCount > 0U)
 800b3d0:	f8b4 005a 	ldrh.w	r0, [r4, #90]	; 0x5a
 800b3d4:	b280      	uxth	r0, r0
 800b3d6:	b980      	cbnz	r0, 800b3fa <HAL_UART_Receive+0x8c>
        *pData++ = (uint8_t)(huart->Instance->RDR & (uint8_t)uhMask);
      }
    }

    /* At end of Rx process, restore huart->RxState to Ready */
    huart->RxState = HAL_UART_STATE_READY;
 800b3d8:	2320      	movs	r3, #32
 800b3da:	f884 306a 	strb.w	r3, [r4, #106]	; 0x6a

    /* Process Unlocked */
    __HAL_UNLOCK(huart);
 800b3de:	f884 0068 	strb.w	r0, [r4, #104]	; 0x68
  }
  else
  {
    return HAL_BUSY;
  }
}
 800b3e2:	b002      	add	sp, #8
 800b3e4:	e8bd 81f0 	ldmia.w	sp!, {r4, r5, r6, r7, r8, pc}
    UART_MASK_COMPUTATION(huart);
 800b3e8:	23ff      	movs	r3, #255	; 0xff
 800b3ea:	e7ed      	b.n	800b3c8 <HAL_UART_Receive+0x5a>
 800b3ec:	2b00      	cmp	r3, #0
 800b3ee:	d1ed      	bne.n	800b3cc <HAL_UART_Receive+0x5e>
 800b3f0:	6923      	ldr	r3, [r4, #16]
 800b3f2:	2b00      	cmp	r3, #0
 800b3f4:	d0f8      	beq.n	800b3e8 <HAL_UART_Receive+0x7a>
 800b3f6:	237f      	movs	r3, #127	; 0x7f
 800b3f8:	e7e6      	b.n	800b3c8 <HAL_UART_Receive+0x5a>
      huart->RxXferCount--;
 800b3fa:	f8b4 205a 	ldrh.w	r2, [r4, #90]	; 0x5a
      if(UART_WaitOnFlagUntilTimeout(huart, UART_FLAG_RXNE, RESET, tickstart, Timeout) != HAL_OK)
 800b3fe:	9600      	str	r6, [sp, #0]
      huart->RxXferCount--;
 800b400:	3a01      	subs	r2, #1
 800b402:	b292      	uxth	r2, r2
 800b404:	f8a4 205a 	strh.w	r2, [r4, #90]	; 0x5a
      if(UART_WaitOnFlagUntilTimeout(huart, UART_FLAG_RXNE, RESET, tickstart, Timeout) != HAL_OK)
 800b408:	4643      	mov	r3, r8
 800b40a:	2200      	movs	r2, #0
 800b40c:	2120      	movs	r1, #32
 800b40e:	4620      	mov	r0, r4
 800b410:	f7ff fece 	bl	800b1b0 <UART_WaitOnFlagUntilTimeout>
 800b414:	b9a0      	cbnz	r0, 800b440 <HAL_UART_Receive+0xd2>
      if ((huart->Init.WordLength == UART_WORDLENGTH_9B) && (huart->Init.Parity == UART_PARITY_NONE))
 800b416:	68a2      	ldr	r2, [r4, #8]
 800b418:	6823      	ldr	r3, [r4, #0]
 800b41a:	f5b2 5f80 	cmp.w	r2, #4096	; 0x1000
 800b41e:	d106      	bne.n	800b42e <HAL_UART_Receive+0xc0>
 800b420:	6922      	ldr	r2, [r4, #16]
 800b422:	b922      	cbnz	r2, 800b42e <HAL_UART_Receive+0xc0>
        *tmp = (uint16_t)(huart->Instance->RDR & uhMask);
 800b424:	8c9b      	ldrh	r3, [r3, #36]	; 0x24
 800b426:	403b      	ands	r3, r7
 800b428:	f825 3b02 	strh.w	r3, [r5], #2
        pData +=2U;
 800b42c:	e7d0      	b.n	800b3d0 <HAL_UART_Receive+0x62>
        *pData++ = (uint8_t)(huart->Instance->RDR & (uint8_t)uhMask);
 800b42e:	8c9b      	ldrh	r3, [r3, #36]	; 0x24
 800b430:	403b      	ands	r3, r7
 800b432:	f805 3b01 	strb.w	r3, [r5], #1
 800b436:	e7cb      	b.n	800b3d0 <HAL_UART_Receive+0x62>
      return  HAL_ERROR;
 800b438:	2001      	movs	r0, #1
 800b43a:	e7d2      	b.n	800b3e2 <HAL_UART_Receive+0x74>
    return HAL_BUSY;
 800b43c:	2002      	movs	r0, #2
 800b43e:	e7d0      	b.n	800b3e2 <HAL_UART_Receive+0x74>
        return HAL_TIMEOUT;
 800b440:	2003      	movs	r0, #3
 800b442:	e7ce      	b.n	800b3e2 <HAL_UART_Receive+0x74>

0800b444 <Reset_Handler>:
 800b444:	2100      	movs	r1, #0
 800b446:	e003      	b.n	800b450 <LoopCopyDataInit>

0800b448 <CopyDataInit>:
 800b448:	4b0b      	ldr	r3, [pc, #44]	; (800b478 <LoopForever+0x2>)
 800b44a:	585b      	ldr	r3, [r3, r1]
 800b44c:	5043      	str	r3, [r0, r1]
 800b44e:	3104      	adds	r1, #4

0800b450 <LoopCopyDataInit>:
 800b450:	480a      	ldr	r0, [pc, #40]	; (800b47c <LoopForever+0x6>)
 800b452:	4b0b      	ldr	r3, [pc, #44]	; (800b480 <LoopForever+0xa>)
 800b454:	1842      	adds	r2, r0, r1
 800b456:	429a      	cmp	r2, r3
 800b458:	d3f6      	bcc.n	800b448 <CopyDataInit>
 800b45a:	4a0a      	ldr	r2, [pc, #40]	; (800b484 <LoopForever+0xe>)
 800b45c:	e002      	b.n	800b464 <LoopFillZerobss>

0800b45e <FillZerobss>:
 800b45e:	2300      	movs	r3, #0
 800b460:	6013      	str	r3, [r2, #0]
 800b462:	3204      	adds	r2, #4

0800b464 <LoopFillZerobss>:
 800b464:	4b08      	ldr	r3, [pc, #32]	; (800b488 <LoopForever+0x12>)
 800b466:	429a      	cmp	r2, r3
 800b468:	d3f9      	bcc.n	800b45e <FillZerobss>
 800b46a:	f3af 8000 	nop.w
 800b46e:	f7fe fbd9 	bl	8009c24 <__libc_init_array>
 800b472:	f7fe ff79 	bl	800a368 <main>

0800b476 <LoopForever>:
 800b476:	e7fe      	b.n	800b476 <LoopForever>
 800b478:	0800b4c4 	.word	0x0800b4c4
 800b47c:	20000000 	.word	0x20000000
 800b480:	20000000 	.word	0x20000000
 800b484:	20000000 	.word	0x20000000
 800b488:	20000ed4 	.word	0x20000ed4

0800b48c <ADC1_2_IRQHandler>:
 800b48c:	e7fe      	b.n	800b48c <ADC1_2_IRQHandler>
 800b48e:	0000      	movs	r0, r0

0800b490 <_init>:
 800b490:	b5f8      	push	{r3, r4, r5, r6, r7, lr}
 800b492:	bf00      	nop
 800b494:	bcf8      	pop	{r3, r4, r5, r6, r7}
 800b496:	bc08      	pop	{r3}
 800b498:	469e      	mov	lr, r3
 800b49a:	4770      	bx	lr

0800b49c <_fini>:
 800b49c:	b5f8      	push	{r3, r4, r5, r6, r7, lr}
 800b49e:	bf00      	nop
 800b4a0:	bcf8      	pop	{r3, r4, r5, r6, r7}
 800b4a2:	bc08      	pop	{r3}
 800b4a4:	469e      	mov	lr, r3
 800b4a6:	4770      	bx	lr
